(dp0
((I20
tp1
(ttp2
I6765
s((I17
tp3
(ttp4
I1597
s((I60
tp5
(ttp6
L1548008755920L
s((I25
tp7
(ttp8
I75025
s((I31
tp9
(ttp10
I1346269
s((I13
tp11
(ttp12
I233
s((I83
tp13
(ttp14
L99194853094755497L
s((I38
tp15
(ttp16
I39088169
s((I39
tp17
(ttp18
I63245986
s((I10
tp19
(ttp20
I55
s((I48
tp21
(ttp22
L4807526976L
s((I78
tp23
(ttp24
L8944394323791464L
s((I73
tp25
(ttp26
L806515533049393L
s((I87
tp27
(ttp28
L679891637638612258L
s((I66
tp29
(ttp30
L27777890035288L
s((I19
tp31
(ttp32
I4181
s((I1
tp33
(ttp34
I1
s((I27
tp35
(ttp36
I196418
s((I14
tp37
(ttp38
I377
s((I9
tp39
(ttp40
I34
s((I52
tp41
(ttp42
L32951280099L
s((I15
tp43
(ttp44
I610
s((I22
tp45
(ttp46
I17711
s((I23
tp47
(ttp48
I28657
s((I32
tp49
(ttp50
I2178309
s((I75
tp51
(ttp52
L2111485077978050L
s((I45
tp53
(ttp54
I1134903170
s((I70
tp55
(ttp56
L190392490709135L
s((I97
tp57
(ttp58
L83621143489848422977L
s((I42
tp59
(ttp60
I267914296
s((I80
tp61
(ttp62
L23416728348467685L
s((I90
tp63
(ttp64
L2880067194370816120L
s((I98
tp65
(ttp66
L135301852344706746049L
s((I11
tp67
(ttp68
I89
s((I36
tp69
(ttp70
I14930352
s((I8
tp71
(ttp72
I21
s((I33
tp73
(ttp74
I3524578
s((I46
tp75
(ttp76
I1836311903
s((I84
tp77
(ttp78
L160500643816367088L
s((I47
tp79
(ttp80
L2971215073L
s((I56
tp81
(ttp82
L225851433717L
s((I99
tp83
(ttp84
L218922995834555169026L
s((I55
tp85
(ttp86
L139583862445L
s((I26
tp87
(ttp88
I121393
s((I69
tp89
(ttp90
L117669030460994L
s((I64
tp91
(ttp92
L10610209857723L
s((I89
tp93
(ttp94
L1779979416004714189L
s((I77
tp95
(ttp96
L5527939700884757L
s((I12
tp97
(ttp98
I144
s((I35
tp99
(ttp100
I9227465
s((I5
tp101
(ttp102
I5
s((I0
tp103
(ttp104
I0
s((I43
tp105
(ttp106
I433494437
s((I30
tp107
(ttp108
I832040
s((I68
tp109
(ttp110
L72723460248141L
s((I40
tp111
(ttp112
I102334155
s((I65
tp113
(ttp114
L17167680177565L
s((I53
tp115
(ttp116
L53316291173L
s((I91
tp117
(ttp118
L4660046610375530309L
s((I79
tp119
(ttp120
L14472334024676221L
s((I18
tp121
(ttp122
I2584
s((I61
tp123
(ttp124
L2504730781961L
s((I88
tp125
(ttp126
L1100087778366101931L
s((I86
tp127
(ttp128
L420196140727489673L
s((I58
tp129
(ttp130
L591286729879L
s((I96
tp131
(ttp132
L51680708854858323072L
s((I4
tp133
(ttp134
I3
s((I44
tp135
(ttp136
I701408733
s((I24
tp137
(ttp138
I46368
s((I67
tp139
(ttp140
L44945570212853L
s((I49
tp141
(ttp142
L7778742049L
s((I92
tp143
(ttp144
L7540113804746346429L
s((I37
tp145
(ttp146
I24157817
s((I62
tp147
(ttp148
L4052739537881L
s((I57
tp149
(ttp150
L365435296162L
s((I100
tp151
(ttp152
L354224848179261915075L
s((I63
tp153
(ttp154
L6557470319842L
s((I2
tp155
(ttp156
I1
s((I72
tp157
(ttp158
L498454011879264L
s((I71
tp159
(ttp160
L308061521170129L
s((I85
tp161
(ttp162
L259695496911122585L
s((I50
tp163
(ttp164
L12586269025L
s((I93
tp165
(ttp166
L12200160415121876738L
s((I3
tp167
(ttp168
I2
s((I28
tp169
(ttp170
I317811
s((I51
tp171
(ttp172
L20365011074L
s((I6
tp173
(ttp174
I8
s((I76
tp175
(ttp176
L3416454622906707L
s((I7
tp177
(ttp178
I13
s((I21
tp179
(ttp180
I10946
s((I16
tp181
(ttp182
I987
s((I59
tp183
(ttp184
L956722026041L
s((I41
tp185
(ttp186
I165580141
s((I29
tp187
(ttp188
I514229
s((I54
tp189
(ttp190
L86267571272L
s((I81
tp191
(ttp192
L37889062373143906L
s((I94
tp193
(ttp194
L19740274219868223167L
s((I95
tp195
(ttp196
L31940434634990099905L
s((I34
tp197
(ttp198
I5702887
s((I74
tp199
(ttp200
L1304969544928657L
s((I82
tp201
(ttp202
L61305790721611591L
s.