(dp0
((S'nuclearsquid.com'
p1
tp2
(ttp3
((Vmolotang.com
p4
F0.025083419629501783
tp5
(Vcrucible.corp.appnexus.com
p6
F0.0014309814038058852
tp7
(Vanswers.perforce.com
p8
F0.000850176451716394
tp9
(Vruby-forum.com
p10
F0.00012045186657374666
tp11
(Vx.sankuai.com
p12
F7.04903956835881e-05
tp13
(Vpinboard.in
p14
F7.1203116432007166e-06
tp15
(Vtheverge.com
p16
F2.8217985580072086e-06
tp17
(Vsuperuser.com
p18
F1.8128071291828394e-06
tp19
(Vstackoverflow.com
p20
F7.170873291331439e-07
tp21
(V8tracks.com
p22
F4.5838400205375003e-07
tp23
(Vgoogle.com.ph
p24
F6.325116749043523e-08
tp25
(Vgithub.com
p26
F2.4893524466823384e-08
tp27
(Vgoogle.com
p28
F2.4395329918893198e-08
tp29
(Vmail.google.com
p30
F9.62054693148217e-09
tp31
(Vfacebook.com
p32
F3.2707786008337474e-10
tp33
tp34
s((S'mojotech.com'
p35
tp36
(ttp37
(ts((S'railsenvy.com'
p38
tp39
(ttp40
((Vproxylala.pw
p41
F0.07315634218289085
tp42
(Vafreshcup.wordpress.com
p43
F0.061630218687872766
tp44
(Vtheodinproject.com
p45
F0.000533130952642291
tp46
(Vforum.rubyonrails.pl
p47
F6.492624968274674e-05
tp48
(Vrailscasts.com
p49
F5.9049096962160154e-05
tp50
(Vkora-online.tv
p51
F5.540333318764308e-06
tp52
(Vyoutube.com
p53
F8.756484556477331e-10
tp54
tp55
s((S'python.org'
p56
tp57
(ttp58
((Vdjangopackages.com
p59
F0.028235770318671527
tp60
(Vdocs.djangoproject.com
p61
F0.011797606215775544
tp62
(Vpythonhosted.org
p63
F0.0072327330062755026
tp64
(Vwikidocs.net
p65
F0.00331444475734783
tp66
(Vnetworkx.github.io
p67
F0.0025721363577256035
tp68
(Vpython3wos.appspot.com
p69
F0.0017378741652830621
tp70
(Vconfluence.atlassian.com
p71
F0.001071124946390917
tp72
(Vpure-forum.org
p73
F0.0008837824192407215
tp74
(Vmoodle.macalester.edu
p75
F0.0007187880924060596
tp76
(Vdeveloper.foursquare.com
p77
F0.000605093370590939
tp78
(Vprogrammeerimine.cs.ut.ee
p79
F0.00043730836141456323
tp80
(Vtrailtiger.com
p81
F0.0004264912335899067
tp82
(Vvirtualenv.pypa.io
p83
F0.0004119807334448899
tp84
(Vliaoxuefeng.com
p85
F0.00039731681140257646
tp86
(Vpagekite.net
p87
F0.00038970019874352943
tp88
(Vh.yandex-team.ru
p89
F0.00032120697262060226
tp90
(Vreplicat.org
p91
F0.00030196437819484144
tp92
tp93
s((S'rydia.net'
p94
tp95
(ttp96
((Vsincomics.com
p97
F0.021359696539829148
tp98
(Vhalflightcomics.com
p99
F0.012060105220756076
tp100
(Vstoryofthedoor.com
p101
F0.012027073087597992
tp102
(Valexanderthekid.tumblr.com
p103
F0.01121503814021068
tp104
(Vdcisgoingtohell.com
p105
F0.010699820225692566
tp106
(Vdubiouscompany.com
p107
F0.008778554737132042
tp108
(Vushala.smackjeeves.com
p109
F0.007147921459680803
tp110
(Vtrue-magic.com
p111
F0.006756772051863651
tp112
(Veqcomics.com
p113
F0.004581133879620812
tp114
(Vteamheartgold.deviantart.com
p115
F0.0041985387859174265
tp116
(Veverblue-comic.com
p117
F0.004143634823308365
tp118
(Vforgottenordercomic.com
p119
F0.003456092237085129
tp120
(Vamyachronicles.com
p121
F0.0028932456769697056
tp122
(Vblackbird.ashen-ray.com
p123
F0.002813647717287217
tp124
(Vhttydireth-vespera.smackjeeves.com
p125
F0.0020531153005398485
tp126
(Vdigitalextremes.slack.com
p127
F0.0016468962340205
tp128
(Vblindsprings.com
p129
F0.001613013680589577
tp130
(Vteahousecomic.com
p131
F0.0013120810467020735
tp132
(Vgiginuzlocke.smackjeeves.com
p133
F0.0011640229070923036
tp134
(Vegscomics.com
p135
F0.0010893065517749412
tp136
tp137
s((S'pocketworx.com'
p138
tp139
(ttp140
(ts((S'penny-arcade.com'
p141
tp142
(ttp143
(ts((S'ruby-doc.org'
p144
tp145
(ttp146
((Vruby-lang.org
p147
F0.013201199696001907
tp148
(Vruby-forum.com
p149
F0.008747609502763641
tp150
(Vrubymonk.com
p151
F0.0066763845359754164
tp152
(Vapi.rubyonrails.org
p153
F0.005878717500206361
tp154
(Vpine.fm
p155
F0.0024445864869402467
tp156
(Vrubydoc.info
p157
F0.0018924510596828913
tp158
(Vpb.vanburg.ru
p159
F0.0016634643017226075
tp160
(Vcodewars.com
p161
F0.0013226159920880281
tp162
(Vfabricationgem.org
p163
F0.0012286729167879811
tp164
(Vrubydocs.org
p165
F0.0012119574037700268
tp166
(Vapidock.com
p167
F0.0010269281121975656
tp168
(Vmootools.net
p169
F0.0009992932546863443
tp170
(Vblog.remarkablelabs.com
p171
F0.0008252490196022697
tp172
(Valexa.bitmakerlabs.com
p173
F0.0008213445688254505
tp174
(Vbloc.io
p175
F0.0008046723518956768
tp176
(Vtlk.io
p177
F0.0008028277194664875
tp178
(Vit-ebooks-search.info
p179
F0.0007187965547440323
tp180
(Vrailstutorial.org
p181
F0.0006903101397194037
tp182
(Vget.wynk.in
p183
F0.000643192538966548
tp184
(Vhorizon.launchacademy.com
p185
F0.0006275973357841288
tp186
tp187
s((S'walla.co'
p188
tp189
(ttp190
((Vmspowerpack.com
p191
F0.00042286056172976963
tp192
(Vmslworld.egged.co.il
p193
F4.631610521254681e-05
tp194
(Vsimplestoolbar.com
p195
F4.4748032871714525e-05
tp196
(Vlink4u.co.il
p197
F8.555601488820286e-06
tp198
(Vpanet.co.il
p199
F2.0687343820870316e-06
tp200
(Vgoogle.co.il
p201
F1.3330927104853262e-06
tp202
(Vsearches.vi-view.com
p203
F1.4813106299849904e-07
tp204
(Vxnxx.com
p205
F9.644941531802667e-08
tp206
(Vmysearch.avg.com
p207
F3.890298355709239e-08
tp208
(Visearch.omiga-plus.com
p209
F3.272544785429898e-08
tp210
(Vistart.webssearches.com
p211
F2.1441877890798774e-08
tp212
(Vtrovi.com
p213
F1.6677189871460833e-08
tp214
(Vsweet-page.com
p215
F1.3795853007327792e-08
tp216
(Vmystartsearch.com
p217
F1.0474484448833913e-08
tp218
(Vvk.com
p219
F5.105423590911466e-09
tp220
(Vyoutube.com
p221
F5.776359629362245e-10
tp222
tp223
s((S'diasp.eu'
p224
tp225
(ttp226
((Vcybette.com
p227
F0.02790506560906111
tp228
(Vd.consumium.org
p229
F0.008538320796909941
tp230
(Vkolabsys.com
p231
F0.005063497897014986
tp232
(Vproverochka.businesscatalyst.com
p233
F0.00446202210729135
tp234
(Vawable.imgur.com
p235
F0.004351204351204351
tp236
(Vfantasylife.nintendo.com
p237
F0.004010262386895224
tp238
(Vpodupti.me
p239
F0.0020148652279036445
tp240
(Vforum.sportenter.co.il
p241
F0.001306915155467928
tp242
(Vfreefotohelp.ru
p243
F0.0008028673835125448
tp244
(Vfuckyouverymuch.dk
p245
F0.0004181940984847102
tp246
(Vredbox.com
p247
F4.213100135421364e-05
tp248
(Vnypost.com
p249
F1.7682904543184476e-05
tp250
(Vbeforeitsnews.com
p251
F1.6786280627496154e-05
tp252
(Vnaturalnews.com
p253
F1.2519575881711194e-05
tp254
(Vrus.postimees.ee
p255
F8.37074626064608e-06
tp256
(Vinfowars.com
p257
F8.345739769065305e-06
tp258
(Vya.ru
p259
F4.903540471922245e-06
tp260
(Vello.co
p261
F1.0571140123657e-06
tp262
(Vvimeo.com
p263
F7.446324075200837e-07
tp264
(Vwordpress.com
p265
F5.822044442670433e-07
tp266
tp267
s((S'nasa.gov'
p268
tp269
(ttp270
((Vnasa.jerusalem.com
p271
F0.0034835518377293096
tp272
(Vspaceweather.com
p273
F0.0033475442840786474
tp274
(Vspace.com
p275
F0.002945265177369104
tp276
(Vswpc.noaa.gov
p277
F0.002494603391767854
tp278
(Vesa.int
p279
F0.001361835042951779
tp280
(Vwhat-if.xkcd.com
p281
F0.0012732149429607702
tp282
(Vciclops.org
p283
F0.0012026940365659103
tp284
(Vcoasttocoastam.com
p285
F0.0011265697014438598
tp286
(Vmarssociety.de
p287
F0.00112391909362521
tp288
(Vweb.taskcracker.com
p289
F0.001026107590113099
tp290
(Vbibobuzz.com
p291
F0.0009696968425407064
tp292
(Vnanowerk.com
p293
F0.0008919591961055805
tp294
(Vbarnstormers.com
p295
F0.000739077425229431
tp296
(Vepod.usra.edu
p297
F0.000649929188302291
tp298
(Vroshihogan.blogspot.com
p299
F0.0006483939270824397
tp300
(Vsolarham.net
p301
F0.0006229008473932558
tp302
(Vharztourist.de
p303
F0.0005347227582500918
tp304
(Vgoehren-ruegen.de
p305
F0.0004998782773573379
tp306
(Vstats.mutu.sivit.org
p307
F0.0004962087088050525
tp308
tp309
s((S'sivers.org'
p310
tp311
(ttp312
((Vexamine.com
p313
F0.007219883173093456
tp314
(Vuwitechnology.com
p315
F0.006839846558005141
tp316
(Vtruefilms.com
p317
F0.0034328335396701663
tp318
(Vsitebeam.net
p319
F0.0032794691752359648
tp320
(Vdocs.withdraft.com
p321
F0.0030549495715956874
tp322
(Vmynavigatorweb.nl
p323
F0.0028599137643591107
tp324
(Vsingapore.recruit.net
p325
F0.0025840897233237402
tp326
(Vmarketplaceleaders.org
p327
F0.0025240834176874162
tp328
(Vblog.placeit.net
p329
F0.0020766650167739096
tp330
(Vkairosbio.com
p331
F0.0019437477085309572
tp332
(Vcenteroftheweb.com
p333
F0.0019412848515847046
tp334
(Valytadros.com
p335
F0.001937933895566251
tp336
(Vfullstackacademy.slack.com
p337
F0.0018748035385513495
tp338
(Vrailstutorial.org
p339
F0.0018368225687322617
tp340
(Vlintool.github.io
p341
F0.0018285739313244568
tp342
(Vhiretheworld.com
p343
F0.0018284838365313551
tp344
(Vadvancedlifeskills.com
p345
F0.0017834354092023132
tp346
(Vballcharts.com
p347
F0.0017386913484488426
tp348
(Vci.appveyor.com
p349
F0.001590201798643241
tp350
(Vblog.zackshapiro.com
p351
F0.0014996575814189902
tp352
tp353
s((S'github.io'
p354
tp355
(ttp356
((Vlukecarbis.github.io
p357
F0.019639527656929768
tp358
(Vbuke.github.io
p359
F0.013217398454201612
tp360
(Vbriangordon.github.io
p361
F0.009287699283311393
tp362
(Vgpeyre.github.io
p363
F0.008611401092566274
tp364
(V6889692.github.io
p365
F0.008225091134009764
tp366
(Vmattsharpe.github.io
p367
F0.00815808798985246
tp368
(Vkalakuh.github.io
p369
F0.007584589614740369
tp370
(Vstevejwikeley.github.io
p371
F0.00743578488101414
tp372
(Vgovlab.github.io
p373
F0.005946039187036417
tp374
(Vlopezrj.github.io
p375
F0.005642699636979904
tp376
(Vrweather.github.io
p377
F0.005466472303206997
tp378
(Vharrydeluxe.github.io
p379
F0.005292730375055698
tp380
(Vfavoorr.github.io
p381
F0.004616774648508087
tp382
(Vthink2011.github.io
p383
F0.004302731567056891
tp384
(Vlxc-webpanel.github.io
p385
F0.00421468554494567
tp386
(Viamtrask.github.io
p387
F0.003928938799817474
tp388
(Vgit.github.io
p389
F0.0037792006892635455
tp390
(Vjakiestfu.github.io
p391
F0.0036454348083036284
tp392
(Vigorescobar.github.io
p393
F0.0036386593204775024
tp394
(Vwxfengyun.github.io
p395
F0.0036010132128431577
tp396
tp397
s((S'extracheese.org'
p398
tp399
(ttp400
(ts((S'dropbox.com'
p401
tp402
(ttp403
((Vapp.box.com
p404
F0.0013404739791132872
tp405
(Vonedrive.live.com
p406
F0.0013325521252906328
tp407
(Vmail.google.com
p408
F0.0012791638643396106
tp409
(Vwetransfer.com
p410
F0.0012718690578820595
tp411
(Vdl.dropboxusercontent.com
p412
F0.001113213379752746
tp413
(Vbasecamp.com
p414
F0.0009847477842498521
tp415
(Vevernote.com
p416
F0.000911169342945063
tp417
(Vtrello.com
p418
F0.0007707266331317271
tp419
(Vgoo.gl
p420
F0.0005643067133763446
tp421
(Vapp.asana.com
p422
F0.0003447113809095475
tp423
(Vpastebin.com
p424
F0.0002867605076989273
tp425
(Vbit.ly
p426
F0.00028238188059720985
tp427
(Vdb.tt
p428
F0.00024846578865390364
tp429
(Vodesk.com
p430
F0.00023057830681953457
tp431
tp432
s((S'stackoverflow.com'
p433
tp434
(ttp435
(ts((S'cappuccino-project.org'
p436
tp437
(ttp438
(ts((S'w3schools.com'
p439
tp440
(ttp441
((Vw3school.com
p442
F0.011502063248230303
tp443
(Vinfo343.ischool.uw.edu
p444
F0.00222680914685972
tp445
(Vhackthissite.org
p446
F0.0020351576929919703
tp447
(Vw3.org
p448
F0.0016574297507289558
tp449
(Vkb.iu.edu
p450
F0.0013406884083077707
tp451
(Vspidermarks.com
p452
F0.0011385526915260464
tp453
(Vtutorialspoint.com
p454
F0.0009175821542880868
tp455
(Vpicoctf.com
p456
F0.0004549384568337717
tp457
(Vw3shools.com
p458
F0.00037857890125446626
tp459
(Vapi.jquery.com
p460
F0.0003059480826287719
tp461
(Vmarianocalvo.com
p462
F0.0002950192275021
tp463
(Vprofit.notice.nl
p464
F0.00028931787484113804
tp465
(Vinsight.ccsf.edu
p466
F0.00027594889236203874
tp467
(Vxps.pk4labs.com
p468
F0.0002748864938891834
tp469
(Vtoster.ru
p470
F0.00025806812375980776
tp471
(Vkarlstads.itslearning.com
p472
F0.00022547500963902747
tp473
(Vhtmlgoodies.com
p474
F0.00021626982800444284
tp475
tp476
s((S'surrey.ac.uk'
p477
tp478
(ttp479
((Vpod51031.outlook.com
p480
F0.0017963586262663706
tp481
(Vexchange.uml.edu
p482
F0.0016144286007902184
tp483
(Vproximity.instructure.com
p484
F0.0015774356511539845
tp485
(Vexchange.ict.usc.edu
p486
F0.0015382841826919614
tp487
(Vsavingcountrymusic.com
p488
F0.0014328752846817757
tp489
(Vkaggle.com
p490
F0.001367232926914554
tp491
(Vussu.co.uk
p492
F0.0012484564641502206
tp493
(Vsurrey.summon.serialssolutions.com
p494
F0.0012332027866896894
tp495
(Vthecompleteuniversityguide.co.uk
p496
F0.0009841707655122726
tp497
(Vuppmax.uu.se
p498
F0.0009450092846242944
tp499
(Vsurrey-uk.sona-systems.com
p500
F0.0008319067088646201
tp501
(Vukeas.com.tw
p502
F0.0007918761171179304
tp503
(Vlms.neumont.edu
p504
F0.0007807936079197472
tp505
(Vunitemps.com
p506
F0.0007186507649313663
tp507
(Vbda.uk.com
p508
F0.0007096719081631982
tp509
(Vcreativeplusonline.co.uk
p510
F0.0006779957155228734
tp511
(Vcancercentrelondon.co.uk
p512
F0.0006776894018489342
tp513
(Vgradintel.com
p514
F0.0006630566913471102
tp515
(Vprogramsinformationpeople.org
p516
F0.0005993082113115775
tp517
(Vemeraldinsight.com
p518
F0.0005816681288147595
tp519
tp520
s((S'iosreviews.net'
p521
tp522
(ttp523
((Vfilter.usd262.net
p524
F0.0006673834859664083
tp525
(Va3.mzstatic.com
p526
F7.803355442840422e-05
tp527
(Vappszoom.com
p528
F2.7909670351906058e-05
tp529
(Vvimeo.com
p530
F4.509971547090617e-07
tp531
(Vgoogle.com.my
p532
F1.679023567040801e-07
tp533
(Vencrypted.google.com
p534
F1.581442718563291e-07
tp535
(Vduckduckgo.com
p536
F1.2340433203180587e-07
tp537
(Vtwitch.tv
p538
F6.699834316704951e-08
tp539
(Vgoogle.com
p540
F1.7100833862031203e-08
tp541
tp542
s((S'superuser.com'
p543
tp544
(ttp545
((Vstackexchange.com
p546
F0.004099459401758269
tp547
(Vlibc6.org
p548
F0.0030590372069599944
tp549
(Vencrypted.google.com
p550
F0.001023749016786298
tp551
(Vstartpage.com
p552
F0.0008201129671354862
tp553
(Vxie.lu
p554
F0.0007714776591323591
tp555
(Vforum.transmissionbt.com
p556
F0.0007119466006968179
tp557
(Vsmartredirect.de
p558
F0.00047585572816905144
tp559
(Vserverfault.com
p560
F0.00047570928055575365
tp561
(Vaskubuntu.com
p562
F0.0004297365953529304
tp563
(Vvirtualrouter.codeplex.com
p564
F0.00036603824366120835
tp565
(Ventiteinconnue.com
p566
F0.0002567725344910978
tp567
(Vservice.whiteclarke.com
p568
F0.0002535906271887286
tp569
(Vnetmechanic.dyndns.org
p570
F0.000249944877301956
tp571
(Vsocial.technet.microsoft.com
p572
F0.0002398143987486882
tp573
(Vcode5gaming.com
p574
F0.00022645517687985438
tp575
(Vmxc.ru
p576
F0.00021803652826213085
tp577
(Vwen.lu
p578
F0.00021779296914272678
tp579
(Vkldp.org
p580
F0.0001614334562921192
tp581
tp582
s((S'regexper.com'
p583
tp584
(ttp585
((Vstats.wefra.de
p586
F0.01654884318766067
tp587
(Vservices.balihoo.com
p588
F0.011492809144005528
tp589
(Virchelp.org
p590
F0.009514896272032445
tp591
(Vbalihoo.wikispaces.com
p592
F0.008600634473034897
tp593
(Vconfig.whatsapp.net
p594
F0.008235261768587769
tp595
(Vope.comlocal.com
p596
F0.0054417942296446095
tp597
(Vex-parrot.com
p598
F0.005244206124024955
tp599
(Vscriptular.com
p600
F0.004299777068208656
tp601
(Vquovo.slack.com
p602
F0.004205529280171921
tp603
(Vslant.co
p604
F0.004089682490907161
tp605
(Vifconfig.me
p606
F0.003823109724905924
tp607
(Vjex.im
p608
F0.003593484437396034
tp609
(Vregexpal.com
p610
F0.003533949522620317
tp611
(Vredmine.nokaut.pl
p612
F0.003469110832330577
tp613
(Vmyezapp.com
p614
F0.0033483126266631424
tp615
(Vosslab.msopentech.cn
p616
F0.003287199672690848
tp617
(Vregexcrossword.com
p618
F0.0032797965438917417
tp619
(Vflockhart.virtualave.net
p620
F0.003141157502640796
tp621
(Vww1.regexp.com
p622
F0.0030955896640652257
tp623
(Vwisepilgrim.tk
p624
F0.0027548002769799186
tp625
tp626
s((S'foobar2000.org'
p627
tp628
(ttp629
((Vxiph.org
p630
F0.012560316380569403
tp631
(Vchromium.woolyss.com
p632
F0.00955818180112687
tp633
(Vnnc-board.com
p634
F0.008407273052412243
tp635
(Vseriosoft.org
p636
F0.00812328805121656
tp637
(Vifi-audio.com
p638
F0.00682673706152465
tp639
(Vthalassa.feralhosting.com
p640
F0.006206348719177406
tp641
(Vexactaudiocopy.de
p642
F0.0059219804079789435
tp643
(Vhydrogenaud.io
p644
F0.004881531371685709
tp645
(Vsrware.net
p646
F0.0038989963128243216
tp647
(Vopen-end-music.de
p648
F0.0028752770792993695
tp649
(Vforum.pskovonline.ru
p650
F0.002540252362730567
tp651
(Vforum.hdmovie.vn
p652
F0.0019178192491957236
tp653
(Vmassengeschmack.tv
p654
F0.0017078779488777472
tp655
(Vforums.ffshrine.org
p656
F0.001649445296546487
tp657
(Vsmsserver.itouchnet.co.za
p658
F0.0015547791300949707
tp659
(Vburrrn.net
p660
F0.0013273025950887873
tp661
(Vjenny317.pixnet.net
p662
F0.0010201545082112753
tp663
(V10file.com
p664
F0.0009778273268755075
tp665
tp666
s((S'ycombinator.com'
p667
tp668
(ttp669
((Vhackerne.ws
p670
F0.002258449013607999
tp671
(Vtechmeme.com
p672
F0.0012691820221576143
tp673
(Vnews.layervault.com
p674
F0.0009917455368117767
tp675
(Vproducthunt.com
p676
F0.0006783600822242837
tp677
(Vspacerogue.net
p678
F0.0006178246123912907
tp679
(Vxcortex.com
p680
F0.0005490919247667366
tp681
(Vblog.samaltman.com
p682
F0.00045371434238055064
tp683
(Vnautil.us
p684
F0.0004510529032547637
tp685
(Vnews.dbanotes.net
p686
F0.0003639712839933979
tp687
(Vlesswrong.com
p688
F0.00029064409138113845
tp689
(Vnikcub.com
p690
F0.00023565540621483204
tp691
(Vlobste.rs
p692
F0.00016749410462020464
tp693
(Vgwucolumbian.service-now.com
p694
F0.00015106314765607595
tp695
(Vdatatau.com
p696
F0.0001409348825942487
tp697
(Vnet-benefits.net
p698
F0.00013016942453237583
tp699
tp700
s((S'netdna-ssl.com'
p701
tp702
(ttp703
((Vservermat.info
p704
F0.015230253887760331
tp705
(Vfinedininglovers.com
p706
F0.007828688392923909
tp707
(Vblog.myfitnesspal.com
p708
F0.006571678856628307
tp709
(Vvisual.ly
p710
F0.005523052877933682
tp711
(Vredrow.co.uk
p712
F0.0054794740749505135
tp713
(Vgrainandmortar.com
p714
F0.005173594116386273
tp715
(Vskillsera.com
p716
F0.004438460562360511
tp717
(Vblank-box.net
p718
F0.003202477829561559
tp719
(Vkls-ukraine.com.ua
p720
F0.0026298015359082477
tp721
(Vfinerthings.in
p722
F0.002208584819772735
tp723
(Vhostedcloudy.com
p724
F0.001929990552717578
tp725
(Vzino.im
p726
F0.0017095925364803445
tp727
(Vsram.com
p728
F0.0015705995916889095
tp729
(Vs1magnettvcom.maynemyltf.netdna-cdn.com
p730
F0.0013414146062946583
tp731
(Vhomepath.com
p732
F0.0010985648416592306
tp733
(Vagents.equator.com
p734
F0.000992105542015471
tp735
(Vnewhdplugin.net
p736
F0.0006650805674776797
tp737
(Virvsluggage.com
p738
F0.0006295881279719576
tp739
(Vcool-tv.net
p740
F0.0006268836631248746
tp741
(Vbettielou.blogspot.com
p742
F0.0005037569778605635
tp743
tp744
s((S'theenchanter.com'
p745
tp746
(ttp747
(ts((S'mashable.com'
p748
tp749
(ttp750
((Vtechcrunch.com
p751
F0.003269554441150279
tp752
(Vthenextweb.com
p753
F0.0020893059576553882
tp754
(Vtheverge.com
p755
F0.0011964644051488723
tp756
(Vengadget.com
p757
F0.0011541180149668715
tp758
(Vwired.com
p759
F0.0010062199169788152
tp760
(Vt.co
p761
F0.001000532665223137
tp762
(Vgizmodo.com
p763
F0.0008873288390789227
tp764
(Vbusinessinsider.com
p765
F0.0007152040206950399
tp766
(Vdigg.com
p767
F0.0005093257403694798
tp768
(Vmacrumors.com
p769
F0.00048813763950878304
tp770
(Vfastcompany.com
p771
F0.0004186323234047929
tp772
(Varstechnica.com
p773
F0.00036950639928100704
tp774
(Vfeedly.com
p775
F0.000247658170357474
tp776
tp777
s((S'designtaxi.com'
p778
tp779
(ttp780
((Vnaturpixel.com
p781
F0.002525569674668886
tp782
(Vresearch.facebook.com
p783
F0.0024447558932316087
tp784
(Vmrhyde.com
p785
F0.002101027503719101
tp786
(Vpurpleheart.org
p787
F0.0015727754663803514
tp788
(Vedpuzzle.com
p789
F0.0014091455933541925
tp790
(Vallenby-pratt.com
p791
F0.0012811653560782217
tp792
(Valiciavera.com
p793
F0.0012265785229286553
tp794
(Vtheinspiration.com
p795
F0.0011984722954081271
tp796
(Vmodernhousemagazine.com
p797
F0.0011556103820603895
tp798
(Vhaebc.com
p799
F0.0011554678439678909
tp800
(Vhep.eiz.jp
p801
F0.0011284011989747447
tp802
(Vsomethingcomics.tumblr.com
p803
F0.001076472847460011
tp804
(Vmensstyleadvice.com
p805
F0.0010069390317375387
tp806
(Vjobisjob.de
p807
F0.0009852059176329467
tp808
(Vassets.gecapital.com.au
p809
F0.0009332437835811571
tp810
(Vcreativereview.co.uk
p811
F0.000928881838058707
tp812
(Vzombiesamurai.pl
p813
F0.0009227463467303423
tp814
(Vecsediekszer.hu
p815
F0.0008745579998976046
tp816
(Vkarne.pl
p817
F0.0008697854085080444
tp818
(Vilghirlandaio.com
p819
F0.000848768909519732
tp820
tp821
s((S'jasonseifer.com'
p822
tp823
(ttp824
((Vauto.pubtest.internal.33across.com
p825
F0.01332036660478001
tp826
(Vjuanpabloprado.com
p827
F0.007676274719129683
tp828
(Vpichost.me
p829
F0.00024074733939569222
tp830
(Vteamtreehouse.com
p831
F0.00023630208318629474
tp832
(Vmartinfowler.com
p833
F8.655217132744378e-05
tp834
(Vraindrop.io
p835
F2.303324849420138e-05
tp836
(Vdigitalocean.com
p837
F5.704592440587661e-06
tp838
(Vencrypted.google.com
p839
F2.6578255453102915e-06
tp840
(Vpivotaltracker.com
p841
F8.601690807198737e-07
tp842
(Vstackoverflow.com
p843
F7.90829840897358e-07
tp844
(Vb.hatena.ne.jp
p845
F3.9690572298361973e-07
tp846
(Vgithub.com
p847
F8.47725944524667e-08
tp848
tp849
s((S'metaskills.net'
p850
tp851
(ttp852
((Vctshryock.com
p853
F0.016547468798205022
tp854
(Vredmine.bikecityguide.org
p855
F0.0021527305687740767
tp856
(Vatendesign.atlassian.net
p857
F0.0003169074849782714
tp858
(Vcoderwall.com
p859
F0.00021703084325282697
tp860
(Vphantomjs.org
p861
F0.00013313754282917278
tp862
(Vhttpd.apache.org
p863
F1.5940797752535055e-05
tp864
(Vgithub.com
p865
F3.3243081757242964e-06
tp866
(Vduckduckgo.com
p867
F1.0081056908941716e-06
tp868
(Vtrello.com
p869
F9.761391994511724e-07
tp870
(Vstartpage.com
p871
F6.875454166190843e-07
tp872
(Vstackoverflow.com
p873
F3.0192988684047274e-07
tp874
(Vtweetdeck.twitter.com
p875
F1.599518661211605e-07
tp876
(Vbing.com
p877
F9.369324416725723e-08
tp878
(Vgoogle.com.sg
p879
F5.183408317133579e-08
tp880
tp881
s((S'overapi.com'
p882
tp883
(ttp884
((Vapis.pw
p885
F0.007200668343131401
tp886
(Vtroy.labs.daum.net
p887
F0.00701409345452805
tp888
(V121down.com
p889
F0.005797076194085878
tp890
(Vbullium.com
p891
F0.005647792665666607
tp892
(Vpittalis.hostings.co.uk
p893
F0.005007780530559443
tp894
(Vwebmail.garmin.com
p895
F0.004804957073805288
tp896
(Vbumpsdocumentarily.squarespace.com
p897
F0.004158373405198481
tp898
(Vorays.wd-works.com
p899
F0.004110381077529567
tp900
(Vbootgraph.net
p901
F0.004030362627239939
tp902
(Vredmine.infogene.fr
p903
F0.0034291946192749156
tp904
(Vmitarbeiter.hs-heilbronn.de
p905
F0.003285460978893482
tp906
(Vnote-pad.net
p907
F0.0032399080437864043
tp908
(Vupsideos.com
p909
F0.0032079887740138428
tp910
(Vscm.ulster.ac.uk
p911
F0.002922858853657464
tp912
(Vibmwebsphereportalserver.blogspot.pt
p913
F0.0026748188381356852
tp914
(Vytub3.com
p915
F0.0026007381348067253
tp916
(Vvertical3w.teamwork.com
p917
F0.002595337661272785
tp918
(Vfindpatent.ru
p919
F0.0025676768503163972
tp920
(Vcheat-sheets.org
p921
F0.0022810455972986374
tp922
(Vlocaltest.me
p923
F0.002195967292517345
tp924
tp925
s((S'meditation.com'
p926
tp927
(ttp928
((Vmedication.com
p929
F0.015265354800238521
tp930
(Vhoroscopedays.com
p931
F0.0001161929383741703
tp932
(Vbrilliant.org
p933
F6.724553867879327e-05
tp934
(Vamharicmovies.com
p935
F5.362787984026289e-05
tp936
(Vlequipe.fr
p937
F7.816310148203357e-07
tp938
(Ven.wikipedia.org
p939
F5.252421832353988e-08
tp940
(Vsearch.ask.com
p941
F3.7740381291546105e-08
tp942
(Vgoogle.ca
p943
F3.648383286054617e-08
tp944
(Vreddit.com
p945
F1.058890587253285e-08
tp946
(Vgoogle.co.in
p947
F3.669238772897556e-09
tp948
(Vfacebook.com
p949
F1.5397755423834308e-09
tp950
tp951
s((S'taskrabbit.com'
p952
tp953
(ttp954
(ts((S'fetchapp.com'
p955
tp956
(ttp957
((Vcheckout.shopify.com
p958
F0.03289034869667742
tp959
(Vpixelunion.net
p960
F0.014754481133273599
tp961
(Vvfbpro.com
p962
F0.006749764676306224
tp963
(Vmovimus-wrestling.myshopify.com
p964
F0.004611150121474517
tp965
(Vsiteorigin.uservoice.com
p966
F0.0013398333270103824
tp967
(Vnivel7.zendesk.com
p968
F0.0010256196709226026
tp969
(Vlocalinternettraffic.basecamphq.com
p970
F0.0007945726175017724
tp971
(Vfindacaravan.co.uk
p972
F0.000773582354640265
tp973
(Vmygedlive.com
p974
F0.0006667648984276862
tp975
(Vsupergiantgames.com
p976
F0.0006353591339866412
tp977
(Vrubinmuseum.mooclients.com
p978
F0.0005533319807440471
tp979
(Vstore-ugs15e.mybigcommerce.com
p980
F0.0005459376175282371
tp981
(Vdowntownhq.com
p982
F0.0005201510438608135
tp983
(Vwebmail1.cogeco.ca
p984
F0.0005121806493696923
tp985
(Vccparkboard.com
p986
F0.0005069670278806741
tp987
(Vmy-cubby-house-rocks.myshopify.com
p988
F0.000469641480868186
tp989
(Vpredictablesuccess.com
p990
F0.00046456904822288767
tp991
(Vabookapart.com
p992
F0.000443290002711978
tp993
(Vjoridweb.com
p994
F0.00037026980326331123
tp995
(Vevanabrams.com
p996
F0.00036538634981349104
tp997
tp998
s((S'ureddit.com'
p999
tp1000
(ttp1001
((Vbeginnerscpp.com
p1002
F0.006572671888598781
tp1003
(Vfatsecret.com.au
p1004
F0.004678948612723494
tp1005
(V3pod.com.au
p1006
F0.004578399016372226
tp1007
(Vdev.solita.fi
p1008
F0.00436173082109968
tp1009
(Vwebcourseworks.com
p1010
F0.003127216921718232
tp1011
(Vthehybridathlete.com
p1012
F0.0023514834745883392
tp1013
(Vtelecommuterjobs.net
p1014
F0.002200164380097364
tp1015
(Vlocal.brookings.k12.sd.us
p1016
F0.002117690013996227
tp1017
(Vevasdigital.co
p1018
F0.0018805682450380422
tp1019
(Vuniversityofreddit.com
p1020
F0.0013201869970415694
tp1021
(Vludosoul.wordpress.com
p1022
F0.0012700212020068434
tp1023
(Vmole-reads.tumblr.com
p1024
F0.0012221340955459448
tp1025
(Vwipp.energy.gov
p1026
F0.001025010250102501
tp1027
(Vmail.yoox.biz
p1028
F0.0010156743254000932
tp1029
(Vapexbookcompany.com
p1030
F0.0010100822701702092
tp1031
(Vcodeception.com
p1032
F0.0009424400667020082
tp1033
(Vincidentalcomplexity.com
p1034
F0.0009344921035417251
tp1035
(Vdogfalo.github.io
p1036
F0.0009123859517560306
tp1037
(Vacsf.com.au
p1038
F0.0008911864087341653
tp1039
(Vwindenergyfoundation.org
p1040
F0.0008400938928468477
tp1041
tp1042
s((S'youtu.be'
p1043
tp1044
(ttp1045
((Vyoutube.be
p1046
F0.002327771504181619
tp1047
(Vuses.myherbalife.com
p1048
F0.0022052491406921487
tp1049
(Vbahrammoshiri.com
p1050
F0.00120513846529179
tp1051
(Vsteerbiddersales.com
p1052
F0.0010856524094649729
tp1053
(Vexams.evinrude.com
p1054
F0.0009387105668307909
tp1055
(Vwww2.memehk.com
p1056
F0.000840664053480079
tp1057
(Vmemehk.com
p1058
F0.0006322798687984735
tp1059
(Vmissyusa.com
p1060
F0.0006279402146092168
tp1061
(Vfollovvme.com
p1062
F0.0004785133661676418
tp1063
(Vtubetamil.com
p1064
F0.0004547101225723085
tp1065
(Vfirstlegoleague.org
p1066
F0.0004278581860366056
tp1067
(Vk8mer.com
p1068
F0.00038935924897389785
tp1069
(Vblaulichtreporter.de
p1070
F0.0003442025800306291
tp1071
(Veasykart.it
p1072
F0.00034177048920407956
tp1073
(Vnerdapproved.com
p1074
F0.00033383098580019383
tp1075
(Vwieboldtv.de
p1076
F0.0003332203017659258
tp1077
(Vphumidrama.com
p1078
F0.00032757148580445696
tp1079
(Vkilroynews.net
p1080
F0.0003270797996804544
tp1081
(Vhelpdesk.tankionline.com
p1082
F0.0002683043007451439
tp1083
(Vsaintsfc.co.uk
p1084
F0.0002499477358238586
tp1085
tp1086
s((S'ynet.co.il'
p1087
tp1088
(ttp1089
(ts((S'tutorialspoint.com'
p1090
tp1091
(ttp1092
((Vwiki.python.org
p1093
F0.005812159708003393
tp1094
(Vtutorialpoint.com
p1095
F0.0021775165351430943
tp1096
(Vjavatpoint.com
p1097
F0.001968934012532698
tp1098
(Vhexvolt.blogspot.ru
p1099
F0.0015654524915361316
tp1100
(Verhvervsakademisydvest.sharepoint.com
p1101
F0.0010571098842477162
tp1102
(Vrallydev.com
p1103
F0.0007445860040062963
tp1104
(Vcprogramming.com
p1105
F0.0006934952073382222
tp1106
(Vebooks-it.org
p1107
F0.0006203165820055927
tp1108
(Vmkyong.com
p1109
F0.0005062963910686054
tp1110
(Vlardoors.ru
p1111
F0.00048065709207179333
tp1112
(Vstudytonight.com
p1113
F0.00044009319580119765
tp1114
(Vhomeandlearn.co.uk
p1115
F0.00042920870144858323
tp1116
(Vhub.attask.com
p1117
F0.00041461175045723575
tp1118
(Vfhict.nl
p1119
F0.0003724732036863049
tp1120
(Vbatman.jamk.fi
p1121
F0.00035189190319527444
tp1122
(Vservices.brics.dk
p1123
F0.00034668114031273604
tp1124
(Vjava2s.com
p1125
F0.0003430930183514621
tp1126
(Vncvps.blackboard.com
p1127
F0.00033488728945250517
tp1128
(Vforum-alsacetech.org
p1129
F0.00031760909843814436
tp1130
(Vvogella.com
p1131
F0.0003130399033593343
tp1132
tp1133
s((S'cappuccino.org'
p1134
tp1135
(ttp1136
(ts((S'verou.me'
p1137
tp1138
(ttp1139
(ts((S'sqlite.org'
p1140
tp1141
(ttp1142
(ts((S'amazon.com'
p1143
tp1144
(ttp1145
((Vebay.com
p1146
F0.006738821250621747
tp1147
(Vslickdeals.net
p1148
F0.004120650473717563
tp1149
(Vbestbuy.com
p1150
F0.0030788964220882925
tp1151
(Vwalmart.com
p1152
F0.003050477312560511
tp1153
(Vnewegg.com
p1154
F0.002798296769576636
tp1155
(Vnetflix.com
p1156
F0.0024294274563549496
tp1157
(Vreddit.com
p1158
F0.002175753691217573
tp1159
(Vgoogle.com
p1160
F0.001391784985509667
tp1161
(Vhulu.com
p1162
F0.0011102072873126314
tp1163
(Vblackfriday.com
p1164
F0.0008052288786513178
tp1165
(Vus-mg6.mail.yahoo.com
p1166
F0.000766715618933907
tp1167
(Vtarget.com
p1168
F0.0007593360528991675
tp1169
(Ven.wikipedia.org
p1170
F0.0005814582312035169
tp1171
(Vgoodreads.com
p1172
F0.000495839687204871
tp1173
tp1174
s((S'brentozar.com'
p1175
tp1176
(ttp1177
(ts((S'rubybestpractices.com'
p1178
tp1179
(ttp1180
(ts((S'adobe.com'
p1181
tp1182
(ttp1183
((Vmozilla.org
p1184
F0.015111450175616077
tp1185
(Vapps.facebook.com
p1186
F0.0059619678680743506
tp1187
(Vfilehippo.com
p1188
F0.004900062455243954
tp1189
(Vacrobat.com
p1190
F0.004836207731470023
tp1191
(Vshell.windows.com
p1192
F0.004715263584245032
tp1193
(Vfb1.farm2.zynga.com
p1194
F0.004637787853163249
tp1195
(Vsupport.google.com
p1196
F0.0037578816140994334
tp1197
(Vthanks.freesoftstore.com
p1198
F0.002328482156562959
tp1199
(Vupdate1024.com
p1200
F0.0013898408960056395
tp1201
(Vthanks.freesoftstore2.com
p1202
F0.0013255858152199373
tp1203
(Vowl.english.purdue.edu
p1204
F0.0013105499640232714
tp1205
(Veasyjet.com
p1206
F0.0007198307701079823
tp1207
(Vmacromedia.com
p1208
F0.0006869022921899767
tp1209
(Vsecure.sarsefiling.co.za
p1210
F0.0006844256605296551
tp1211
tp1212
s((S'wikipedia.org'
p1213
tp1214
(ttp1215
((Vencrypted.google.com
p1216
F0.00771525505585607
tp1217
(Vbing.com
p1218
F0.004811910265206266
tp1219
(Vanswers.yahoo.com
p1220
F0.003100154798136046
tp1221
(Vsearch.disconnect.me
p1222
F0.0027486073979923428
tp1223
(Vprinceton.edu
p1224
F0.002546492596888385
tp1225
(Vimdb.com
p1226
F0.0020199007621722297
tp1227
(Vboards.4chan.org
p1228
F0.0011714401370427696
tp1229
(Veksisozluk.com
p1230
F0.001109914847106986
tp1231
(Vduckduckgo.com
p1232
F0.0010408949383171428
tp1233
(Vreddit.com
p1234
F0.000775024669043505
tp1235
(Vwen.lu
p1236
F0.0007574262961416565
tp1237
(Vraterhub.com
p1238
F0.00044425107955377627
tp1239
(Vbaike.baidu.com
p1240
F0.00035421615396662187
tp1241
tp1242
s((S'twitter.com'
p1243
tp1244
(ttp1245
((Vinstagram.com
p1246
F0.009640668836346135
tp1247
(Vfacebook.com
p1248
F0.005754900727130478
tp1249
(Vtumblr.com
p1250
F0.005717088994814716
tp1251
(Vtwitch.tv
p1252
F0.005152529468333346
tp1253
(Vreddit.com
p1254
F0.004914842497878588
tp1255
(Vask.fm
p1256
F0.004444513960399476
tp1257
(Vlinkedin.com
p1258
F0.003428389609628508
tp1259
(Vyoutube.com
p1260
F0.0033467710833313545
tp1261
(Vgoogle.co.jp
p1262
F0.0017641893086358437
tp1263
(Vespn.go.com
p1264
F0.001334680555584708
tp1265
(Vvk.com
p1266
F0.0008567391042836494
tp1267
(Vgoogle.com.tr
p1268
F0.0008184359701507858
tp1269
tp1270
s((S'google.com'
p1271
tp1272
(ttp1273
(ts((S'coursera.org'
p1274
tp1275
(ttp1276
((Vcourses.edx.org
p1277
F0.005682409218958396
tp1278
(Vudacity.com
p1279
F0.0032743153315409304
tp1280
(Vcodeskulptor.org
p1281
F0.002716798767326224
tp1282
(Vedx.org
p1283
F0.002345213620656822
tp1284
(Vmooc.guokr.com
p1285
F0.001304445694573597
tp1286
(Vudemy.com
p1287
F0.0012989515229204602
tp1288
(Vcodecademy.com
p1289
F0.001094793903822028
tp1290
(Vfuturelearn.com
p1291
F0.001069718425067974
tp1292
(Vd396qusza40orc.cloudfront.net
p1293
F0.0009671142040794794
tp1294
(Vmysliderule.com
p1295
F0.0006418503366131907
tp1296
(Vmiriadax.net
p1297
F0.0006400923571775631
tp1298
(Vocw.mit.edu
p1299
F0.0005196729488418822
tp1300
(Vonline.stanford.edu
p1301
F0.0004266295741752318
tp1302
(V1point3acres.com
p1303
F0.00034809050272295626
tp1304
tp1305
s((S'somethingpositive.com'
p1306
tp1307
(ttp1308
((Vsomethingpostive.net
p1309
F0.05551369002763124
tp1310
(Vjezebel.com
p1311
F4.424084024843979e-06
tp1312
(Vsmbc-comics.com
p1313
F3.576337317918497e-06
tp1314
(Vamazon.co.uk
p1315
F2.8458752349683427e-07
tp1316
(Vtwitter.com
p1317
F1.9658182515494668e-08
tp1318
(Vreddit.com
p1319
F1.4299505429861048e-08
tp1320
tp1321
s((S'puzzlescript.net'
p1322
tp1323
(ttp1324
(ts((S'ebay.com'
p1325
tp1326
(ttp1327
((Vamazon.com
p1328
F0.010715418955713561
tp1329
(Vpaypal.com
p1330
F0.004491756406860376
tp1331
(Vetsy.com
p1332
F0.003662715716951191
tp1333
(Vslickdeals.net
p1334
F0.003069012319460808
tp1335
(Valiexpress.com
p1336
F0.0028328755606823754
tp1337
(Vus-mg6.mail.yahoo.com
p1338
F0.0019084091674699396
tp1339
(Vwalmart.com
p1340
F0.0017906265490819154
tp1341
(Ve.mail.ru
p1342
F0.0016764064461063679
tp1343
(Vgoogle.com
p1344
F0.0010756325212520402
tp1345
(Vautobia.com
p1346
F0.0008751469412171619
tp1347
(Vbestbuy.com
p1348
F0.0006417003644546833
tp1349
(Vnewegg.com
p1350
F0.0005644308027097123
tp1351
(Vmail.aol.com
p1352
F0.0004919381996496611
tp1353
tp1354
s((S'blogspot.com'
p1355
tp1356
(ttp1357
((Vassemblagemagazine.blogspot.co.uk
p1358
F0.006541988631317168
tp1359
(Vm5newsroom.blogspot.com
p1360
F0.004036872954197155
tp1361
(Vynotdownload.blogspot.fr
p1362
F0.0022117442599623263
tp1363
(Vmthplay.blogspot.com
p1364
F0.0020413221935465056
tp1365
(Vhamidrezashaabani.blogspot.com
p1366
F0.0019204729711661645
tp1367
(Vaufannada.blogspot.com
p1368
F0.0017903645833333333
tp1369
(Vbpi.fr
p1370
F0.0017869947498546654
tp1371
(Vesmor.blogspots.com
p1372
F0.00178335979137614
tp1373
(Vnasirabdulsattar.blogspot.com
p1374
F0.0015214354157980588
tp1375
(Vblogdauyeu.blogspot.com
p1376
F0.0015159288469955333
tp1377
(Vnetnam.vn
p1378
F0.0015090202188512115
tp1379
(Vncngame.blogspot.com
p1380
F0.0015063179670179727
tp1381
(Vm88vn.com
p1382
F0.001409084418436105
tp1383
(Vmncshop.co.id
p1384
F0.001362530038324371
tp1385
(Vmywardrobesl.blogspot.com
p1386
F0.0011306262301520825
tp1387
(Vshishology.blogspot.com
p1388
F0.0010837903091795939
tp1389
(Vkaka1951989.blogspot.com
p1390
F0.0010813764505062807
tp1391
(Vblogspots.com
p1392
F0.0010752472369247685
tp1393
(Vapp-vn.blogspot.com
p1394
F0.0010721612178382198
tp1395
(Vchoukngok.blogspot.com
p1396
F0.0010719783990852125
tp1397
tp1398
s((S'python-requests.org'
p1399
tp1400
(ttp1401
((Vzhidaow.com
p1402
F0.009551755746611724
tp1403
(Vfreepythontips.wordpress.com
p1404
F0.006459608747061535
tp1405
(Vcrsmithdev.com
p1406
F0.003916645744413759
tp1407
(Vpythonforbeginners.com
p1408
F0.00257766774217122
tp1409
(Vdjrill.readthedocs.org
p1410
F0.002012919776840218
tp1411
(Vpypi.python.org
p1412
F0.0017488807041015017
tp1413
(Vsqlserverradio.co.il
p1414
F0.0015344216654011643
tp1415
(Vlftp.yar.ru
p1416
F0.0014730447987851177
tp1417
(Vcommunity.idolondemand.com
p1418
F0.0014134444923578169
tp1419
(Vlupaworld.com
p1420
F0.0012363183378873667
tp1421
(Vapi-help.campaigncommander.com
p1422
F0.0012157320254775146
tp1423
(Vcms.int.avast.com
p1424
F0.00106509819085949
tp1425
(V101skidka.slack.com
p1426
F0.001045992198313829
tp1427
(Vmy.itron.com
p1428
F0.0009469974323677864
tp1429
(Vgitlab.labs.nic.cz
p1430
F0.000788003055522052
tp1431
(Vcoupadev.atlassian.net
p1432
F0.0007800650703031773
tp1433
(Vctf.sobug.com
p1434
F0.0007446869450650168
tp1435
(Vpydoc.net
p1436
F0.0007438618658704967
tp1437
(Vcrummy.com
p1438
F0.0005123460621771358
tp1439
(Vhazel01.dot8.va.us.attask.com
p1440
F0.0004937072558779491
tp1441
tp1442
s((S'lifehacker.com'
p1443
tp1444
(ttp1445
(ts((S'similarweb.com'
p1446
tp1447
(ttp1448
(ts((S'labnol.org'
p1449
tp1450
(ttp1451
((Vdictation.io
p1452
F0.053638048227418224
tp1453
(Vshoutmeloud.com
p1454
F0.006330967493765026
tp1455
(Vchandigarh.craigslist.co.in
p1456
F0.005956020018352308
tp1457
(Vctrlq.org
p1458
F0.003126295253718603
tp1459
(Vsoftwarerecs.stackexchange.com
p1460
F0.0024987468507650713
tp1461
(Vwarriorbreak.com
p1462
F0.0018003759225045986
tp1463
(Vdavidwalsh.name
p1464
F0.0017453391136774254
tp1465
(Vchillingeffects.org
p1466
F0.0010805928441890496
tp1467
(Vbocktherobber.com
p1468
F0.0010176242920439393
tp1469
(Vdeadurl.com
p1470
F0.0009012318677442234
tp1471
(Vcrack-net.com
p1472
F0.0008675788308667134
tp1473
(Vacessotop.semanatopenem.com
p1474
F0.0008457425669831452
tp1475
(Vplaytool.com
p1476
F0.000833971133323157
tp1477
(Vblog.teamtreehouse.com
p1478
F0.0007845697379048289
tp1479
(Vscript.google.com
p1480
F0.000775616447790688
tp1481
(Vcurso.aspasl.com
p1482
F0.0007295140509111274
tp1483
(Vmuro.sk
p1484
F0.0007203143020910928
tp1485
(Vdigitalhubinc.com
p1486
F0.0006249173569437375
tp1487
(Vmeteoalarm.eu
p1488
F0.0006155205087474934
tp1489
(Vbazqux.com
p1490
F0.0006142111911626334
tp1491
tp1492
s((S'microsoft.com'
p1493
tp1494
(ttp1495
((Vaccount.live.com
p1496
F0.03392699089457
tp1497
(Vsupport.skype.com
p1498
F0.0035348837961288793
tp1499
(Vsupport.google.com
p1500
F0.0034552858349033064
tp1501
(Vaz307127.vo.msecnd.net
p1502
F0.0022238317607300075
tp1503
(Vbing.com
p1504
F0.0021814967174457966
tp1505
(Vinsider.windows.com
p1506
F0.0020978542030613587
tp1507
(Vsupport.mozilla.org
p1508
F0.0014405952463219156
tp1509
(Vshell.windows.com
p1510
F0.0009299673249284091
tp1511
(Vwunderlist.com
p1512
F0.000919005584821735
tp1513
(Vsupport.office.com
p1514
F0.0008910745265042753
tp1515
(Vmozilla.org
p1516
F0.0008072399269828862
tp1517
(Voffice.com
p1518
F0.0007969000993079764
tp1519
(Vportal.office.com
p1520
F0.0005823095407318863
tp1521
(Vjava.com
p1522
F0.0005101489984820142
tp1523
(Vmystartsearch.com
p1524
F0.0004853991371988819
tp1525
(Vmicrosoftstore.com
p1526
F0.0004429218660199628
tp1527
(Viegallery.com
p1528
F0.00043285860820947095
tp1529
tp1530
s((S'sitepoint.com'
p1531
tp1532
(ttp1533
((Vlearnable.com
p1534
F0.003775512545387916
tp1535
(Vtutsplus.com
p1536
F0.0018674564890191878
tp1537
(Vjquery4u.com
p1538
F0.0015746334577439493
tp1539
(Vsmashingmagazine.com
p1540
F0.0015285013069617425
tp1541
(Vphpdeveloper.org
p1542
F0.0009926448925364107
tp1543
(Vaskleo.com
p1544
F0.0007617632740019425
tp1545
(Vrockettheme.com
p1546
F0.0006841783339726206
tp1547
(Vohio.edu
p1548
F0.0006826065234712008
tp1549
(Vbaymard.com
p1550
F0.0005839645071941564
tp1551
(Vwfvrj.petrobras.com.br
p1552
F0.000577655622686037
tp1553
(Vflukeout.github.io
p1554
F0.0005158523372684569
tp1555
(Vcodeguide.hu
p1556
F0.0005057804575627206
tp1557
(Vdocs.angularjs.org
p1558
F0.0005039753917788309
tp1559
(Vrubyflow.com
p1560
F0.00047607335651278954
tp1561
(Vsocial.tesisquare.com
p1562
F0.0004735965093608097
tp1563
(Vmobility.synovus.com
p1564
F0.00046856522119488223
tp1565
(Vorder.sitepointmedia.com
p1566
F0.0004548368673123083
tp1567
(Vmanagewp.org
p1568
F0.00035966640079505813
tp1569
(Vapp.emailmeform.com
p1570
F0.0002865970293783667
tp1571
(Vhealthclubsystems.com
p1572
F0.0002705686531720551
tp1573
tp1574
s((S'history.com'
p1575
tp1576
(ttp1577
((Vaetv.com
p1578
F0.00798236133012671
tp1579
(Vthisdayinrock.com
p1580
F0.0037971496161920237
tp1581
(Vhistorynet.com
p1582
F0.0030760712668171076
tp1583
(Vdiscovery.com
p1584
F0.0021861770845481867
tp1585
(Von-this-day.com
p1586
F0.001472630734754977
tp1587
(Vtravelchannel.com
p1588
F0.001415992886466294
tp1589
(Vbiography.com
p1590
F0.0013597998334544566
tp1591
(Vunileverpc.com
p1592
F0.0012406136238727436
tp1593
(Voptimum.net
p1594
F0.0010563923348507547
tp1595
(Vdailyupliftingquotes.com
p1596
F0.000970086295744522
tp1597
(Vtodayinliterature.com
p1598
F0.0007611890843539773
tp1599
(Vmylifetime.com
p1600
F0.0007440318299485829
tp1601
(Vactivate.fox.com
p1602
F0.000740355482017051
tp1603
(Vwatchtveverywhere.com
p1604
F0.0007079766794187768
tp1605
(Vhistoryorb.com
p1606
F0.0006006680921527825
tp1607
(Vnationaldaycalendar.com
p1608
F0.0005802684968778012
tp1609
(Vushistory.org
p1610
F0.000472393245433172
tp1611
(Vmail.colton.k12.ca.us
p1612
F0.00046702853469422615
tp1613
(Vmyhatchets.haikulearning.com
p1614
F0.00035607368402211693
tp1615
tp1616
s((S'andismith.com'
p1617
tp1618
(ttp1619
(ts((S'diveintopython.net'
p1620
tp1621
(ttp1622
((Vluisartola.com
p1623
F0.01308713593306666
tp1624
(Vlearn.gramener.com
p1625
F0.0066802362512468775
tp1626
(Vdjango-chinese-docs-14.readthedocs.org
p1627
F0.006255710972095312
tp1628
(Vlignos.org
p1629
F0.003607044345427541
tp1630
(Vdocs.python.org
p1631
F0.0029514139252664086
tp1632
(Vdiveintopython3.net
p1633
F0.0024584698132149164
tp1634
(Vscipy.org
p1635
F0.00233695159956468
tp1636
(Vcalazan.com
p1637
F0.0018844901747393514
tp1638
(Vconnexus-jjm.appspot.com
p1639
F0.0016320116054158607
tp1640
(Vtour-sz.com
p1641
F0.0015841490518749704
tp1642
(Vsagemath.org
p1643
F0.0013459797709473023
tp1644
(Vapp.azendoo.com
p1645
F0.001330340715038685
tp1646
(Vgit.crl.vecna.com
p1647
F0.0011964902951342728
tp1648
(Vtechprom.ru
p1649
F0.0011357111225529769
tp1650
(Vmozgovipc.blogspot.co.il
p1651
F0.0008450978246330817
tp1652
(Vcforbeginners.com
p1653
F0.0006691024343003037
tp1654
(Vquality.mozilla.org
p1655
F0.0006626145240006626
tp1656
(Vvipod.ecommtools.com
p1657
F0.0006560723137483598
tp1658
(Vtrac.kit-xxi.com.ua
p1659
F0.0006007910415380251
tp1660
(Vwoodpecker.org.cn
p1661
F0.0005948740571413293
tp1662
tp1663
s((S'facebook.com'
p1664
tp1665
(ttp1666
(ts((S'voormedia.com'
p1667
tp1668
(ttp1669
(ts((S'google.co.uk'
p1670
tp1671
(ttp1672
((Vbbc.co.uk
p1673
F0.015803661828799845
tp1674
(Vuk.search.yahoo.com
p1675
F0.015624271888821255
tp1676
(Vamazon.co.uk
p1677
F0.009254315963283003
tp1678
(Vebay.co.uk
p1679
F0.008528257560579584
tp1680
(Ven.wikipedia.org
p1681
F0.004255091317020974
tp1682
(Vreddit.com
p1683
F0.003980648583379911
tp1684
(Vdailymail.co.uk
p1685
F0.0038733698459187693
tp1686
(Vsearch.safefinder.com
p1687
F0.0028345322202820732
tp1688
(Vyoutube.com
p1689
F0.00276943281382409
tp1690
(Vtwitter.com
p1691
F0.002499320864991151
tp1692
(Vuk.msn.com
p1693
F0.0014519535531925948
tp1694
(Vaccounts.youtube.com
p1695
F0.0014106376960693401
tp1696
(Vtheguardian.com
p1697
F0.0012393448640209122
tp1698
(Vcr2.gogorithm.com
p1699
F0.001229652212371702
tp1700
tp1701
s((S'reddit.com'
p1702
tp1703
(ttp1704
(ts((S'apidoc.com'
p1705
tp1706
(ttp1707
((Vapi.doc.com
p1708
F0.1111111111111111
tp1709
(Vapi.gehealthcare.com
p1710
F0.009782125389061804
tp1711
(Vapidock.com
p1712
F3.2379614904614277e-05
tp1713
tp1714
s((S'technion.ac.il'
p1715
tp1716
(ttp1717
(ts((S'apple.com'
p1718
tp1719
(ttp1720
(ts((S'scirra.com'
p1721
tp1722
(ttp1723
((Vc2community.ru
p1724
F0.007406235634299808
tp1725
(Vforums.tigsource.com
p1726
F0.006516674763500749
tp1727
(Vschwer-muta.blogspot.com
p1728
F0.0023252657005772242
tp1729
(Vwayofthepixel.net
p1730
F0.001771588111111012
tp1731
(Vblog.rubukkit.org
p1732
F0.001722506455389649
tp1733
(Vgamedev.ru
p1734
F0.00155671710308373
tp1735
(Velm-lang.org
p1736
F0.001454633678371806
tp1737
(Vkaamelott.co
p1738
F0.0014379499425883405
tp1739
(Vapp.mopub.com
p1740
F0.0013974901440273661
tp1741
(Vgame.9128.com
p1742
F0.001325856745272391
tp1743
(Vbases-hacking.org
p1744
F0.0012120643217503788
tp1745
(Va710594.byethost24.com
p1746
F0.0011639507815098104
tp1747
(Vyoyogames.com
p1748
F0.0010952749740584789
tp1749
(Vforums.wasabistudio.ca
p1750
F0.0010359152424912791
tp1751
(Velbitcoin.org
p1752
F0.0010213289204327799
tp1753
(Vstencyl.com
p1754
F0.0009509958272804534
tp1755
(Vfilmin.es
p1756
F0.000825167958358985
tp1757
(Vwowgame.jp
p1758
F0.0007702468672979726
tp1759
(Vcollaboration.swisscom.com
p1760
F0.0007476651600406859
tp1761
(Vfpl78.free.fr
p1762
F0.000719450980093071
tp1763
tp1764
s((S'chromium.org'
p1765
tp1766
(ttp1767
((Vdeveloper.chrome.com
p1768
F0.022100752027343448
tp1769
(Vjohnlewis.ie
p1770
F0.008052545533720222
tp1771
(Vimperialviolet.org
p1772
F0.004177426369874129
tp1773
(Vdownload-chromium.appspot.com
p1774
F0.004009500944262519
tp1775
(Vscotthelme.co.uk
p1776
F0.003532999099854658
tp1777
(Vcode.google.com
p1778
F0.002697460919000486
tp1779
(Vchromium.googlesource.com
p1780
F0.0020873460363834335
tp1781
(Vproductforums.google.com
p1782
F0.001335644399033382
tp1783
(Vwiki.archlinux.org
p1784
F0.0012934590063155952
tp1785
(Vkb.sitecore.net
p1786
F0.001156154586531049
tp1787
(Vblogmicrosoftbrasil.com.br
p1788
F0.0010548510155260927
tp1789
(Vexample.com
p1790
F0.0003803379258623619
tp1791
(Vdownloads.yahoo.com
p1792
F0.00034267692060830046
tp1793
(Vjava.com
p1794
F0.00031751464182818584
tp1795
(Vminutoms.com.br
p1796
F0.00029505951595761227
tp1797
(Vmattcutts.com
p1798
F0.0002391419420138638
tp1799
(Vgigaom.com
p1800
F0.00023660680057301445
tp1801
(Vcorom.vn
p1802
F0.00023047213023705282
tp1803
(Vvpnhelp.homeawaycorp.com
p1804
F0.0002284515048063452
tp1805
tp1806
s((S'gmail.com'
p1807
tp1808
(ttp1809
((Vgoogle.co.in
p1810
F0.002160747949931791
tp1811
(Vreddit.com
p1812
F0.0019094229668676123
tp1813
(Vnetflix.com
p1814
F0.0015143636335367562
tp1815
(Vamazon.com
p1816
F0.001114998532370577
tp1817
(Vdropbox.com
p1818
F0.0008313813311958971
tp1819
(Ven.wikipedia.org
p1820
F0.0008247348851858367
tp1821
(Vpandora.com
p1822
F0.0008159585716037036
tp1823
(Vaccount.live.com
p1824
F0.0007445104894934813
tp1825
(Vfacebook.com
p1826
F0.0007035519930853775
tp1827
(Vstartpagina.nl
p1828
F0.0004478025187472418
tp1829
(Vlinkedin.com
p1830
F0.00038762191829156073
tp1831
(Vsoundcloud.com
p1832
F0.00035534929141919615
tp1833
(Vstackoverflow.com
p1834
F0.000352430535378393
tp1835
(Vtrovi.com
p1836
F0.0003270559567248911
tp1837
(Vbing.com
p1838
F0.0003186797288942869
tp1839
(Vsearch.safefinder.com
p1840
F0.0003181670220008833
tp1841
(Vhome.tb.ask.com
p1842
F0.000309598054277362
tp1843
tp1844
s((S'padolsey.com'
p1845
tp1846
(ttp1847
((Vpapagoarchery.com
p1848
F0.010473375849017473
tp1849
(Vvintagephotoboothnyc.com
p1850
F0.00996644957568581
tp1851
(Vwebmail.digitalgear.com
p1852
F0.007198731312699346
tp1853
(Vgod.richard.dev.xen.lan.expert-shops.com
p1854
F0.005221312448083541
tp1855
(Vfoaas.com
p1856
F0.005002293011606166
tp1857
(Vcnfeat.com
p1858
F0.00401750239583653
tp1859
(Vwifi.weixin.qq.com
p1860
F0.003792761744407321
tp1861
(Vfrontend.richard.dev.xen.lan.expert-shops.com
p1862
F0.0036325652028917203
tp1863
(Vjira.foryouandyourteam.com
p1864
F0.003233026610295946
tp1865
(Vicescrum.i-dalgo2.com
p1866
F0.003064895530648955
tp1867
(Vabgmanagementlimited.quickbase.com
p1868
F0.002340158796489762
tp1869
(Vsave-dep-mukku.blogspot.jp
p1870
F0.0023262142399424154
tp1871
(Vzero11.com.br
p1872
F0.0023032042085126734
tp1873
(Vwiki.s00.jp
p1874
F0.002212426322029087
tp1875
(Vozekisms.com
p1876
F0.0018377987713592483
tp1877
(Vzhangxinxu.com
p1878
F0.0016898954023123237
tp1879
(Vcvmlrobotics.blogspot.com
p1880
F0.0016786257882148291
tp1881
(Vredwoods.com
p1882
F0.0016160499719493919
tp1883
(Vrandomsnippets.com
p1884
F0.0013289677088390124
tp1885
(Vejohn.org
p1886
F0.0012231300524343327
tp1887
tp1888
s((S'sixrevisions.com'
p1889
tp1890
(ttp1891
((Vforum.hangarnet.com.br
p1892
F0.004522612841241663
tp1893
(Viconpaper.org
p1894
F0.004388601429190374
tp1895
(Vpanosfx.com
p1896
F0.003981522100667729
tp1897
(Vliptonicetea.com
p1898
F0.0039197345769073555
tp1899
(Vtiny.cc
p1900
F0.003371601640395747
tp1901
(Vbohemian.curated.co
p1902
F0.003326202922179347
tp1903
(Vnoupe.com
p1904
F0.002781459432749324
tp1905
(Vvle-project.org
p1906
F0.002767415707556039
tp1907
(Vsixrevision.com
p1908
F0.0022085172602788606
tp1909
(Vbusiness.tutsplus.com
p1910
F0.0017757417437201713
tp1911
(Vforum.weavertheme.com
p1912
F0.0015203455783372938
tp1913
(Vtvgratishd.blogspot.com
p1914
F0.0015013110572595332
tp1915
(Vinflexwetrust.com
p1916
F0.0012838767727523452
tp1917
(Vsixminutes.dlugan.com
p1918
F0.001239579333077317
tp1919
(Vtricias-captions.tumblr.com
p1920
F0.0012110202845897668
tp1921
(Vsiteexplorer.info
p1922
F0.0010857132729947228
tp1923
(Vcommonplaces.com
p1924
F0.0010758741477450429
tp1925
(Vmongodbspain.com
p1926
F0.0010698474333738655
tp1927
(Vlanzateya.com
p1928
F0.0010386067653343092
tp1929
(Vfleischlust.com
p1930
F0.0009746657118920917
tp1931
tp1932
s((S'spotad.co'
p1933
tp1934
(ttp1935
((Vinnolance.com
p1936
F0.002733964248159832
tp1937
(Vnewincite.com
p1938
F0.0021574973031283713
tp1939
(Vui.servesharp.net
p1940
F0.0003960637357950218
tp1941
(Vjira.millennialmedia.com
p1942
F0.00036140992389132194
tp1943
(Vmovinstream.com
p1944
F4.124136508918446e-05
tp1945
(Vhwzone.co.il
p1946
F1.7154933461951347e-05
tp1947
(Vsubtitle.co.il
p1948
F7.854194729049916e-06
tp1949
(Vlinkedin.com
p1950
F1.6123254398713075e-07
tp1951
(Vvimeo.com
p1952
F9.877902401742443e-08
tp1953
(Vgoogle.co.uk
p1954
F9.113462281788802e-08
tp1955
(Vfacebook.com
p1956
F7.059035289641063e-09
tp1957
tp1958
s((S'walmart.com'
p1959
tp1960
(ttp1961
((Vtarget.com
p1962
F0.016191472243672674
tp1963
(Vwww2.onlinecreditcenter6.com
p1964
F0.01191700934366368
tp1965
(Vblackfriday.com
p1966
F0.008828973008072028
tp1967
(Vbestbuy.com
p1968
F0.007051185413925967
tp1969
(Vkmart.com
p1970
F0.004302594970420979
tp1971
(Vtoysrus.com
p1972
F0.004132935890938453
tp1973
(Vsamsclub.com
p1974
F0.003398453827899621
tp1975
(Vhiringcenter.walmartstores.com
p1976
F0.002464230730206549
tp1977
(Vr.befrugal.com
p1978
F0.002102698555986174
tp1979
(Vwalgreens.com
p1980
F0.0018930996132344058
tp1981
(Vshopping.paypal.com
p1982
F0.0012793019201361572
tp1983
(Vkohls.com
p1984
F0.001067534574161307
tp1985
(Vgamestop.com
p1986
F0.00098459925813377
tp1987
(Vamazon.com
p1988
F0.0009239514095817645
tp1989
tp1990
s((S'testy.com'
p1991
tp1992
(ttp1993
((Vgoogle.com
p1994
F5.7582840045330454e-09
tp1995
(Vfacebook.com
p1996
F4.906167885604807e-10
tp1997
tp1998
s((S'batsov.com'
p1999
tp2000
(ttp2001
((Vblog.rust-lang.org
p2002
F0.0025602059117481963
tp2003
(Vskanev.com
p2004
F0.0022080608194980154
tp2005
(Vbarisyuksel.com
p2006
F0.0017846249100858622
tp2007
(Vclever-cloud.com
p2008
F0.0017729664335737266
tp2009
(Vbotnets.fr
p2010
F0.0017378253485524707
tp2011
(Vemacs.sexy
p2012
F0.0017151187719749593
tp2013
(Vohtatblog.wordpress.com
p2014
F0.0014208184846155637
tp2015
(Vthatthinginswift.com
p2016
F0.0005549820740790072
tp2017
(Vemacswiki.org
p2018
F0.000361288776960209
tp2019
(Vgamasutra.com
p2020
F7.182796042938065e-05
tp2021
(Vcreditkarma.com
p2022
F4.846935431658113e-05
tp2023
(Vde.reddit.com
p2024
F2.1918490506820317e-05
tp2025
(Vgithub.com
p2026
F9.564137939050661e-06
tp2027
(Vpluralsight.com
p2028
F7.698149584786948e-06
tp2029
(Vencrypted.google.com
p2030
F3.904554290440822e-06
tp2031
(Vstackoverflow.com
p2032
F2.7530196598198716e-06
tp2033
(Vsearch.disconnect.me
p2034
F1.452201017759609e-06
tp2035
(Vstartpage.com
p2036
F4.5705844497747614e-07
tp2037
(Vgoogle.com.br
p2038
F2.7313056986275865e-08
tp2039
tp2040
s((S'apidock.com'
p2041
tp2042
(ttp2043
((Vapi.rubyonrails.org
p2044
F0.004283722809508841
tp2045
(Vlogentries.com
p2046
F0.0031281175847644965
tp2047
(Vguides.rubyonrails.org
p2048
F0.0014298972896033487
tp2049
(Vbsonspec.org
p2050
F0.0013823136499941477
tp2051
(Vadtaily.hackpad.com
p2052
F0.0013067944421232297
tp2053
(Vadmin.revieworld.com
p2054
F0.0012428262182843334
tp2055
(Vsportngin.atlassian.net
p2056
F0.000914667802116352
tp2057
(Vrailsdoc.com
p2058
F0.0008941412847720574
tp2059
(Vgsubbarao.com
p2060
F0.0008810756888817209
tp2061
(Vruby-doc.org
p2062
F0.000875561057367794
tp2063
(Vgotealeaf.campfirenow.com
p2064
F0.0008217247009736729
tp2065
(Vruby-forum.com
p2066
F0.0007341966194683126
tp2067
(Vrequiremind.com
p2068
F0.0006038566509753178
tp2069
(V3edge.in
p2070
F0.0006037040162545684
tp2071
(Vcapterrapaulo.aws.af.cm
p2072
F0.0005021993641797336
tp2073
(Vstrftimer.com
p2074
F0.0005021070563973819
tp2075
(Vclojuredocs.org
p2076
F0.0004751783760686909
tp2077
(Vwebmail.abril.com.br
p2078
F0.00046069404857109657
tp2079
(Vnvcad.nvidia.com
p2080
F0.0004513071790077689
tp2081
(Vruby.about.com
p2082
F0.0004484059714551321
tp2083
tp2084
s((S'dorkly.com'
p2085
tp2086
(ttp2087
((Vcollegehumor.com
p2088
F0.00532996727307274
tp2089
(Vdidyouknowgaming.com
p2090
F0.0021633027780272383
tp2091
(Vnetlore.ru
p2092
F0.0013772662965528448
tp2093
(Vawkwardzombie.com
p2094
F0.0011546861484157086
tp2095
(Vbrawlinthefamily.keenspot.com
p2096
F0.001025083503038372
tp2097
(Vexplosm.net
p2098
F0.0009121791532666129
tp2099
(Vdorktower.com
p2100
F0.0007780467559879749
tp2101
(Vbunicomic.com
p2102
F0.0007688771325575398
tp2103
(Vpenny-arcade.com
p2104
F0.000697397505029458
tp2105
(Vforums.tigsource.com
p2106
F0.0006230253345583321
tp2107
(Vsyacartoonist.com
p2108
F0.0005622097830873088
tp2109
(Vdangerouslychloe.com
p2110
F0.0004875689986759523
tp2111
(Vblessings.thecomicseries.com
p2112
F0.0004383328772759553
tp2113
(Vtrenchescomic.com
p2114
F0.00042936677189025536
tp2115
(Vsurvivingtheworld.net
p2116
F0.00038241257511459256
tp2117
(Vdraconicsonic.deviantart.com
p2118
F0.0002444842155108139
tp2119
tp2120
s((S'infosecisland.com'
p2121
tp2122
(ttp2123
(ts((S'zetalab.de'
p2124
tp2125
(ttp2126
(ts((S'dock.com'
p2127
tp2128
(ttp2129
((Vdocks.qc.ca
p2130
F0.06434729912128474
tp2131
(Vdockandslip.com
p2132
F0.06212746446584136
tp2133
(Vtessera.com
p2134
F0.005609478693919016
tp2135
(Vedu.americanvhs.com
p2136
F0.0009426078168425553
tp2137
(Vv3.mercusuar.info
p2138
F5.262204832870827e-06
tp2139
(Vsafecart.com
p2140
F1.0612495775718263e-06
tp2141
tp2142
s((S'fabiensanglard.net'
p2143
tp2144
(ttp2145
((Vnom.com
p2146
F0.016733385481372414
tp2147
(Vmeet.emulex.com
p2148
F0.009327642729015897
tp2149
(Vemulex.my.salesforce.com
p2150
F0.009142718564326422
tp2151
(Vasicweb.emulex.com
p2152
F0.007491289198606272
tp2153
(Vopenhighschoolcourses.org
p2154
F0.006642895061989392
tp2155
(Vneilblevins.com
p2156
F0.004470560344097675
tp2157
(Vlinor.fr
p2158
F0.0038202984095753404
tp2159
(Vhmsconfluence.activision.com
p2160
F0.003148796306750467
tp2161
(Vdevinsmith.net
p2162
F0.002372270790317621
tp2163
(Vhobbygamedev.com
p2164
F0.0022267112008906844
tp2165
(Vthink-like-a-git.net
p2166
F0.002052212874160923
tp2167
(Vgamedev.stackexchange.com
p2168
F0.0019690283982804094
tp2169
(Vgp32spain.com
p2170
F0.0015787369595053969
tp2171
(Vsda.se
p2172
F0.0014976407646989833
tp2173
(Vbenefitsmedical.com
p2174
F0.0014063662602922299
tp2175
(Vengineering.zenpayroll.com
p2176
F0.0013555184723144803
tp2177
(Vblog.yourkarma.com
p2178
F0.0011144507108844686
tp2179
(Vshoutem.slack.com
p2180
F0.0007275420982314113
tp2181
(Vwiki.mcselec.com
p2182
F0.0004583651642475172
tp2183
(Vopengl.org
p2184
F0.000321510536147959
tp2185
tp2186
s((S'92.195'
p2187
tp2188
(ttp2189
(ts((S'.hdokiejnpimakedhajhdlcegeplioahd'
p2190
tp2191
(ttp2192
(ts((S'johnlewis.ie'
p2193
tp2194
(ttp2195
((Vcoreboot.org
p2196
F0.02854268245491835
tp2197
(Vdistroshare.com
p2198
F0.016549572788962446
tp2199
(Vwebmail.w14a.comcast.net
p2200
F0.013918136600019624
tp2201
(Vdeconetworks.com
p2202
F0.007967123011370798
tp2203
(Vjeanlouisnguyen.blogspot.ca
p2204
F0.005415745410279979
tp2205
(Vpilaresdelcodigo.wordpress.com
p2206
F0.004368068633605357
tp2207
(Vae.sjsu.edu
p2208
F0.00432630123544891
tp2209
(Vsenk9.wordpress.com
p2210
F0.0035087719298245615
tp2211
(Vreadditing.herokuapp.com
p2212
F0.0031414092774758665
tp2213
(Vanderswallin.net
p2214
F0.0027987907111832813
tp2215
(Vgeorgakopoulos.org
p2216
F0.001107007252449383
tp2217
(Vzupimages.net
p2218
F0.0010530772654731792
tp2219
(Vjoomla.quantumcs.com
p2220
F0.0007784613047770943
tp2221
(Vchromium.org
p2222
F0.0007239176971487771
tp2223
(Vciteworld.com
p2224
F0.000622003528792297
tp2225
(Vtechreport.com
p2226
F0.0003636459011841565
tp2227
(Vfunhousegames.co
p2228
F0.00029423524559166105
tp2229
(Vbuddypress.org
p2230
F0.00017586529805995192
tp2231
(Vwiki.archlinux.org
p2232
F0.00013728228690694814
tp2233
(Vtvxs.gr
p2234
F9.757876076671679e-05
tp2235
tp2236
s((S'docks.com'
p2237
tp2238
(ttp2239
((Vnew-startups.com
p2240
F0.0011150896408172368
tp2241
(Vimei.info
p2242
F0.00013258549617717544
tp2243
(Vdocs.com
p2244
F0.00011210307582814303
tp2245
tp2246
s((S'railscasts.com'
p2247
tp2248
(ttp2249
(ts((S'stakeventures.com'
p2250
tp2251
(ttp2252
(ts((S'coreboot.org'
p2253
tp2254
(ttp2255
((Vhappyassassin.net
p2256
F0.059476348436577016
tp2257
(Vgit.buildroot.net
p2258
F0.02452952891923749
tp2259
(Vflashrom.org
p2260
F0.017701817587736517
tp2261
(Vbrmlab.cz
p2262
F0.013296603505499648
tp2263
(Vtiny.wiki.kernel.org
p2264
F0.012337571525115207
tp2265
(V86duino.com
p2266
F0.010515115478500344
tp2267
(Veskolar.com
p2268
F0.009344584495521896
tp2269
(Vjohnlewis.ie
p2270
F0.006332038626695642
tp2271
(Vseabios.org
p2272
F0.00443494523109805
tp2273
(Vsavebydiy.com
p2274
F0.0036583215796897038
tp2275
(Vlists.denx.de
p2276
F0.0029219143576826195
tp2277
(Vdonate.ccf.org.tw
p2278
F0.0027590143659023876
tp2279
(Vmetacloud.jira.com
p2280
F0.002028728663370954
tp2281
(Vembeddedlinux.org.cn
p2282
F0.0018237464363575382
tp2283
(Vfsf.org
p2284
F0.0017019026720611005
tp2285
(Vdev.milaap.org
p2286
F0.0011945877468052004
tp2287
(Vwiki.archlinux.org
p2288
F0.0007416826313193679
tp2289
(Vhitech.vesti.ru
p2290
F0.00033012905439744935
tp2291
(Vmark.intel.com
p2292
F0.00029483913576752523
tp2293
(Vlinux.softpedia.com
p2294
F2.1233992224112045e-05
tp2295
tp2296
s((S'usenet.org'
p2297
tp2298
(ttp2299
(ts((S'imgur.com'
p2300
tp2301
(ttp2302
((Veksisozluk.com
p2303
F0.007959158123693156
tp2304
(Vsteamcommunity.com
p2305
F0.005482409223054582
tp2306
(Vl.moapi.net
p2307
F0.0042747932543380305
tp2308
(Vptt.cc
p2309
F0.004205827649589891
tp2310
(Vreddit.com
p2311
F0.002423451953582919
tp2312
(Vus.battle.net
p2313
F0.0023017082856949867
tp2314
(Vprntscr.com
p2315
F0.002184980056042118
tp2316
(Viamchucky.github.io
p2317
F0.002029496111172061
tp2318
(Vplurk.com
p2319
F0.0012164439471213228
tp2320
(Vgamefaqs.com
p2321
F0.0011121531273015387
tp2322
(Vflashback.org
p2323
F0.0010824160224589597
tp2324
(Vtwitch.tv
p2325
F0.0008429300641815612
tp2326
(Vboards.4chan.org
p2327
F0.0008128220671250406
tp2328
tp2329
s((S'google.co.il'
p2330
tp2331
(ttp2332
((Vynet.co.il
p2333
F0.02090290556127998
tp2334
(Vwalla.co.il
p2335
F0.010178080865357519
tp2336
(Vmako.co.il
p2337
F0.009531641570181064
tp2338
(Vhe.wikipedia.org
p2339
F0.005168147982441724
tp2340
(Vone.co.il
p2341
F0.004797051193030695
tp2342
(Vsport5.co.il
p2343
F0.004629557192589989
tp2344
(Vpanet.co.il
p2345
F0.004466318634153449
tp2346
(Vyad2.co.il
p2347
F0.004239283102327047
tp2348
(Vfxp.co.il
p2349
F0.004224135214989242
tp2350
(Vil.msn.com
p2351
F0.0025525166492135123
tp2352
(Vjewishjournal.com
p2353
F0.0016738899904644618
tp2354
(Vhaaretz.co.il
p2355
F0.0011658029360413589
tp2356
tp2357
s((S'foobar2000.com'
p2358
tp2359
(ttp2360
((Vmorbo.org
p2361
F0.031915159700857905
tp2362
(Vjdk8.java.net
p2363
F0.0036444231186665292
tp2364
(Vforum.powerampapp.com
p2365
F0.0026170710255915223
tp2366
(Vdbpoweramp.com
p2367
F0.0008974646623289207
tp2368
(Vjriver.com
p2369
F0.00033570030497519226
tp2370
(Vpodsvojostreho.net
p2371
F0.00014945816684828672
tp2372
(Vteksyndicate.com
p2373
F1.1823333348362995e-05
tp2374
(Vtrojmiasto.pl
p2375
F5.731231896333478e-06
tp2376
(Vricardo.ch
p2377
F3.7479474663832534e-06
tp2378
(Vus-mg204.mail.yahoo.com
p2379
F1.5779104558357893e-06
tp2380
(Vboards.4chan.org
p2381
F1.1310967365085483e-06
tp2382
(Vnetvibes.com
p2383
F1.0671421974257503e-06
tp2384
(Vtheguardian.com
p2385
F7.685661734505484e-07
tp2386
(Varstechnica.com
p2387
F6.992041308980053e-07
tp2388
(Vsearch.yahoo.co.jp
p2389
F6.754668573135203e-07
tp2390
(Ven.eazel.com
p2391
F5.318138091329666e-07
tp2392
(Vandroidpolice.com
p2393
F3.6786215539942405e-07
tp2394
(Vkickstarter.com
p2395
F2.241460998950497e-07
tp2396
(Vgoogle.com.tw
p2397
F1.301859356429909e-07
tp2398
(Vgoogle.lv
p2399
F1.037835278431857e-07
tp2400
tp2401
s((S'happyassassin.net'
p2402
tp2403
(ttp2404
((Vmndm.gov.on.ca
p2405
F0.04298894933263563
tp2406
(Veriberto.pro.br
p2407
F0.01202062754212667
tp2408
(Vblog.hansenpartnership.com
p2409
F0.011842526405633201
tp2410
(Vcalm.aber.ac.uk
p2411
F0.011433569710412046
tp2412
(Vbugs.freedesktop.org
p2413
F0.0009542923479526986
tp2414
(Vsandboxie.com
p2415
F0.0007907844422448724
tp2416
(Vmanyland.com
p2417
F0.0007040551653256227
tp2418
(Vmarc.info
p2419
F0.0005867879121690093
tp2420
(Vforums.opensuse.org
p2421
F0.0005194968302130223
tp2422
(Veeti.com.tw
p2423
F0.0005194955121359924
tp2424
(Vimaginecup.com
p2425
F0.0003215762268482594
tp2426
(V4sysops.com
p2427
F0.00014510480483848856
tp2428
(Vanimeultima.tv
p2429
F0.0001281134603127242
tp2430
(Vthomas-krenn.com
p2431
F7.921381869224323e-05
tp2432
(Vjustinguitar.com
p2433
F6.288087035151911e-05
tp2434
(Vcomputer.howstuffworks.com
p2435
F2.4267097954854636e-05
tp2436
(Vcompileonline.com
p2437
F2.3703323624266067e-05
tp2438
(Vsevenforums.com
p2439
F2.367194472127469e-06
tp2440
(Vtechnet.microsoft.com
p2441
F2.1155661906668695e-06
tp2442
(Vaccounts.google.com
p2443
F1.3084216140549257e-07
tp2444
tp2445
s((S'chrome.com'
p2446
tp2447
(ttp2448
(ts((S'goldsteintech.com'
p2449
tp2450
(ttp2451
(ts((S'techonthenet.com'
p2452
tp2453
(ttp2454
(ts((S'cracked.com'
p2455
tp2456
(ttp2457
((Vlistverse.com
p2458
F0.002726385758898505
tp2459
(Vcollegehumor.com
p2460
F0.002107328674389131
tp2461
(Varchive.today
p2462
F0.0016765785990839604
tp2463
(Vescapistmagazine.com
p2464
F0.0016443018805989268
tp2465
(Vdorkly.com
p2466
F0.0015727526783965238
tp2467
(Vsmbc-comics.com
p2468
F0.0014025142688979721
tp2469
(Vtheonion.com
p2470
F0.0012152073952430848
tp2471
(Voddee.com
p2472
F0.0008038470483622185
tp2473
(Vavclub.com
p2474
F0.0007375924550347175
tp2475
(Vexplosm.net
p2476
F0.0007325112118358349
tp2477
(Vthechive.com
p2478
F0.0006896736374762467
tp2479
(Vmentalfloss.com
p2480
F0.0004837719810559199
tp2481
(Vbuzzfeed.com
p2482
F0.00045508882873294493
tp2483
tp2484
s((S'guru99.com'
p2485
tp2486
(ttp2487
((Vtoolsqa.com
p2488
F0.005719466566131465
tp2489
(Vabap101.com
p2490
F0.003011493349875067
tp2491
(Vregistria.app.box.com
p2492
F0.0026405273456051367
tp2493
(Vhanelsoft.vn
p2494
F0.002062561850334693
tp2495
(Vassertselenium.com
p2496
F0.00195169518565124
tp2497
(Vseleniummadeeasy.blogspot.co.uk
p2498
F0.0017882739008798492
tp2499
(Vsaptraininghub.com
p2500
F0.0017882409332036706
tp2501
(Vqtpfaq.wordpress.com
p2502
F0.0017873677324844871
tp2503
(Vcodeodor.com
p2504
F0.0016453585640558656
tp2505
(Vmanage.hivelocity.net
p2506
F0.001623640201331385
tp2507
(Vsoftwaretestinggenius.com
p2508
F0.001583393157862956
tp2509
(Vcommunity.stresstimulus.com
p2510
F0.001557093159406643
tp2511
(Vtennisworlditalia.com
p2512
F0.0012915493611922993
tp2513
(Vroqit.sharepoint.com
p2514
F0.0010722141775454032
tp2515
(Vsyrinx.catsone.com
p2516
F0.0009775579010200494
tp2517
(Vculverlabs.co
p2518
F0.0009439906846807562
tp2519
(Vwebmail.trigma.co.in
p2520
F0.0008988027832973669
tp2521
(Vnewtours.demoaut.com
p2522
F0.0008537480868080438
tp2523
(Vajmadison.com
p2524
F0.0008427717137978187
tp2525
(Vin.playstation.com
p2526
F0.0008242438736899647
tp2527
tp2528
s((S'blogspot.co.uk'
p2529
tp2530
(ttp2531
((Vsoccersportthai.blogspot.co.uk
p2532
F0.0707374040707374
tp2533
(Vproofreadmyfile.blogspot.com
p2534
F0.030689329556185082
tp2535
(Vibrahimyamanabdullahi.blogspot.co.uk
p2536
F0.017033585087578337
tp2537
(Vsapbasissociety.blogspot.co.uk
p2538
F0.015119098559406645
tp2539
(Vpersianbooks2.blogspot.co.uk
p2540
F0.01447080599024062
tp2541
(Vblogsofnote.blogspot.co.uk
p2542
F0.014427657547298217
tp2543
(Vkizomba-zouk.blogspot.co.uk
p2544
F0.012347802817439838
tp2545
(Vbmackie.blogspot.co.uk
p2546
F0.01162535643781531
tp2547
(Vsherrysbeautyandfashion.blogspot.co.uk
p2548
F0.011378935939196526
tp2549
(Vmwholt.blogspot.co.uk
p2550
F0.011096992799661162
tp2551
(Vhongleili.blogspot.co.uk
p2552
F0.010588425476883283
tp2553
(Vportableappz.blogspot.co.uk
p2554
F0.008682119747727087
tp2555
(Vjandjalpacas.blogspot.co.uk
p2556
F0.006606792608650769
tp2557
(Vsuitcaseboy.blogspot.co.uk
p2558
F0.0065030737184372306
tp2559
(Vsliekje.blogspot.co.uk
p2560
F0.006483803155788567
tp2561
(Vyourcreativefuel.blogspot.co.uk
p2562
F0.006483803155788567
tp2563
(Vmonica-or.blogspot.co.uk
p2564
F0.006322861094645326
tp2565
(Vsleazybeats.blogspot.co.uk
p2566
F0.0062287104622871054
tp2567
(Vquickshout.blogspot.co.uk
p2568
F0.005905511811023622
tp2569
(Vblogger.co.uk
p2570
F0.00456841015757446
tp2571
tp2572
s((S'lwn.net'
p2573
tp2574
(ttp2575
((Vsuccessfulsoftware.net
p2576
F0.005252112500049234
tp2577
(Vlinuxfr.org
p2578
F0.004822843418206723
tp2579
(Vghzl.co
p2580
F0.0034472746606284085
tp2581
(Vphoronix.com
p2582
F0.002768949835679411
tp2583
(Vlinux-bg.org
p2584
F0.0026851094101852297
tp2585
(Vbugs.freedesktop.org
p2586
F0.002523399741763606
tp2587
(Vrt.wiki.kernel.org
p2588
F0.002237663304438635
tp2589
(Vrajalanetti.com
p2590
F0.002206267253682163
tp2591
(Vsimepar.br
p2592
F0.0018997695554617766
tp2593
(Vlxer.com
p2594
F0.0016418547532840177
tp2595
(Vplanet.postgresql.org
p2596
F0.0016138535921117138
tp2597
(Vnorrod.nl
p2598
F0.0014726421294774892
tp2599
(Vwebmail.delaval.com
p2600
F0.001380474439094912
tp2601
(Velementarynow.com
p2602
F0.0012930064543167485
tp2603
(Vusers.csc.calpoly.edu
p2604
F0.001283081096542379
tp2605
(Vbeyond3d.com
p2606
F0.0012644611077741394
tp2607
(V100ask.org
p2608
F0.0012163660952326189
tp2609
(Vanandtech.com
p2610
F0.001147878137408774
tp2611
(Vohjelmointiputka.net
p2612
F0.00110908323285851
tp2613
(Vwebmail.alltele.net
p2614
F0.0010886146327560872
tp2615
tp2616
s((S'keyvalue.org'
p2617
tp2618
(ttp2619
((Vrubygems.org
p2620
F1.8680492428768945e-05
tp2621
(Vgithub.com
p2622
F3.475709217831192e-07
tp2623
tp2624
s((S'alibaba.com'
p2625
tp2626
(ttp2627
(ts((S'mobileread.com'
p2628
tp2629
(ttp2630
(ts((S'oracle-base.com'
p2631
tp2632
(ttp2633
(ts((S'caltech.edu'
p2634
tp2635
(ttp2636
(ts((S'sarasoueidan.com'
p2637
tp2638
(ttp2639
(ts((S'mozilla.org'
p2640
tp2641
(ttp2642
((Vtrovi.com
p2643
F0.003908185540139704
tp2644
(Vastromenda.com
p2645
F0.003661281447262505
tp2646
(Vdefault-search.net
p2647
F0.003546628603773007
tp2648
(Vyandex.ru
p2649
F0.003418356746361168
tp2650
(Vhome.tb.ask.com
p2651
F0.002485574080687845
tp2652
(Vmystartsearch.com
p2653
F0.002372836999030979
tp2654
(Vgroovorio.com
p2655
F0.0021940789678751077
tp2656
(Vcr4.gogorithm.com
p2657
F0.0014396275046440782
tp2658
(Vistartsurf.com
p2659
F0.001407008639371235
tp2660
(Vcr2.gogorithm.com
p2661
F0.0011775681487276746
tp2662
(Vvosteran.com
p2663
F0.0011286580230675245
tp2664
(Vupdatesoftnow.com
p2665
F0.0011115485450116163
tp2666
(Vsearch.yahoo.com
p2667
F0.0010762443747588434
tp2668
(Vsweet-page.com
p2669
F0.0009996025717427229
tp2670
(Vhd-plugin.com
p2671
F0.0009837360668146014
tp2672
(Vget.adobe.com
p2673
F0.0008646924779831686
tp2674
(Vcij.campaignism.com
p2675
F0.0007996086228882707
tp2676
(Vieonline.microsoft.com
p2677
F0.0007893274514678609
tp2678
(Vaz307127.vo.msecnd.net
p2679
F0.0007404118225709963
tp2680
tp2681
s((S'wolframalpha.com'
p2682
tp2683
(ttp2684
((Vwebassign.net
p2685
F0.006517849643425926
tp2686
(Vmathworld.wolfram.com
p2687
F0.003393997804121385
tp2688
(Vtutorial.math.lamar.edu
p2689
F0.0032305370516692486
tp2690
(Vmathxl.com
p2691
F0.002903553433297141
tp2692
(Vsymbolab.com
p2693
F0.0026494218523835946
tp2694
(Vpurplemath.com
p2695
F0.0023617804926934385
tp2696
(Vquest.cns.utexas.edu
p2697
F0.0022502976628350187
tp2698
(Vmath.stackexchange.com
p2699
F0.0021096126650983816
tp2700
(Vdesmos.com
p2701
F0.0016572406004577939
tp2702
(Vchegg.com
p2703
F0.0011195735650166758
tp2704
(Vmathway.com
p2705
F0.0008791764257050895
tp2706
tp2707
s((S'astralapp.com'
p2708
tp2709
(ttp2710
(ts((S'codinghorror.com'
p2711
tp2712
(ttp2713
(ts((S'lego.com'
p2714
tp2715
(ttp2716
(ts((S'shawarma-time.com'
p2717
tp2718
(ttp2719
(ts((S'practicingruby.com'
p2720
tp2721
(ttp2722
((Velmcitycraftworks.org
p2723
F0.023109641123805664
tp2724
(Vhartsem.edu
p2725
F0.01576023487552252
tp2726
(Vvdumoulin.github.io
p2727
F0.014616148715765574
tp2728
(Vblog.rubybestpractices.com
p2729
F0.014336265722118734
tp2730
(Vletter.ly
p2731
F0.009270472292980331
tp2732
(Vfabioanselmo.github.io
p2733
F0.007632800412583806
tp2734
(Vnas.int.stangl.co.za
p2735
F0.006892014145900156
tp2736
(Vpracticalruby.com
p2737
F0.006233190950798924
tp2738
(Vjamesfriend.com.au
p2739
F0.004684389272748566
tp2740
(Vdevblog.avdi.org
p2741
F0.0029803058169662632
tp2742
(Vrubytechlist.com
p2743
F0.0027833693680260445
tp2744
(Vstats.fanjas.com
p2745
F0.002452099050482813
tp2746
(Vcodon.com
p2747
F0.002302760390183461
tp2748
(Vtestingeducation.org
p2749
F0.0022754087308275747
tp2750
(Vherdt.de
p2751
F0.0022693966419629025
tp2752
(Vrubyoffrails.com
p2753
F0.0021707508112341948
tp2754
(Vcodecoreyvr.slack.com
p2755
F0.001842643106583627
tp2756
(Vdaniel.haxx.se
p2757
F0.0017404757300328755
tp2758
(Vschibsted.service-now.com
p2759
F0.0012539919721074684
tp2760
(Vallin.qiita.com
p2761
F0.0011750421056754533
tp2762
tp2763
s((S'localhost.'
p2764
tp2765
(ttp2766
(ts((S'docks.qc.ca'
p2767
tp2768
(ttp2769
((Vgoogle.com
p2770
F1.8234564997169045e-08
tp2771
tp2772
s((S'paulund.co.uk'
p2773
tp2774
(ttp2775
((Vdesignfloat.com
p2776
F0.014682317874154185
tp2777
(Vtikslus.com
p2778
F0.009972109256922046
tp2779
(Vtuflow.com
p2780
F0.00941413071944854
tp2781
(Vthemeswordpressfree.com
p2782
F0.0064874181764638375
tp2783
(V1dex.ch
p2784
F0.005137631363583222
tp2785
(Vcodingfusion.com
p2786
F0.005027579500723988
tp2787
(Vwp-tips.net
p2788
F0.004666974061316192
tp2789
(Vdanangsmartphone.vn
p2790
F0.004652234916816997
tp2791
(Vtak.ee
p2792
F0.004626630229509653
tp2793
(Venjoycss.com
p2794
F0.004177601750527054
tp2795
(Ve-kitap.org
p2796
F0.004108657082764539
tp2797
(Vpurecssmenu.com
p2798
F0.0039179659775167705
tp2799
(Vccs.seemysite.us
p2800
F0.003615513921040149
tp2801
(Vpro.agence-hybrid.com
p2802
F0.003342605497371602
tp2803
(Vhobium.com
p2804
F0.003266090976893467
tp2805
(Vwplift.com
p2806
F0.0028646937118022783
tp2807
(Vsimplemediacode.info
p2808
F0.002693832260479542
tp2809
(Vcubic-bezier.com
p2810
F0.002685931857532827
tp2811
(Vleagueoflegends-wiki.com
p2812
F0.00265266660471949
tp2813
(Vgmgcongress.com
p2814
F0.0025931240388389495
tp2815
tp2816
s((S'.'
p2817
tp2818
(ttp2819
(ts((S'collegehumor.com'
p2820
tp2821
(ttp2822
((Vdorkly.com
p2823
F0.008021933011457285
tp2824
(Vepicfail.com
p2825
F0.0012799687830245953
tp2826
(Vcracked.com
p2827
F0.0010912017310832412
tp2828
(Vwebmail.iac.com
p2829
F0.0010835730286289731
tp2830
(Vfunnyordie.com
p2831
F0.0008083489140107018
tp2832
(Vbitboard.com
p2833
F0.0007468065544100305
tp2834
(Vjakeandamir.com
p2835
F0.000684379580816286
tp2836
(Vsmosh.com
p2837
F0.0005418167439286141
tp2838
(Votaku-streamers.com
p2839
F0.0004226580805814449
tp2840
(Vescapistmagazine.com
p2841
F0.00037066058045890797
tp2842
(Vkillsometime.com
p2843
F0.0003187066730836541
tp2844
(Vexplosm.net
p2845
F0.00020320890175623739
tp2846
(Vslowrobot.com
p2847
F0.00019192407440080052
tp2848
(Vbreak.com
p2849
F0.00014199769895208476
tp2850
(Vcockenblog.tumblr.com
p2851
F0.00013743128785720813
tp2852
tp2853
s((S'thoughtbot.com'
p2854
tp2855
(ttp2856
((Vupcase.com
p2857
F0.024989667086915485
tp2858
(Vformkeep.com
p2859
F0.014646203355550037
tp2860
(Vjameschambers.co
p2861
F0.008357425242515544
tp2862
(Vtammersaleh.com
p2863
F0.004943316112993391
tp2864
(Vhoundci.com
p2865
F0.004806836698868746
tp2866
(Vsiyelo.com
p2867
F0.002945051927677963
tp2868
(Vgiantrobots.fm
p2869
F0.00211715962498671
tp2870
(Vmapsdesign.tumblr.com
p2871
F0.002099795643319399
tp2872
(Vapeth.com
p2873
F0.0019577595682550466
tp2874
(Vdevblog.avdi.org
p2875
F0.0019100218616960073
tp2876
(Vacademicwork.se
p2877
F0.0017322341701425485
tp2878
(Vrinse.io
p2879
F0.001560292892647523
tp2880
(Vatomic.io
p2881
F0.0014838520150369518
tp2882
(Vmartialcodex.com
p2883
F0.0014348262119961987
tp2884
(Vlvh.me
p2885
F0.0013953332488518147
tp2886
(Vbrightnewt.com
p2887
F0.0013170589638774016
tp2888
(Vsetentaydos.com
p2889
F0.0012088216882618495
tp2890
(Vryanterry.net
p2891
F0.0011578899857040137
tp2892
(Vdrp.io
p2893
F0.0011536686663590216
tp2894
(Vlaurium.nusii.com
p2895
F0.001150569134284429
tp2896
tp2897
s((S'oranlooney.com'
p2898
tp2899
(ttp2900
((Vnpmjs.org
p2901
F9.37878187396508e-06
tp2902
(Vsearch.disconnect.me
p2903
F2.222519934059104e-06
tp2904
(Vgithub.com
p2905
F1.2404606312831473e-07
tp2906
(Vgoogle.com.ua
p2907
F1.1512227389007056e-07
tp2908
(Vbing.com
p2909
F4.6492935284599696e-08
tp2910
tp2911
s((S'theoldreader.com'
p2912
tp2913
(ttp2914
((Vcluborlov.blogspot.com.br
p2915
F0.001629483712195623
tp2916
(Vhome.nielskim.nl
p2917
F0.001583765973314186
tp2918
(Vboards.cruisecritic.com
p2919
F0.001485453300561661
tp2920
(Vdtmpower.net
p2921
F0.0014122945690184302
tp2922
(Vmail.luetzen.dk
p2923
F0.0011100585027773505
tp2924
(Vportal.filadelfia.br
p2925
F0.0008692568306636837
tp2926
(Vgigabitescafe.com
p2927
F0.0007618165206089385
tp2928
(Vdelphifeeds.com
p2929
F0.0005999661440565003
tp2930
(Vbrusselnieuws.be
p2931
F0.0005860492509324877
tp2932
(Vtheaquilareport.com
p2933
F0.0005821878023734192
tp2934
(Vradionacional.com.ar
p2935
F0.0005543664620062667
tp2936
(Vvott.ru
p2937
F0.0004978213381410596
tp2938
(Vunz.com
p2939
F0.0004920895591088345
tp2940
(Vone.npr.org
p2941
F0.0004875921931996698
tp2942
(Vforum.pdnk.org
p2943
F0.00046894424078728703
tp2944
(Vwebmail.wmich.edu
p2945
F0.0004127460638011333
tp2946
(Vylilauta.org
p2947
F0.0003986461030724298
tp2948
(Vivorytower.com
p2949
F0.0003872626065568982
tp2950
(Vhomebrewchatter.com
p2951
F0.0003844828465516838
tp2952
(Vs126-pl.ogame.gameforge.com
p2953
F0.0003813682539531203
tp2954
tp2955
s((S'9gag.com'
p2956
tp2957
(ttp2958
((Vhugelol.com
p2959
F0.003233730888247263
tp2960
(Vmemecenter.com
p2961
F0.0025017981164674975
tp2962
(Vkwejk.pl
p2963
F0.0021561817990461748
tp2964
(Vmangareader.net
p2965
F0.001933358652853593
tp2966
(Vdumpert.nl
p2967
F0.0015286863776028295
tp2968
(Veksisozluk.com
p2969
F0.001271977269860276
tp2970
(Vtwitch.tv
p2971
F0.0012509446636704555
tp2972
(Vhiddenlol.com
p2973
F0.0010730062228643238
tp2974
(Vmangafox.me
p2975
F0.0006855088296482892
tp2976
(Vjeuxvideo.com
p2977
F0.0005999945477223184
tp2978
(Vhaivl.com
p2979
F0.0004240296668315654
tp2980
(Vmangahere.co
p2981
F0.0003718523999781129
tp2982
tp2983
s((S'pow.cx'
p2984
tp2985
(ttp2986
(ts((S'github.com'
p2987
tp2988
(ttp2989
((Vcode.google.com
p2990
F0.00407012608671127
tp2991
(Vrubygems.org
p2992
F0.0035773462484789457
tp2993
(Vraw.githubusercontent.com
p2994
F0.0034577717855745157
tp2995
(Vstackoverflow.com
p2996
F0.003441503954031439
tp2997
(Vbitbucket.org
p2998
F0.003385212782873444
tp2999
(Vnpmjs.org
p3000
F0.002854017136546961
tp3001
(Vpypi.python.org
p3002
F0.002706602897481004
tp3003
(Vnews.ycombinator.com
p3004
F0.0019993154488276
tp3005
(Vgit-scm.com
p3006
F0.0019871032599025357
tp3007
(Vdocs.angularjs.org
p3008
F0.0012442907118560913
tp3009
(Vhaxiomic.github.io
p3010
F0.0006659055953985048
tp3011
(Vpivotaltracker.com
p3012
F0.0005625324970995607
tp3013
tp3014
s((S'runnable.com'
p3015
tp3016
(ttp3017
(ts((S'youtube.com'
p3018
tp3019
(ttp3020
(ts((S'speakerdeck.com'
p3021
tp3022
(ttp3023
((Vdemo.coffee-themes.com
p3024
F0.0039671592074744305
tp3025
(Vspeakerd.s3.amazonaws.com
p3026
F0.0031840326414409345
tp3027
(Vstartupsmart.com.au
p3028
F0.0024248497613811744
tp3029
(Vmaddisondesigns.com
p3030
F0.0023298317533521225
tp3031
(Vthemes-lab.com
p3032
F0.0022676382593878877
tp3033
(Vfontstruct.com
p3034
F0.0022317005850366494
tp3035
(Vreadability.com
p3036
F0.002135284711928032
tp3037
(Vadmin.smartphone.userlocal.jp
p3038
F0.002003364625203868
tp3039
(Vbagtheweb.com
p3040
F0.001999111954713731
tp3041
(Vclickwork7network.com
p3042
F0.0017965561747034368
tp3043
(Vinteractly.com
p3044
F0.0017284060116690148
tp3045
(Vtest.proxistore.com
p3046
F0.001579048509965591
tp3047
(Vrajhimself.com
p3048
F0.0013000119296729658
tp3049
(Vcodecondo.com
p3050
F0.001220573693455316
tp3051
(Vcss-happylife.com
p3052
F0.0011575611844464764
tp3053
(Vaneventapart.com
p3054
F0.0011068669516008853
tp3055
(Vmaketea.co.uk
p3056
F0.0009992090820833237
tp3057
(V960.gs
p3058
F0.0009955768862741556
tp3059
(Vgrapplemobile.atlassian.net
p3060
F0.000977010403519926
tp3061
(Vadmin.taggedpdf.com.au
p3062
F0.0008888000838847269
tp3063
tp3064
s((S'javascriptkit.com'
p3065
tp3066
(ttp3067
(ts((S'quirksmode.org'
p3068
tp3069
(ttp3070
(ts((S'stackexchange.com'
p3071
tp3072
(ttp3073
((Vdrupal.org
p3074
F0.0018087338073138374
tp3075
(Vsuperuser.com
p3076
F0.0017565770216195539
tp3077
(Vstackoverflow.com
p3078
F0.0017298447513904261
tp3079
(Vexchange.jacobs-university.de
p3080
F0.0017227839744996746
tp3081
(Vencrypted.google.com
p3082
F0.0016974100217127502
tp3083
(Vstartpage.com
p3084
F0.0011022911608110297
tp3085
(Vknightsandmerchants.net
p3086
F0.0010559136442041205
tp3087
(Vcourses.edx.org
p3088
F0.0009489679492966093
tp3089
(Vwen.lu
p3090
F0.0007011318157478892
tp3091
(Vdev53.mainlinemenswear.co.uk
p3092
F0.0004911855144103377
tp3093
(Vbodytonicmusic.com
p3094
F0.0004665108146013598
tp3095
(Vwpsites.net
p3096
F0.00045658378453616134
tp3097
(Vmathoverflow.net
p3098
F0.00038500259922329095
tp3099
(Vbuildwithcraft.com
p3100
F0.00036671354486146547
tp3101
(Vshkspr.mobi
p3102
F0.00034314590131385466
tp3103
tp3104
s((S'rubyonrails.org'
p3105
tp3106
(ttp3107
((Vapidock.com
p3108
F0.011397494420702052
tp3109
(Vrubygems.org
p3110
F0.008203633250278028
tp3111
(Vgotealeaf.com
p3112
F0.005455874526601032
tp3113
(Vrailstutorial.org
p3114
F0.004871535033275358
tp3115
(Vruby-doc.org
p3116
F0.004805262911288739
tp3117
(Vruby-forum.com
p3118
F0.004490223826882239
tp3119
(Vruby-lang.org
p3120
F0.0032113084093923576
tp3121
(Vbloc.io
p3122
F0.00318059571273871
tp3123
(Vreinteractive.net
p3124
F0.001720967333430777
tp3125
(Vrelishapp.com
p3126
F0.0013700371245817546
tp3127
(Vjira.greenmile.com
p3128
F0.0012420964931221224
tp3129
(Vamberbit.com
p3130
F0.0011787522780099952
tp3131
(Vruby-china.org
p3132
F0.000915150624069657
tp3133
(Vrails.org
p3134
F0.0008464418997255876
tp3135
(Vrailsforzombies.org
p3136
F0.0007531036531073972
tp3137
tp3138
s((S'linuxjournal.com'
p3139
tp3140
(ttp3141
((Vplay0ad.com
p3142
F0.007972660221054225
tp3143
(Vgrc.com
p3144
F0.00647141761691918
tp3145
(Vislametinfo.fr
p3146
F0.003816693772624731
tp3147
(Vmfrtech.com
p3148
F0.003299980133259979
tp3149
(Vstaceypageonline.com
p3150
F0.002611479327291582
tp3151
(Vweb.tiscali.it
p3152
F0.002206592194180113
tp3153
(Vvuenosairez.com
p3154
F0.002110189065787111
tp3155
(Vgoogleblog.blogspot.ca
p3156
F0.0021021366248038047
tp3157
(Viso.linuxquestions.org
p3158
F0.00205698044304996
tp3159
(Vapp.flowkey.com
p3160
F0.002010494615044506
tp3161
(Vlxer.com
p3162
F0.0017342140696928467
tp3163
(Vpubservice.com
p3164
F0.0016237614530817824
tp3165
(Vswtch.com
p3166
F0.0016066199103156131
tp3167
(Vlinuxformat.co.uk.hypestat.com
p3168
F0.0015858338656718014
tp3169
(Vthemukt.com
p3170
F0.0015653612543401665
tp3171
(Vandroidlista.com
p3172
F0.0015486774962675757
tp3173
(Vmakerzone.mathworks.com
p3174
F0.0014968938741111305
tp3175
(Vlinuxstory.org
p3176
F0.001406172434392643
tp3177
(Vlinuxine.com
p3178
F0.0014034815981275438
tp3179
(Vchili-tv.it
p3180
F0.0013159468347682625
tp3181
tp3182
s((S'ruby-lang.org'
p3183
tp3184
(ttp3185
((Vcas-01.uni.ad.sunderland.ac.uk
p3186
F0.012872928541706572
tp3187
(Vref.xaio.jp
p3188
F0.004998883713543663
tp3189
(Vrubyforge.org
p3190
F0.003566180092713265
tp3191
(Vguides.ruby.tw
p3192
F0.0033659435810147755
tp3193
(Vopenshift.com
p3194
F0.003261580787297741
tp3195
(Vjemmywalker.pixnet.net
p3196
F0.0028971000803575207
tp3197
(Vblade.nagaokaut.ac.jp
p3198
F0.0024790205130732737
tp3199
(Vruby-auf-schienen.de
p3200
F0.0022711603195847024
tp3201
(Vrubyclub.blogspot.com
p3202
F0.0021561004694637754
tp3203
(Vhelp.rallydev.com
p3204
F0.002068458282306121
tp3205
(Vruby-doc.com
p3206
F0.0019892545575918353
tp3207
(Vrailsdoc.com
p3208
F0.0019050279129559802
tp3209
(Vtheadmin.org
p3210
F0.0019036383809625046
tp3211
(Vbebo.com
p3212
F0.0018038020923432463
tp3213
(Vpine.fm
p3214
F0.001572538640588942
tp3215
(Vsldn.softlayer.com
p3216
F0.0015296219648572567
tp3217
(Vrubyinstaller.org
p3218
F0.0015030799755354062
tp3219
(Vfoad.simplon.co
p3220
F0.0014549651702471815
tp3221
(Vrusrails.ru
p3222
F0.001415963079495097
tp3223
(Vcharliewaite.me
p3224
F0.001348086772597759
tp3225
tp3226
s.