(dp0
((S'alpha21.com'
p1
tp2
(ttp3
((Vnaver.com
p4
F1.1258501626907744e-07
tp5
tp6
s((S'alpha40.com'
p7
tp8
(ttp9
(ts((S'pocketworx.com'
p10
tp11
(ttp12
(ts((S'mojotech.com'
p13
tp14
(ttp15
(ts((S'alpha29.com'
p16
tp17
(ttp18
(ts((S'alpha18.com'
p19
tp20
(ttp21
(ts((S'alpha34.com'
p22
tp23
(ttp24
((Vlivingsocial.com
p25
F9.079445109447686e-06
tp26
tp27
s((S'alpha5.com'
p28
tp29
(ttp30
((Valliedhealthworld.com
p31
F0.019944027102666077
tp32
(Vkempsvilleruritanclub.org
p33
F0.002170740268617562
tp34
(Vmsgboard.alphasoftware.com
p35
F0.001026299469818061
tp36
(Vwhois.com
p37
F1.4852977486330757e-05
tp38
tp39
s((S'railsenvy.com'
p40
tp41
(ttp42
((Vproxylala.pw
p43
F0.07315634218289085
tp44
(Vafreshcup.wordpress.com
p45
F0.061630218687872766
tp46
(Vtheodinproject.com
p47
F0.000533130952642291
tp48
(Vforum.rubyonrails.pl
p49
F6.492624968274674e-05
tp50
(Vrailscasts.com
p51
F5.9049096962160154e-05
tp52
(Vkora-online.tv
p53
F5.540333318764308e-06
tp54
(Vyoutube.com
p55
F8.756484556477331e-10
tp56
tp57
s((S'python.org'
p58
tp59
(ttp60
((Vdjangopackages.com
p61
F0.028235770318671527
tp62
(Vdocs.djangoproject.com
p63
F0.011797606215775544
tp64
(Vpythonhosted.org
p65
F0.0072327330062755026
tp66
(Vwikidocs.net
p67
F0.00331444475734783
tp68
(Vnetworkx.github.io
p69
F0.0025721363577256035
tp70
(Vpython3wos.appspot.com
p71
F0.0017378741652830621
tp72
(Vconfluence.atlassian.com
p73
F0.001071124946390917
tp74
(Vpure-forum.org
p75
F0.0008837824192407215
tp76
(Vmoodle.macalester.edu
p77
F0.0007187880924060596
tp78
(Vdeveloper.foursquare.com
p79
F0.000605093370590939
tp80
(Vprogrammeerimine.cs.ut.ee
p81
F0.00043730836141456323
tp82
(Vtrailtiger.com
p83
F0.0004264912335899067
tp84
(Vvirtualenv.pypa.io
p85
F0.0004119807334448899
tp86
(Vliaoxuefeng.com
p87
F0.00039731681140257646
tp88
(Vpagekite.net
p89
F0.00038970019874352943
tp90
(Vh.yandex-team.ru
p91
F0.00032120697262060226
tp92
(Vreplicat.org
p93
F0.00030196437819484144
tp94
tp95
s((S'alpha35.com'
p96
tp97
(ttp98
(ts((S'rydia.net'
p99
tp100
(ttp101
((Vsincomics.com
p102
F0.021359696539829148
tp103
(Vhalflightcomics.com
p104
F0.012060105220756076
tp105
(Vstoryofthedoor.com
p106
F0.012027073087597992
tp107
(Valexanderthekid.tumblr.com
p108
F0.01121503814021068
tp109
(Vdcisgoingtohell.com
p110
F0.010699820225692566
tp111
(Vdubiouscompany.com
p112
F0.008778554737132042
tp113
(Vushala.smackjeeves.com
p114
F0.007147921459680803
tp115
(Vtrue-magic.com
p116
F0.006756772051863651
tp117
(Veqcomics.com
p118
F0.004581133879620812
tp119
(Vteamheartgold.deviantart.com
p120
F0.0041985387859174265
tp121
(Veverblue-comic.com
p122
F0.004143634823308365
tp123
(Vforgottenordercomic.com
p124
F0.003456092237085129
tp125
(Vamyachronicles.com
p126
F0.0028932456769697056
tp127
(Vblackbird.ashen-ray.com
p128
F0.002813647717287217
tp129
(Vhttydireth-vespera.smackjeeves.com
p130
F0.0020531153005398485
tp131
(Vdigitalextremes.slack.com
p132
F0.0016468962340205
tp133
(Vblindsprings.com
p134
F0.001613013680589577
tp135
(Vteahousecomic.com
p136
F0.0013120810467020735
tp137
(Vgiginuzlocke.smackjeeves.com
p138
F0.0011640229070923036
tp139
(Vegscomics.com
p140
F0.0010893065517749412
tp141
tp142
s((S'alpha27.com'
p143
tp144
(ttp145
(ts((S'beta7.com'
p146
tp147
(ttp148
(ts((S'nuclearsquid.com'
p149
tp150
(ttp151
((Vmolotang.com
p152
F0.025083419629501783
tp153
(Vcrucible.corp.appnexus.com
p154
F0.0014309814038058852
tp155
(Vanswers.perforce.com
p156
F0.000850176451716394
tp157
(Vruby-forum.com
p158
F0.00012045186657374666
tp159
(Vx.sankuai.com
p160
F7.04903956835881e-05
tp161
(Vpinboard.in
p162
F7.1203116432007166e-06
tp163
(Vtheverge.com
p164
F2.8217985580072086e-06
tp165
(Vsuperuser.com
p166
F1.8128071291828394e-06
tp167
(Vstackoverflow.com
p168
F7.170873291331439e-07
tp169
(V8tracks.com
p170
F4.5838400205375003e-07
tp171
(Vgoogle.com.ph
p172
F6.325116749043523e-08
tp173
(Vgithub.com
p174
F2.4893524466823384e-08
tp175
(Vgoogle.com
p176
F2.4395329918893198e-08
tp177
(Vmail.google.com
p178
F9.62054693148217e-09
tp179
(Vfacebook.com
p180
F3.2707786008337474e-10
tp181
tp182
s((S'penny-arcade.com'
p183
tp184
(ttp185
(ts((S'ruby-doc.org'
p186
tp187
(ttp188
((Vruby-lang.org
p189
F0.013201199696001907
tp190
(Vruby-forum.com
p191
F0.008747609502763641
tp192
(Vrubymonk.com
p193
F0.0066763845359754164
tp194
(Vapi.rubyonrails.org
p195
F0.005878717500206361
tp196
(Vpine.fm
p197
F0.0024445864869402467
tp198
(Vrubydoc.info
p199
F0.0018924510596828913
tp200
(Vpb.vanburg.ru
p201
F0.0016634643017226075
tp202
(Vcodewars.com
p203
F0.0013226159920880281
tp204
(Vfabricationgem.org
p205
F0.0012286729167879811
tp206
(Vrubydocs.org
p207
F0.0012119574037700268
tp208
(Vapidock.com
p209
F0.0010269281121975656
tp210
(Vmootools.net
p211
F0.0009992932546863443
tp212
(Vblog.remarkablelabs.com
p213
F0.0008252490196022697
tp214
(Valexa.bitmakerlabs.com
p215
F0.0008213445688254505
tp216
(Vbloc.io
p217
F0.0008046723518956768
tp218
(Vtlk.io
p219
F0.0008028277194664875
tp220
(Vit-ebooks-search.info
p221
F0.0007187965547440323
tp222
(Vrailstutorial.org
p223
F0.0006903101397194037
tp224
(Vget.wynk.in
p225
F0.000643192538966548
tp226
(Vhorizon.launchacademy.com
p227
F0.0006275973357841288
tp228
tp229
s((S'walla.co'
p230
tp231
(ttp232
((Vmspowerpack.com
p233
F0.00042286056172976963
tp234
(Vmslworld.egged.co.il
p235
F4.631610521254681e-05
tp236
(Vsimplestoolbar.com
p237
F4.4748032871714525e-05
tp238
(Vlink4u.co.il
p239
F8.555601488820286e-06
tp240
(Vpanet.co.il
p241
F2.0687343820870316e-06
tp242
(Vgoogle.co.il
p243
F1.3330927104853262e-06
tp244
(Vsearches.vi-view.com
p245
F1.4813106299849904e-07
tp246
(Vxnxx.com
p247
F9.644941531802667e-08
tp248
(Vmysearch.avg.com
p249
F3.890298355709239e-08
tp250
(Visearch.omiga-plus.com
p251
F3.272544785429898e-08
tp252
(Vistart.webssearches.com
p253
F2.1441877890798774e-08
tp254
(Vtrovi.com
p255
F1.6677189871460833e-08
tp256
(Vsweet-page.com
p257
F1.3795853007327792e-08
tp258
(Vmystartsearch.com
p259
F1.0474484448833913e-08
tp260
(Vvk.com
p261
F5.105423590911466e-09
tp262
(Vyoutube.com
p263
F5.776359629362245e-10
tp264
tp265
s((S'diasp.eu'
p266
tp267
(ttp268
((Vcybette.com
p269
F0.02790506560906111
tp270
(Vd.consumium.org
p271
F0.008538320796909941
tp272
(Vkolabsys.com
p273
F0.005063497897014986
tp274
(Vproverochka.businesscatalyst.com
p275
F0.00446202210729135
tp276
(Vawable.imgur.com
p277
F0.004351204351204351
tp278
(Vfantasylife.nintendo.com
p279
F0.004010262386895224
tp280
(Vpodupti.me
p281
F0.0020148652279036445
tp282
(Vforum.sportenter.co.il
p283
F0.001306915155467928
tp284
(Vfreefotohelp.ru
p285
F0.0008028673835125448
tp286
(Vfuckyouverymuch.dk
p287
F0.0004181940984847102
tp288
(Vredbox.com
p289
F4.213100135421364e-05
tp290
(Vnypost.com
p291
F1.7682904543184476e-05
tp292
(Vbeforeitsnews.com
p293
F1.6786280627496154e-05
tp294
(Vnaturalnews.com
p295
F1.2519575881711194e-05
tp296
(Vrus.postimees.ee
p297
F8.37074626064608e-06
tp298
(Vinfowars.com
p299
F8.345739769065305e-06
tp300
(Vya.ru
p301
F4.903540471922245e-06
tp302
(Vello.co
p303
F1.0571140123657e-06
tp304
(Vvimeo.com
p305
F7.446324075200837e-07
tp306
(Vwordpress.com
p307
F5.822044442670433e-07
tp308
tp309
s((S'nasa.gov'
p310
tp311
(ttp312
((Vnasa.jerusalem.com
p313
F0.0034835518377293096
tp314
(Vspaceweather.com
p315
F0.0033475442840786474
tp316
(Vspace.com
p317
F0.002945265177369104
tp318
(Vswpc.noaa.gov
p319
F0.002494603391767854
tp320
(Vesa.int
p321
F0.001361835042951779
tp322
(Vwhat-if.xkcd.com
p323
F0.0012732149429607702
tp324
(Vciclops.org
p325
F0.0012026940365659103
tp326
(Vcoasttocoastam.com
p327
F0.0011265697014438598
tp328
(Vmarssociety.de
p329
F0.00112391909362521
tp330
(Vweb.taskcracker.com
p331
F0.001026107590113099
tp332
(Vbibobuzz.com
p333
F0.0009696968425407064
tp334
(Vnanowerk.com
p335
F0.0008919591961055805
tp336
(Vbarnstormers.com
p337
F0.000739077425229431
tp338
(Vepod.usra.edu
p339
F0.000649929188302291
tp340
(Vroshihogan.blogspot.com
p341
F0.0006483939270824397
tp342
(Vsolarham.net
p343
F0.0006229008473932558
tp344
(Vharztourist.de
p345
F0.0005347227582500918
tp346
(Vgoehren-ruegen.de
p347
F0.0004998782773573379
tp348
(Vstats.mutu.sivit.org
p349
F0.0004962087088050525
tp350
tp351
s((S'sivers.org'
p352
tp353
(ttp354
((Vexamine.com
p355
F0.007219883173093456
tp356
(Vuwitechnology.com
p357
F0.006839846558005141
tp358
(Vtruefilms.com
p359
F0.0034328335396701663
tp360
(Vsitebeam.net
p361
F0.0032794691752359648
tp362
(Vdocs.withdraft.com
p363
F0.0030549495715956874
tp364
(Vmynavigatorweb.nl
p365
F0.0028599137643591107
tp366
(Vsingapore.recruit.net
p367
F0.0025840897233237402
tp368
(Vmarketplaceleaders.org
p369
F0.0025240834176874162
tp370
(Vblog.placeit.net
p371
F0.0020766650167739096
tp372
(Vkairosbio.com
p373
F0.0019437477085309572
tp374
(Vcenteroftheweb.com
p375
F0.0019412848515847046
tp376
(Valytadros.com
p377
F0.001937933895566251
tp378
(Vfullstackacademy.slack.com
p379
F0.0018748035385513495
tp380
(Vrailstutorial.org
p381
F0.0018368225687322617
tp382
(Vlintool.github.io
p383
F0.0018285739313244568
tp384
(Vhiretheworld.com
p385
F0.0018284838365313551
tp386
(Vadvancedlifeskills.com
p387
F0.0017834354092023132
tp388
(Vballcharts.com
p389
F0.0017386913484488426
tp390
(Vci.appveyor.com
p391
F0.001590201798643241
tp392
(Vblog.zackshapiro.com
p393
F0.0014996575814189902
tp394
tp395
s((S'alpha6.com'
p396
tp397
(ttp398
(ts((S'apple.com'
p399
tp400
(ttp401
(ts((S'extracheese.org'
p402
tp403
(ttp404
(ts((S'alpha37.com'
p405
tp406
(ttp407
(ts((S'alpha10.com'
p408
tp409
(ttp410
(ts((S'alpha36.com'
p411
tp412
(ttp413
(ts((S'dropbox.com'
p414
tp415
(ttp416
((Vapp.box.com
p417
F0.0013404739791132872
tp418
(Vonedrive.live.com
p419
F0.0013325521252906328
tp420
(Vmail.google.com
p421
F0.0012791638643396106
tp422
(Vwetransfer.com
p423
F0.0012718690578820595
tp424
(Vdl.dropboxusercontent.com
p425
F0.001113213379752746
tp426
(Vbasecamp.com
p427
F0.0009847477842498521
tp428
(Vevernote.com
p429
F0.000911169342945063
tp430
(Vtrello.com
p431
F0.0007707266331317271
tp432
(Vgoo.gl
p433
F0.0005643067133763446
tp434
(Vapp.asana.com
p435
F0.0003447113809095475
tp436
(Vpastebin.com
p437
F0.0002867605076989273
tp438
(Vbit.ly
p439
F0.00028238188059720985
tp440
(Vdb.tt
p441
F0.00024846578865390364
tp442
(Vodesk.com
p443
F0.00023057830681953457
tp444
tp445
s((S'alpha42.com'
p446
tp447
(ttp448
(ts((S'cappuccino-project.org'
p449
tp450
(ttp451
(ts((S'w3schools.com'
p452
tp453
(ttp454
((Vw3school.com
p455
F0.011502063248230303
tp456
(Vinfo343.ischool.uw.edu
p457
F0.00222680914685972
tp458
(Vhackthissite.org
p459
F0.0020351576929919703
tp460
(Vw3.org
p461
F0.0016574297507289558
tp462
(Vkb.iu.edu
p463
F0.0013406884083077707
tp464
(Vspidermarks.com
p465
F0.0011385526915260464
tp466
(Vtutorialspoint.com
p467
F0.0009175821542880868
tp468
(Vpicoctf.com
p469
F0.0004549384568337717
tp470
(Vw3shools.com
p471
F0.00037857890125446626
tp472
(Vapi.jquery.com
p473
F0.0003059480826287719
tp474
(Vmarianocalvo.com
p475
F0.0002950192275021
tp476
(Vprofit.notice.nl
p477
F0.00028931787484113804
tp478
(Vinsight.ccsf.edu
p479
F0.00027594889236203874
tp480
(Vxps.pk4labs.com
p481
F0.0002748864938891834
tp482
(Vtoster.ru
p483
F0.00025806812375980776
tp484
(Vkarlstads.itslearning.com
p485
F0.00022547500963902747
tp486
(Vhtmlgoodies.com
p487
F0.00021626982800444284
tp488
tp489
s((S'surrey.ac.uk'
p490
tp491
(ttp492
((Vpod51031.outlook.com
p493
F0.0017963586262663706
tp494
(Vexchange.uml.edu
p495
F0.0016144286007902184
tp496
(Vproximity.instructure.com
p497
F0.0015774356511539845
tp498
(Vexchange.ict.usc.edu
p499
F0.0015382841826919614
tp500
(Vsavingcountrymusic.com
p501
F0.0014328752846817757
tp502
(Vkaggle.com
p503
F0.001367232926914554
tp504
(Vussu.co.uk
p505
F0.0012484564641502206
tp506
(Vsurrey.summon.serialssolutions.com
p507
F0.0012332027866896894
tp508
(Vthecompleteuniversityguide.co.uk
p509
F0.0009841707655122726
tp510
(Vuppmax.uu.se
p511
F0.0009450092846242944
tp512
(Vsurrey-uk.sona-systems.com
p513
F0.0008319067088646201
tp514
(Vukeas.com.tw
p515
F0.0007918761171179304
tp516
(Vlms.neumont.edu
p517
F0.0007807936079197472
tp518
(Vunitemps.com
p519
F0.0007186507649313663
tp520
(Vbda.uk.com
p521
F0.0007096719081631982
tp522
(Vcreativeplusonline.co.uk
p523
F0.0006779957155228734
tp524
(Vcancercentrelondon.co.uk
p525
F0.0006776894018489342
tp526
(Vgradintel.com
p527
F0.0006630566913471102
tp528
(Vprogramsinformationpeople.org
p529
F0.0005993082113115775
tp530
(Vemeraldinsight.com
p531
F0.0005816681288147595
tp532
tp533
s((S'iosreviews.net'
p534
tp535
(ttp536
((Vfilter.usd262.net
p537
F0.0006673834859664083
tp538
(Va3.mzstatic.com
p539
F7.803355442840422e-05
tp540
(Vappszoom.com
p541
F2.7909670351906058e-05
tp542
(Vvimeo.com
p543
F4.509971547090617e-07
tp544
(Vgoogle.com.my
p545
F1.679023567040801e-07
tp546
(Vencrypted.google.com
p547
F1.581442718563291e-07
tp548
(Vduckduckgo.com
p549
F1.2340433203180587e-07
tp550
(Vtwitch.tv
p551
F6.699834316704951e-08
tp552
(Vgoogle.com
p553
F1.7100833862031203e-08
tp554
tp555
s((S'rubybestpractices.com'
p556
tp557
(ttp558
(ts((S'regexper.com'
p559
tp560
(ttp561
((Vstats.wefra.de
p562
F0.01654884318766067
tp563
(Vservices.balihoo.com
p564
F0.011492809144005528
tp565
(Virchelp.org
p566
F0.009514896272032445
tp567
(Vbalihoo.wikispaces.com
p568
F0.008600634473034897
tp569
(Vconfig.whatsapp.net
p570
F0.008235261768587769
tp571
(Vope.comlocal.com
p572
F0.0054417942296446095
tp573
(Vex-parrot.com
p574
F0.005244206124024955
tp575
(Vscriptular.com
p576
F0.004299777068208656
tp577
(Vquovo.slack.com
p578
F0.004205529280171921
tp579
(Vslant.co
p580
F0.004089682490907161
tp581
(Vifconfig.me
p582
F0.003823109724905924
tp583
(Vjex.im
p584
F0.003593484437396034
tp585
(Vregexpal.com
p586
F0.003533949522620317
tp587
(Vredmine.nokaut.pl
p588
F0.003469110832330577
tp589
(Vmyezapp.com
p590
F0.0033483126266631424
tp591
(Vosslab.msopentech.cn
p592
F0.003287199672690848
tp593
(Vregexcrossword.com
p594
F0.0032797965438917417
tp595
(Vflockhart.virtualave.net
p596
F0.003141157502640796
tp597
(Vww1.regexp.com
p598
F0.0030955896640652257
tp599
(Vwisepilgrim.tk
p600
F0.0027548002769799186
tp601
tp602
s((S'foobar2000.org'
p603
tp604
(ttp605
((Vxiph.org
p606
F0.012560316380569403
tp607
(Vchromium.woolyss.com
p608
F0.00955818180112687
tp609
(Vnnc-board.com
p610
F0.008407273052412243
tp611
(Vseriosoft.org
p612
F0.00812328805121656
tp613
(Vifi-audio.com
p614
F0.00682673706152465
tp615
(Vthalassa.feralhosting.com
p616
F0.006206348719177406
tp617
(Vexactaudiocopy.de
p618
F0.0059219804079789435
tp619
(Vhydrogenaud.io
p620
F0.004881531371685709
tp621
(Vsrware.net
p622
F0.0038989963128243216
tp623
(Vopen-end-music.de
p624
F0.0028752770792993695
tp625
(Vforum.pskovonline.ru
p626
F0.002540252362730567
tp627
(Vforum.hdmovie.vn
p628
F0.0019178192491957236
tp629
(Vmassengeschmack.tv
p630
F0.0017078779488777472
tp631
(Vforums.ffshrine.org
p632
F0.001649445296546487
tp633
(Vsmsserver.itouchnet.co.za
p634
F0.0015547791300949707
tp635
(Vburrrn.net
p636
F0.0013273025950887873
tp637
(Vjenny317.pixnet.net
p638
F0.0010201545082112753
tp639
(V10file.com
p640
F0.0009778273268755075
tp641
tp642
s((S'netdna-ssl.com'
p643
tp644
(ttp645
((Vservermat.info
p646
F0.015230253887760331
tp647
(Vfinedininglovers.com
p648
F0.007828688392923909
tp649
(Vblog.myfitnesspal.com
p650
F0.006571678856628307
tp651
(Vvisual.ly
p652
F0.005523052877933682
tp653
(Vredrow.co.uk
p654
F0.0054794740749505135
tp655
(Vgrainandmortar.com
p656
F0.005173594116386273
tp657
(Vskillsera.com
p658
F0.004438460562360511
tp659
(Vblank-box.net
p660
F0.003202477829561559
tp661
(Vkls-ukraine.com.ua
p662
F0.0026298015359082477
tp663
(Vfinerthings.in
p664
F0.002208584819772735
tp665
(Vhostedcloudy.com
p666
F0.001929990552717578
tp667
(Vzino.im
p668
F0.0017095925364803445
tp669
(Vsram.com
p670
F0.0015705995916889095
tp671
(Vs1magnettvcom.maynemyltf.netdna-cdn.com
p672
F0.0013414146062946583
tp673
(Vhomepath.com
p674
F0.0010985648416592306
tp675
(Vagents.equator.com
p676
F0.000992105542015471
tp677
(Vnewhdplugin.net
p678
F0.0006650805674776797
tp679
(Virvsluggage.com
p680
F0.0006295881279719576
tp681
(Vcool-tv.net
p682
F0.0006268836631248746
tp683
(Vbettielou.blogspot.com
p684
F0.0005037569778605635
tp685
tp686
s((S'linuxjournal.com'
p687
tp688
(ttp689
((Vplay0ad.com
p690
F0.007972660221054225
tp691
(Vgrc.com
p692
F0.00647141761691918
tp693
(Vislametinfo.fr
p694
F0.003816693772624731
tp695
(Vmfrtech.com
p696
F0.003299980133259979
tp697
(Vstaceypageonline.com
p698
F0.002611479327291582
tp699
(Vweb.tiscali.it
p700
F0.002206592194180113
tp701
(Vvuenosairez.com
p702
F0.002110189065787111
tp703
(Vgoogleblog.blogspot.ca
p704
F0.0021021366248038047
tp705
(Viso.linuxquestions.org
p706
F0.00205698044304996
tp707
(Vapp.flowkey.com
p708
F0.002010494615044506
tp709
(Vlxer.com
p710
F0.0017342140696928467
tp711
(Vpubservice.com
p712
F0.0016237614530817824
tp713
(Vswtch.com
p714
F0.0016066199103156131
tp715
(Vlinuxformat.co.uk.hypestat.com
p716
F0.0015858338656718014
tp717
(Vthemukt.com
p718
F0.0015653612543401665
tp719
(Vandroidlista.com
p720
F0.0015486774962675757
tp721
(Vmakerzone.mathworks.com
p722
F0.0014968938741111305
tp723
(Vlinuxstory.org
p724
F0.001406172434392643
tp725
(Vlinuxine.com
p726
F0.0014034815981275438
tp727
(Vchili-tv.it
p728
F0.0013159468347682625
tp729
tp730
s((S'alpha12.com'
p731
tp732
(ttp733
(ts((S'alpha44.com'
p734
tp735
(ttp736
(ts((S'theenchanter.com'
p737
tp738
(ttp739
(ts((S'mashable.com'
p740
tp741
(ttp742
((Vtechcrunch.com
p743
F0.003269554441150279
tp744
(Vthenextweb.com
p745
F0.0020893059576553882
tp746
(Vtheverge.com
p747
F0.0011964644051488723
tp748
(Vengadget.com
p749
F0.0011541180149668715
tp750
(Vwired.com
p751
F0.0010062199169788152
tp752
(Vt.co
p753
F0.001000532665223137
tp754
(Vgizmodo.com
p755
F0.0008873288390789227
tp756
(Vbusinessinsider.com
p757
F0.0007152040206950399
tp758
(Vdigg.com
p759
F0.0005093257403694798
tp760
(Vmacrumors.com
p761
F0.00048813763950878304
tp762
(Vfastcompany.com
p763
F0.0004186323234047929
tp764
(Varstechnica.com
p765
F0.00036950639928100704
tp766
(Vfeedly.com
p767
F0.000247658170357474
tp768
tp769
s((S'alpha2.com'
p770
tp771
(ttp772
((Valpharooms.com
p773
F0.003697445800052664
tp774
(Vsculpteo.com
p775
F0.00044483632406326206
tp776
(Vuk.pinterest.com
p777
F1.5539860296655933e-05
tp778
(Vimgur.com
p779
F1.9443935627705352e-07
tp780
(Vdrive.google.com
p781
F2.224820992362993e-08
tp782
tp783
s((S'designtaxi.com'
p784
tp785
(ttp786
((Vnaturpixel.com
p787
F0.002525569674668886
tp788
(Vresearch.facebook.com
p789
F0.0024447558932316087
tp790
(Vmrhyde.com
p791
F0.002101027503719101
tp792
(Vpurpleheart.org
p793
F0.0015727754663803514
tp794
(Vedpuzzle.com
p795
F0.0014091455933541925
tp796
(Vallenby-pratt.com
p797
F0.0012811653560782217
tp798
(Valiciavera.com
p799
F0.0012265785229286553
tp800
(Vtheinspiration.com
p801
F0.0011984722954081271
tp802
(Vmodernhousemagazine.com
p803
F0.0011556103820603895
tp804
(Vhaebc.com
p805
F0.0011554678439678909
tp806
(Vhep.eiz.jp
p807
F0.0011284011989747447
tp808
(Vsomethingcomics.tumblr.com
p809
F0.001076472847460011
tp810
(Vmensstyleadvice.com
p811
F0.0010069390317375387
tp812
(Vjobisjob.de
p813
F0.0009852059176329467
tp814
(Vassets.gecapital.com.au
p815
F0.0009332437835811571
tp816
(Vcreativereview.co.uk
p817
F0.000928881838058707
tp818
(Vzombiesamurai.pl
p819
F0.0009227463467303423
tp820
(Vecsediekszer.hu
p821
F0.0008745579998976046
tp822
(Vkarne.pl
p823
F0.0008697854085080444
tp824
(Vilghirlandaio.com
p825
F0.000848768909519732
tp826
tp827
s((S'alpha41.com'
p828
tp829
(ttp830
(ts((S'alpha25.com'
p831
tp832
(ttp833
(ts((S'diveintopython.net'
p834
tp835
(ttp836
((Vluisartola.com
p837
F0.01308713593306666
tp838
(Vlearn.gramener.com
p839
F0.0066802362512468775
tp840
(Vdjango-chinese-docs-14.readthedocs.org
p841
F0.006255710972095312
tp842
(Vlignos.org
p843
F0.003607044345427541
tp844
(Vdocs.python.org
p845
F0.0029514139252664086
tp846
(Vdiveintopython3.net
p847
F0.0024584698132149164
tp848
(Vscipy.org
p849
F0.00233695159956468
tp850
(Vcalazan.com
p851
F0.0018844901747393514
tp852
(Vconnexus-jjm.appspot.com
p853
F0.0016320116054158607
tp854
(Vtour-sz.com
p855
F0.0015841490518749704
tp856
(Vsagemath.org
p857
F0.0013459797709473023
tp858
(Vapp.azendoo.com
p859
F0.001330340715038685
tp860
(Vgit.crl.vecna.com
p861
F0.0011964902951342728
tp862
(Vtechprom.ru
p863
F0.0011357111225529769
tp864
(Vmozgovipc.blogspot.co.il
p865
F0.0008450978246330817
tp866
(Vcforbeginners.com
p867
F0.0006691024343003037
tp868
(Vquality.mozilla.org
p869
F0.0006626145240006626
tp870
(Vvipod.ecommtools.com
p871
F0.0006560723137483598
tp872
(Vtrac.kit-xxi.com.ua
p873
F0.0006007910415380251
tp874
(Vwoodpecker.org.cn
p875
F0.0005948740571413293
tp876
tp877
s((S'alpha26.com'
p878
tp879
(ttp880
(ts((S'alpha49.com'
p881
tp882
(ttp883
(ts((S'alpha11.com'
p884
tp885
(ttp886
(ts((S'runnable.com'
p887
tp888
(ttp889
(ts((S'overapi.com'
p890
tp891
(ttp892
((Vapis.pw
p893
F0.007200668343131401
tp894
(Vtroy.labs.daum.net
p895
F0.00701409345452805
tp896
(V121down.com
p897
F0.005797076194085878
tp898
(Vbullium.com
p899
F0.005647792665666607
tp900
(Vpittalis.hostings.co.uk
p901
F0.005007780530559443
tp902
(Vwebmail.garmin.com
p903
F0.004804957073805288
tp904
(Vbumpsdocumentarily.squarespace.com
p905
F0.004158373405198481
tp906
(Vorays.wd-works.com
p907
F0.004110381077529567
tp908
(Vbootgraph.net
p909
F0.004030362627239939
tp910
(Vredmine.infogene.fr
p911
F0.0034291946192749156
tp912
(Vmitarbeiter.hs-heilbronn.de
p913
F0.003285460978893482
tp914
(Vnote-pad.net
p915
F0.0032399080437864043
tp916
(Vupsideos.com
p917
F0.0032079887740138428
tp918
(Vscm.ulster.ac.uk
p919
F0.002922858853657464
tp920
(Vibmwebsphereportalserver.blogspot.pt
p921
F0.0026748188381356852
tp922
(Vytub3.com
p923
F0.0026007381348067253
tp924
(Vvertical3w.teamwork.com
p925
F0.002595337661272785
tp926
(Vfindpatent.ru
p927
F0.0025676768503163972
tp928
(Vcheat-sheets.org
p929
F0.0022810455972986374
tp930
(Vlocaltest.me
p931
F0.002195967292517345
tp932
tp933
s((S'meditation.com'
p934
tp935
(ttp936
((Vmedication.com
p937
F0.015265354800238521
tp938
(Vhoroscopedays.com
p939
F0.0001161929383741703
tp940
(Vbrilliant.org
p941
F6.724553867879327e-05
tp942
(Vamharicmovies.com
p943
F5.362787984026289e-05
tp944
(Vlequipe.fr
p945
F7.816310148203357e-07
tp946
(Ven.wikipedia.org
p947
F5.252421832353988e-08
tp948
(Vsearch.ask.com
p949
F3.7740381291546105e-08
tp950
(Vgoogle.ca
p951
F3.648383286054617e-08
tp952
(Vreddit.com
p953
F1.058890587253285e-08
tp954
(Vgoogle.co.in
p955
F3.669238772897556e-09
tp956
(Vfacebook.com
p957
F1.5397755423834308e-09
tp958
tp959
s((S'alpha48.com'
p960
tp961
(ttp962
(ts((S'taskrabbit.com'
p963
tp964
(ttp965
(ts((S'usenet.org'
p966
tp967
(ttp968
(ts((S'quirksmode.org'
p969
tp970
(ttp971
(ts((S'youtu.be'
p972
tp973
(ttp974
((Vyoutube.be
p975
F0.002327771504181619
tp976
(Vuses.myherbalife.com
p977
F0.0022052491406921487
tp978
(Vbahrammoshiri.com
p979
F0.00120513846529179
tp980
(Vsteerbiddersales.com
p981
F0.0010856524094649729
tp982
(Vexams.evinrude.com
p983
F0.0009387105668307909
tp984
(Vwww2.memehk.com
p985
F0.000840664053480079
tp986
(Vmemehk.com
p987
F0.0006322798687984735
tp988
(Vmissyusa.com
p989
F0.0006279402146092168
tp990
(Vfollovvme.com
p991
F0.0004785133661676418
tp992
(Vtubetamil.com
p993
F0.0004547101225723085
tp994
(Vfirstlegoleague.org
p995
F0.0004278581860366056
tp996
(Vk8mer.com
p997
F0.00038935924897389785
tp998
(Vblaulichtreporter.de
p999
F0.0003442025800306291
tp1000
(Veasykart.it
p1001
F0.00034177048920407956
tp1002
(Vnerdapproved.com
p1003
F0.00033383098580019383
tp1004
(Vwieboldtv.de
p1005
F0.0003332203017659258
tp1006
(Vphumidrama.com
p1007
F0.00032757148580445696
tp1008
(Vkilroynews.net
p1009
F0.0003270797996804544
tp1010
(Vhelpdesk.tankionline.com
p1011
F0.0002683043007451439
tp1012
(Vsaintsfc.co.uk
p1013
F0.0002499477358238586
tp1014
tp1015
s((S'ynet.co.il'
p1016
tp1017
(ttp1018
(ts((S'alpha51.com'
p1019
tp1020
(ttp1021
(ts((S'alpha1.com'
p1022
tp1023
(ttp1024
((Vtheaudience.com
p1025
F0.009694201243497019
tp1026
tp1027
s((S'tutorialspoint.com'
p1028
tp1029
(ttp1030
((Vwiki.python.org
p1031
F0.005812159708003393
tp1032
(Vtutorialpoint.com
p1033
F0.0021775165351430943
tp1034
(Vjavatpoint.com
p1035
F0.001968934012532698
tp1036
(Vhexvolt.blogspot.ru
p1037
F0.0015654524915361316
tp1038
(Verhvervsakademisydvest.sharepoint.com
p1039
F0.0010571098842477162
tp1040
(Vrallydev.com
p1041
F0.0007445860040062963
tp1042
(Vcprogramming.com
p1043
F0.0006934952073382222
tp1044
(Vebooks-it.org
p1045
F0.0006203165820055927
tp1046
(Vmkyong.com
p1047
F0.0005062963910686054
tp1048
(Vlardoors.ru
p1049
F0.00048065709207179333
tp1050
(Vstudytonight.com
p1051
F0.00044009319580119765
tp1052
(Vhomeandlearn.co.uk
p1053
F0.00042920870144858323
tp1054
(Vhub.attask.com
p1055
F0.00041461175045723575
tp1056
(Vfhict.nl
p1057
F0.0003724732036863049
tp1058
(Vbatman.jamk.fi
p1059
F0.00035189190319527444
tp1060
(Vservices.brics.dk
p1061
F0.00034668114031273604
tp1062
(Vjava2s.com
p1063
F0.0003430930183514621
tp1064
(Vncvps.blackboard.com
p1065
F0.00033488728945250517
tp1066
(Vforum-alsacetech.org
p1067
F0.00031760909843814436
tp1068
(Vvogella.com
p1069
F0.0003130399033593343
tp1070
tp1071
s((S'cappuccino.org'
p1072
tp1073
(ttp1074
(ts((S'localhost.'
p1075
tp1076
(ttp1077
(ts((S'verou.me'
p1078
tp1079
(ttp1080
(ts((S'sqlite.org'
p1081
tp1082
(ttp1083
(ts((S'amazon.com'
p1084
tp1085
(ttp1086
((Vebay.com
p1087
F0.006738821250621747
tp1088
(Vslickdeals.net
p1089
F0.004120650473717563
tp1090
(Vbestbuy.com
p1091
F0.0030788964220882925
tp1092
(Vwalmart.com
p1093
F0.003050477312560511
tp1094
(Vnewegg.com
p1095
F0.002798296769576636
tp1096
(Vnetflix.com
p1097
F0.0024294274563549496
tp1098
(Vreddit.com
p1099
F0.002175753691217573
tp1100
(Vgoogle.com
p1101
F0.001391784985509667
tp1102
(Vhulu.com
p1103
F0.0011102072873126314
tp1104
(Vblackfriday.com
p1105
F0.0008052288786513178
tp1106
(Vus-mg6.mail.yahoo.com
p1107
F0.000766715618933907
tp1108
(Vtarget.com
p1109
F0.0007593360528991675
tp1110
(Ven.wikipedia.org
p1111
F0.0005814582312035169
tp1112
(Vgoodreads.com
p1113
F0.000495839687204871
tp1114
tp1115
s((S'alpha13.com'
p1116
tp1117
(ttp1118
(ts((S'brentozar.com'
p1119
tp1120
(ttp1121
(ts((S'superuser.com'
p1122
tp1123
(ttp1124
((Vstackexchange.com
p1125
F0.004099459401758269
tp1126
(Vlibc6.org
p1127
F0.0030590372069599944
tp1128
(Vencrypted.google.com
p1129
F0.001023749016786298
tp1130
(Vstartpage.com
p1131
F0.0008201129671354862
tp1132
(Vxie.lu
p1133
F0.0007714776591323591
tp1134
(Vforum.transmissionbt.com
p1135
F0.0007119466006968179
tp1136
(Vsmartredirect.de
p1137
F0.00047585572816905144
tp1138
(Vserverfault.com
p1139
F0.00047570928055575365
tp1140
(Vaskubuntu.com
p1141
F0.0004297365953529304
tp1142
(Vvirtualrouter.codeplex.com
p1143
F0.00036603824366120835
tp1144
(Ventiteinconnue.com
p1145
F0.0002567725344910978
tp1146
(Vservice.whiteclarke.com
p1147
F0.0002535906271887286
tp1148
(Vnetmechanic.dyndns.org
p1149
F0.000249944877301956
tp1150
(Vsocial.technet.microsoft.com
p1151
F0.0002398143987486882
tp1152
(Vcode5gaming.com
p1153
F0.00022645517687985438
tp1154
(Vmxc.ru
p1155
F0.00021803652826213085
tp1156
(Vwen.lu
p1157
F0.00021779296914272678
tp1158
(Vkldp.org
p1159
F0.0001614334562921192
tp1160
tp1161
s((S'alpha52.com'
p1162
tp1163
(ttp1164
(ts((S'adobe.com'
p1165
tp1166
(ttp1167
((Vmozilla.org
p1168
F0.015111450175616077
tp1169
(Vapps.facebook.com
p1170
F0.0059619678680743506
tp1171
(Vfilehippo.com
p1172
F0.004900062455243954
tp1173
(Vacrobat.com
p1174
F0.004836207731470023
tp1175
(Vshell.windows.com
p1176
F0.004715263584245032
tp1177
(Vfb1.farm2.zynga.com
p1178
F0.004637787853163249
tp1179
(Vsupport.google.com
p1180
F0.0037578816140994334
tp1181
(Vthanks.freesoftstore.com
p1182
F0.002328482156562959
tp1183
(Vupdate1024.com
p1184
F0.0013898408960056395
tp1185
(Vthanks.freesoftstore2.com
p1186
F0.0013255858152199373
tp1187
(Vowl.english.purdue.edu
p1188
F0.0013105499640232714
tp1189
(Veasyjet.com
p1190
F0.0007198307701079823
tp1191
(Vmacromedia.com
p1192
F0.0006869022921899767
tp1193
(Vsecure.sarsefiling.co.za
p1194
F0.0006844256605296551
tp1195
tp1196
s((S'wikipedia.org'
p1197
tp1198
(ttp1199
((Vencrypted.google.com
p1200
F0.00771525505585607
tp1201
(Vbing.com
p1202
F0.004811910265206266
tp1203
(Vanswers.yahoo.com
p1204
F0.003100154798136046
tp1205
(Vsearch.disconnect.me
p1206
F0.0027486073979923428
tp1207
(Vprinceton.edu
p1208
F0.002546492596888385
tp1209
(Vimdb.com
p1210
F0.0020199007621722297
tp1211
(Vboards.4chan.org
p1212
F0.0011714401370427696
tp1213
(Veksisozluk.com
p1214
F0.001109914847106986
tp1215
(Vduckduckgo.com
p1216
F0.0010408949383171428
tp1217
(Vreddit.com
p1218
F0.000775024669043505
tp1219
(Vwen.lu
p1220
F0.0007574262961416565
tp1221
(Vraterhub.com
p1222
F0.00044425107955377627
tp1223
(Vbaike.baidu.com
p1224
F0.00035421615396662187
tp1225
tp1226
s((S'twitter.com'
p1227
tp1228
(ttp1229
((Vinstagram.com
p1230
F0.009640668836346135
tp1231
(Vfacebook.com
p1232
F0.005754900727130478
tp1233
(Vtumblr.com
p1234
F0.005717088994814716
tp1235
(Vtwitch.tv
p1236
F0.005152529468333346
tp1237
(Vreddit.com
p1238
F0.004914842497878588
tp1239
(Vask.fm
p1240
F0.004444513960399476
tp1241
(Vlinkedin.com
p1242
F0.003428389609628508
tp1243
(Vyoutube.com
p1244
F0.0033467710833313545
tp1245
(Vgoogle.co.jp
p1246
F0.0017641893086358437
tp1247
(Vespn.go.com
p1248
F0.001334680555584708
tp1249
(Vvk.com
p1250
F0.0008567391042836494
tp1251
(Vgoogle.com.tr
p1252
F0.0008184359701507858
tp1253
tp1254
s((S'alpha16.com'
p1255
tp1256
(ttp1257
(ts((S'google.com'
p1258
tp1259
(ttp1260
(ts((S'coursera.org'
p1261
tp1262
(ttp1263
((Vcourses.edx.org
p1264
F0.005682409218958396
tp1265
(Vudacity.com
p1266
F0.0032743153315409304
tp1267
(Vcodeskulptor.org
p1268
F0.002716798767326224
tp1269
(Vedx.org
p1270
F0.002345213620656822
tp1271
(Vmooc.guokr.com
p1272
F0.001304445694573597
tp1273
(Vudemy.com
p1274
F0.0012989515229204602
tp1275
(Vcodecademy.com
p1276
F0.001094793903822028
tp1277
(Vfuturelearn.com
p1278
F0.001069718425067974
tp1279
(Vd396qusza40orc.cloudfront.net
p1280
F0.0009671142040794794
tp1281
(Vmysliderule.com
p1282
F0.0006418503366131907
tp1283
(Vmiriadax.net
p1284
F0.0006400923571775631
tp1285
(Vocw.mit.edu
p1286
F0.0005196729488418822
tp1287
(Vonline.stanford.edu
p1288
F0.0004266295741752318
tp1289
(V1point3acres.com
p1290
F0.00034809050272295626
tp1291
tp1292
s((S'collegehumor.com'
p1293
tp1294
(ttp1295
((Vdorkly.com
p1296
F0.008021933011457285
tp1297
(Vepicfail.com
p1298
F0.0012799687830245953
tp1299
(Vcracked.com
p1300
F0.0010912017310832412
tp1301
(Vwebmail.iac.com
p1302
F0.0010835730286289731
tp1303
(Vfunnyordie.com
p1304
F0.0008083489140107018
tp1305
(Vbitboard.com
p1306
F0.0007468065544100305
tp1307
(Vjakeandamir.com
p1308
F0.000684379580816286
tp1309
(Vsmosh.com
p1310
F0.0005418167439286141
tp1311
(Votaku-streamers.com
p1312
F0.0004226580805814449
tp1313
(Vescapistmagazine.com
p1314
F0.00037066058045890797
tp1315
(Vkillsometime.com
p1316
F0.0003187066730836541
tp1317
(Vexplosm.net
p1318
F0.00020320890175623739
tp1319
(Vslowrobot.com
p1320
F0.00019192407440080052
tp1321
(Vbreak.com
p1322
F0.00014199769895208476
tp1323
(Vcockenblog.tumblr.com
p1324
F0.00013743128785720813
tp1325
tp1326
s((S'puzzlescript.net'
p1327
tp1328
(ttp1329
(ts((S'ebay.com'
p1330
tp1331
(ttp1332
((Vamazon.com
p1333
F0.010715418955713561
tp1334
(Vpaypal.com
p1335
F0.004491756406860376
tp1336
(Vetsy.com
p1337
F0.003662715716951191
tp1338
(Vslickdeals.net
p1339
F0.003069012319460808
tp1340
(Valiexpress.com
p1341
F0.0028328755606823754
tp1342
(Vus-mg6.mail.yahoo.com
p1343
F0.0019084091674699396
tp1344
(Vwalmart.com
p1345
F0.0017906265490819154
tp1346
(Ve.mail.ru
p1347
F0.0016764064461063679
tp1348
(Vgoogle.com
p1349
F0.0010756325212520402
tp1350
(Vautobia.com
p1351
F0.0008751469412171619
tp1352
(Vbestbuy.com
p1353
F0.0006417003644546833
tp1354
(Vnewegg.com
p1355
F0.0005644308027097123
tp1356
(Vmail.aol.com
p1357
F0.0004919381996496611
tp1358
tp1359
s((S'blogspot.com'
p1360
tp1361
(ttp1362
((Vassemblagemagazine.blogspot.co.uk
p1363
F0.006541988631317168
tp1364
(Vm5newsroom.blogspot.com
p1365
F0.004036872954197155
tp1366
(Vynotdownload.blogspot.fr
p1367
F0.0022117442599623263
tp1368
(Vmthplay.blogspot.com
p1369
F0.0020413221935465056
tp1370
(Vhamidrezashaabani.blogspot.com
p1371
F0.0019204729711661645
tp1372
(Vaufannada.blogspot.com
p1373
F0.0017903645833333333
tp1374
(Vbpi.fr
p1375
F0.0017869947498546654
tp1376
(Vesmor.blogspots.com
p1377
F0.00178335979137614
tp1378
(Vnasirabdulsattar.blogspot.com
p1379
F0.0015214354157980588
tp1380
(Vblogdauyeu.blogspot.com
p1381
F0.0015159288469955333
tp1382
(Vnetnam.vn
p1383
F0.0015090202188512115
tp1384
(Vncngame.blogspot.com
p1385
F0.0015063179670179727
tp1386
(Vm88vn.com
p1387
F0.001409084418436105
tp1388
(Vmncshop.co.id
p1389
F0.001362530038324371
tp1390
(Vmywardrobesl.blogspot.com
p1391
F0.0011306262301520825
tp1392
(Vshishology.blogspot.com
p1393
F0.0010837903091795939
tp1394
(Vkaka1951989.blogspot.com
p1395
F0.0010813764505062807
tp1396
(Vblogspots.com
p1397
F0.0010752472369247685
tp1398
(Vapp-vn.blogspot.com
p1399
F0.0010721612178382198
tp1400
(Vchoukngok.blogspot.com
p1401
F0.0010719783990852125
tp1402
tp1403
s((S'python-requests.org'
p1404
tp1405
(ttp1406
((Vzhidaow.com
p1407
F0.009551755746611724
tp1408
(Vfreepythontips.wordpress.com
p1409
F0.006459608747061535
tp1410
(Vcrsmithdev.com
p1411
F0.003916645744413759
tp1412
(Vpythonforbeginners.com
p1413
F0.00257766774217122
tp1414
(Vdjrill.readthedocs.org
p1415
F0.002012919776840218
tp1416
(Vpypi.python.org
p1417
F0.0017488807041015017
tp1418
(Vsqlserverradio.co.il
p1419
F0.0015344216654011643
tp1420
(Vlftp.yar.ru
p1421
F0.0014730447987851177
tp1422
(Vcommunity.idolondemand.com
p1423
F0.0014134444923578169
tp1424
(Vlupaworld.com
p1425
F0.0012363183378873667
tp1426
(Vapi-help.campaigncommander.com
p1427
F0.0012157320254775146
tp1428
(Vcms.int.avast.com
p1429
F0.00106509819085949
tp1430
(V101skidka.slack.com
p1431
F0.001045992198313829
tp1432
(Vmy.itron.com
p1433
F0.0009469974323677864
tp1434
(Vgitlab.labs.nic.cz
p1435
F0.000788003055522052
tp1436
(Vcoupadev.atlassian.net
p1437
F0.0007800650703031773
tp1438
(Vctf.sobug.com
p1439
F0.0007446869450650168
tp1440
(Vpydoc.net
p1441
F0.0007438618658704967
tp1442
(Vcrummy.com
p1443
F0.0005123460621771358
tp1444
(Vhazel01.dot8.va.us.attask.com
p1445
F0.0004937072558779491
tp1446
tp1447
s((S'lifehacker.com'
p1448
tp1449
(ttp1450
(ts((S'similarweb.com'
p1451
tp1452
(ttp1453
(ts((S'beta1.com'
p1454
tp1455
(ttp1456
(ts((S'bankrate.com'
p1457
tp1458
(ttp1459
((Vmortgagecalculator.org
p1460
F0.003674986761427938
tp1461
(Vbanrate.com
p1462
F0.0024237581029067125
tp1463
(Voptimalblue.com
p1464
F0.0014267289259495735
tp1465
(Vquickenloans.com
p1466
F0.0012738188802054122
tp1467
(Vw3.kubotalink.com
p1468
F0.001263829190928985
tp1469
(Vhsh.com
p1470
F0.0012327096241926128
tp1471
(Vfreddiemac.com
p1472
F0.0011495189740705278
tp1473
(Vmortgagenewsdaily.com
p1474
F0.00083906765896721
tp1475
(Vdealerdaily.toyota.com
p1476
F0.000807919706891282
tp1477
(Vbakrate.com
p1478
F0.000734880820206442
tp1479
(Vjobs.alpineaccess.com
p1480
F0.0006636771653698376
tp1481
(Vuiccu.mortgagewebcenter.com
p1482
F0.0005437095103291574
tp1483
(Vlendingtree.com
p1484
F0.0005310374295979765
tp1485
(Vcreditcards.com
p1486
F0.0005299372151525152
tp1487
(Vfranklinfirstfinancial.com
p1488
F0.0005052295897674785
tp1489
(Vfreemoneyfinance.com
p1490
F0.0004901845049979707
tp1491
(Vfoundationsu.com
p1492
F0.0004821683800864459
tp1493
(Vtrc.taboola.com
p1494
F0.00047723627944017615
tp1495
(Vcrm.studentloanhelp.info
p1496
F0.0004618004691505321
tp1497
(Vnerdwallet.com
p1498
F0.00043990024211160443
tp1499
tp1500
s((S'labnol.org'
p1501
tp1502
(ttp1503
((Vdictation.io
p1504
F0.053638048227418224
tp1505
(Vshoutmeloud.com
p1506
F0.006330967493765026
tp1507
(Vchandigarh.craigslist.co.in
p1508
F0.005956020018352308
tp1509
(Vctrlq.org
p1510
F0.003126295253718603
tp1511
(Vsoftwarerecs.stackexchange.com
p1512
F0.0024987468507650713
tp1513
(Vwarriorbreak.com
p1514
F0.0018003759225045986
tp1515
(Vdavidwalsh.name
p1516
F0.0017453391136774254
tp1517
(Vchillingeffects.org
p1518
F0.0010805928441890496
tp1519
(Vbocktherobber.com
p1520
F0.0010176242920439393
tp1521
(Vdeadurl.com
p1522
F0.0009012318677442234
tp1523
(Vcrack-net.com
p1524
F0.0008675788308667134
tp1525
(Vacessotop.semanatopenem.com
p1526
F0.0008457425669831452
tp1527
(Vplaytool.com
p1528
F0.000833971133323157
tp1529
(Vblog.teamtreehouse.com
p1530
F0.0007845697379048289
tp1531
(Vscript.google.com
p1532
F0.000775616447790688
tp1533
(Vcurso.aspasl.com
p1534
F0.0007295140509111274
tp1535
(Vmuro.sk
p1536
F0.0007203143020910928
tp1537
(Vdigitalhubinc.com
p1538
F0.0006249173569437375
tp1539
(Vmeteoalarm.eu
p1540
F0.0006155205087474934
tp1541
(Vbazqux.com
p1542
F0.0006142111911626334
tp1543
tp1544
s((S'microsoft.com'
p1545
tp1546
(ttp1547
((Vaccount.live.com
p1548
F0.03392699089457
tp1549
(Vsupport.skype.com
p1550
F0.0035348837961288793
tp1551
(Vsupport.google.com
p1552
F0.0034552858349033064
tp1553
(Vaz307127.vo.msecnd.net
p1554
F0.0022238317607300075
tp1555
(Vbing.com
p1556
F0.0021814967174457966
tp1557
(Vinsider.windows.com
p1558
F0.0020978542030613587
tp1559
(Vsupport.mozilla.org
p1560
F0.0014405952463219156
tp1561
(Vshell.windows.com
p1562
F0.0009299673249284091
tp1563
(Vwunderlist.com
p1564
F0.000919005584821735
tp1565
(Vsupport.office.com
p1566
F0.0008910745265042753
tp1567
(Vmozilla.org
p1568
F0.0008072399269828862
tp1569
(Voffice.com
p1570
F0.0007969000993079764
tp1571
(Vportal.office.com
p1572
F0.0005823095407318863
tp1573
(Vjava.com
p1574
F0.0005101489984820142
tp1575
(Vmystartsearch.com
p1576
F0.0004853991371988819
tp1577
(Vmicrosoftstore.com
p1578
F0.0004429218660199628
tp1579
(Viegallery.com
p1580
F0.00043285860820947095
tp1581
tp1582
s((S'sitepoint.com'
p1583
tp1584
(ttp1585
((Vlearnable.com
p1586
F0.003775512545387916
tp1587
(Vtutsplus.com
p1588
F0.0018674564890191878
tp1589
(Vjquery4u.com
p1590
F0.0015746334577439493
tp1591
(Vsmashingmagazine.com
p1592
F0.0015285013069617425
tp1593
(Vphpdeveloper.org
p1594
F0.0009926448925364107
tp1595
(Vaskleo.com
p1596
F0.0007617632740019425
tp1597
(Vrockettheme.com
p1598
F0.0006841783339726206
tp1599
(Vohio.edu
p1600
F0.0006826065234712008
tp1601
(Vbaymard.com
p1602
F0.0005839645071941564
tp1603
(Vwfvrj.petrobras.com.br
p1604
F0.000577655622686037
tp1605
(Vflukeout.github.io
p1606
F0.0005158523372684569
tp1607
(Vcodeguide.hu
p1608
F0.0005057804575627206
tp1609
(Vdocs.angularjs.org
p1610
F0.0005039753917788309
tp1611
(Vrubyflow.com
p1612
F0.00047607335651278954
tp1613
(Vsocial.tesisquare.com
p1614
F0.0004735965093608097
tp1615
(Vmobility.synovus.com
p1616
F0.00046856522119488223
tp1617
(Vorder.sitepointmedia.com
p1618
F0.0004548368673123083
tp1619
(Vmanagewp.org
p1620
F0.00035966640079505813
tp1621
(Vapp.emailmeform.com
p1622
F0.0002865970293783667
tp1623
(Vhealthclubsystems.com
p1624
F0.0002705686531720551
tp1625
tp1626
s((S'alpha47.com'
p1627
tp1628
(ttp1629
(ts((S'history.com'
p1630
tp1631
(ttp1632
((Vaetv.com
p1633
F0.00798236133012671
tp1634
(Vthisdayinrock.com
p1635
F0.0037971496161920237
tp1636
(Vhistorynet.com
p1637
F0.0030760712668171076
tp1638
(Vdiscovery.com
p1639
F0.0021861770845481867
tp1640
(Von-this-day.com
p1641
F0.001472630734754977
tp1642
(Vtravelchannel.com
p1643
F0.001415992886466294
tp1644
(Vbiography.com
p1645
F0.0013597998334544566
tp1646
(Vunileverpc.com
p1647
F0.0012406136238727436
tp1648
(Voptimum.net
p1649
F0.0010563923348507547
tp1650
(Vdailyupliftingquotes.com
p1651
F0.000970086295744522
tp1652
(Vtodayinliterature.com
p1653
F0.0007611890843539773
tp1654
(Vmylifetime.com
p1655
F0.0007440318299485829
tp1656
(Vactivate.fox.com
p1657
F0.000740355482017051
tp1658
(Vwatchtveverywhere.com
p1659
F0.0007079766794187768
tp1660
(Vhistoryorb.com
p1661
F0.0006006680921527825
tp1662
(Vnationaldaycalendar.com
p1663
F0.0005802684968778012
tp1664
(Vushistory.org
p1665
F0.000472393245433172
tp1666
(Vmail.colton.k12.ca.us
p1667
F0.00046702853469422615
tp1668
(Vmyhatchets.haikulearning.com
p1669
F0.00035607368402211693
tp1670
tp1671
s((S'alpha33.com'
p1672
tp1673
(ttp1674
(ts((S'andismith.com'
p1675
tp1676
(ttp1677
(ts((S'alpha20.com'
p1678
tp1679
(ttp1680
(ts((S'alpha22.com'
p1681
tp1682
(ttp1683
(ts((S'jasonseifer.com'
p1684
tp1685
(ttp1686
((Vauto.pubtest.internal.33across.com
p1687
F0.01332036660478001
tp1688
(Vjuanpabloprado.com
p1689
F0.007676274719129683
tp1690
(Vpichost.me
p1691
F0.00024074733939569222
tp1692
(Vteamtreehouse.com
p1693
F0.00023630208318629474
tp1694
(Vmartinfowler.com
p1695
F8.655217132744378e-05
tp1696
(Vraindrop.io
p1697
F2.303324849420138e-05
tp1698
(Vdigitalocean.com
p1699
F5.704592440587661e-06
tp1700
(Vencrypted.google.com
p1701
F2.6578255453102915e-06
tp1702
(Vpivotaltracker.com
p1703
F8.601690807198737e-07
tp1704
(Vstackoverflow.com
p1705
F7.90829840897358e-07
tp1706
(Vb.hatena.ne.jp
p1707
F3.9690572298361973e-07
tp1708
(Vgithub.com
p1709
F8.47725944524667e-08
tp1710
tp1711
s((S'facebook.com'
p1712
tp1713
(ttp1714
(ts((S'optimalblue.com'
p1715
tp1716
(ttp1717
((Vcitrix.primelending.com
p1718
F0.01983806998658364
tp1719
(Vmyhome.ephmc.com
p1720
F0.016720531392230547
tp1721
(Vfidelitypassport.com
p1722
F0.01087249587963097
tp1723
(Vfwprodweb1.firstam.com
p1724
F0.008999345804891831
tp1725
(Vmbshighway.com
p1726
F0.006312007531425715
tp1727
(Vapp.mbslive.net
p1728
F0.006148799715304694
tp1729
(Vloanbright.com
p1730
F0.005486635184313487
tp1731
(Vcertmail.com
p1732
F0.004539485775908838
tp1733
(Vadmin.icanbuy.com
p1734
F0.004302288065316919
tp1735
(Vawh1-standard-v1.loankatalyst3.net
p1736
F0.004188018819862747
tp1737
(Vadvertiser.bankrate.com
p1738
F0.0039302373731837726
tp1739
(Vvalutrust.com
p1740
F0.003728968651207271
tp1741
(Vbayeq.sharepoint.com
p1742
F0.0033966070386933695
tp1743
(Vbestrateusa.com
p1744
F0.002661144791224875
tp1745
(Vmlive.benchmarklogin.com
p1746
F0.002634990218954017
tp1747
(Vadmin.mortgagedashboard.com
p1748
F0.002564102564102564
tp1749
(Vmandalaybay.com
p1750
F0.002411923893121066
tp1751
(Vlm.velocify.com
p1752
F0.0022535245289155587
tp1753
(Vsharepoint.alpinemc.com
p1754
F0.001958819698411903
tp1755
(Vgwrs.com
p1756
F0.001636530069401655
tp1757
tp1758
s((S'voormedia.com'
p1759
tp1760
(ttp1761
(ts((S'google.co.uk'
p1762
tp1763
(ttp1764
((Vbbc.co.uk
p1765
F0.015803661828799845
tp1766
(Vuk.search.yahoo.com
p1767
F0.015624271888821255
tp1768
(Vamazon.co.uk
p1769
F0.009254315963283003
tp1770
(Vebay.co.uk
p1771
F0.008528257560579584
tp1772
(Ven.wikipedia.org
p1773
F0.004255091317020974
tp1774
(Vreddit.com
p1775
F0.003980648583379911
tp1776
(Vdailymail.co.uk
p1777
F0.0038733698459187693
tp1778
(Vsearch.safefinder.com
p1779
F0.0028345322202820732
tp1780
(Vyoutube.com
p1781
F0.00276943281382409
tp1782
(Vtwitter.com
p1783
F0.002499320864991151
tp1784
(Vuk.msn.com
p1785
F0.0014519535531925948
tp1786
(Vaccounts.youtube.com
p1787
F0.0014106376960693401
tp1788
(Vtheguardian.com
p1789
F0.0012393448640209122
tp1790
(Vcr2.gogorithm.com
p1791
F0.001229652212371702
tp1792
tp1793
s((S'reddit.com'
p1794
tp1795
(ttp1796
(ts((S'apidoc.com'
p1797
tp1798
(ttp1799
((Vapi.doc.com
p1800
F0.1111111111111111
tp1801
(Vapi.gehealthcare.com
p1802
F0.009782125389061804
tp1803
(Vapidock.com
p1804
F3.2379614904614277e-05
tp1805
tp1806
s((S'alpha39.com'
p1807
tp1808
(ttp1809
(ts((S'beta4.com'
p1810
tp1811
(ttp1812
(ts((S'ruby-lang.org'
p1813
tp1814
(ttp1815
((Vcas-01.uni.ad.sunderland.ac.uk
p1816
F0.012872928541706572
tp1817
(Vref.xaio.jp
p1818
F0.004998883713543663
tp1819
(Vrubyforge.org
p1820
F0.003566180092713265
tp1821
(Vguides.ruby.tw
p1822
F0.0033659435810147755
tp1823
(Vopenshift.com
p1824
F0.003261580787297741
tp1825
(Vjemmywalker.pixnet.net
p1826
F0.0028971000803575207
tp1827
(Vblade.nagaokaut.ac.jp
p1828
F0.0024790205130732737
tp1829
(Vruby-auf-schienen.de
p1830
F0.0022711603195847024
tp1831
(Vrubyclub.blogspot.com
p1832
F0.0021561004694637754
tp1833
(Vhelp.rallydev.com
p1834
F0.002068458282306121
tp1835
(Vruby-doc.com
p1836
F0.0019892545575918353
tp1837
(Vrailsdoc.com
p1838
F0.0019050279129559802
tp1839
(Vtheadmin.org
p1840
F0.0019036383809625046
tp1841
(Vbebo.com
p1842
F0.0018038020923432463
tp1843
(Vpine.fm
p1844
F0.001572538640588942
tp1845
(Vsldn.softlayer.com
p1846
F0.0015296219648572567
tp1847
(Vrubyinstaller.org
p1848
F0.0015030799755354062
tp1849
(Vfoad.simplon.co
p1850
F0.0014549651702471815
tp1851
(Vrusrails.ru
p1852
F0.001415963079495097
tp1853
(Vcharliewaite.me
p1854
F0.001348086772597759
tp1855
tp1856
s((S'technion.ac.il'
p1857
tp1858
(ttp1859
(ts((S'alpha15.com'
p1860
tp1861
(ttp1862
((Vmail.midco.net
p1863
F9.645216776247045e-05
tp1864
(Vinvest.ameritrade.com
p1865
F2.2621790287289574e-05
tp1866
(Vnews.newsmax.com
p1867
F9.012522674943768e-06
tp1868
(Vgoogle.com
p1869
F2.344631383637394e-09
tp1870
tp1871
s((S'github.io'
p1872
tp1873
(ttp1874
((Vlukecarbis.github.io
p1875
F0.019639527656929768
tp1876
(Vbuke.github.io
p1877
F0.013217398454201612
tp1878
(Vbriangordon.github.io
p1879
F0.009287699283311393
tp1880
(Vgpeyre.github.io
p1881
F0.008611401092566274
tp1882
(V6889692.github.io
p1883
F0.008225091134009764
tp1884
(Vmattsharpe.github.io
p1885
F0.00815808798985246
tp1886
(Vkalakuh.github.io
p1887
F0.007584589614740369
tp1888
(Vstevejwikeley.github.io
p1889
F0.00743578488101414
tp1890
(Vgovlab.github.io
p1891
F0.005946039187036417
tp1892
(Vlopezrj.github.io
p1893
F0.005642699636979904
tp1894
(Vrweather.github.io
p1895
F0.005466472303206997
tp1896
(Vharrydeluxe.github.io
p1897
F0.005292730375055698
tp1898
(Vfavoorr.github.io
p1899
F0.004616774648508087
tp1900
(Vthink2011.github.io
p1901
F0.004302731567056891
tp1902
(Vlxc-webpanel.github.io
p1903
F0.00421468554494567
tp1904
(Viamtrask.github.io
p1905
F0.003928938799817474
tp1906
(Vgit.github.io
p1907
F0.0037792006892635455
tp1908
(Vjakiestfu.github.io
p1909
F0.0036454348083036284
tp1910
(Vigorescobar.github.io
p1911
F0.0036386593204775024
tp1912
(Vwxfengyun.github.io
p1913
F0.0036010132128431577
tp1914
tp1915
s((S'alpha.com'
p1916
tp1917
(ttp1918
((Vflashmusictracks.com
p1919
F0.03084234066343645
tp1920
(Vveexinc.com
p1921
F0.02566152206439976
tp1922
(Valphayouthfilmseries.com
p1923
F0.01272843204485028
tp1924
(Valphagame.com
p1925
F0.012381591705825314
tp1926
(Vbedsdirect-ardmore.com
p1927
F0.007470136665633929
tp1928
(Vkk-alpha.com
p1929
F0.007401414359343161
tp1930
(Valphagroup.com
p1931
F0.007136390264685519
tp1932
(Vwearealpha.ca
p1933
F0.005797101449275362
tp1934
(Valfa.com
p1935
F0.004664162782205082
tp1936
(Vteluguweb.in
p1937
F0.003982892274792836
tp1938
(Vnoram-eng.com
p1939
F0.00393360081818897
tp1940
(Veshre.eu
p1941
F0.0037174721189591076
tp1942
(Vnewsumontheweb.org
p1943
F0.0036302495318888766
tp1944
(Vcheck-alpha.com
p1945
F0.0031749589122964292
tp1946
(Valfa-chemistry.com
p1947
F0.002835487213043241
tp1948
(Vsolarpowerrocks.com
p1949
F0.002806772470347807
tp1950
(Vkerryexpress.com
p1951
F0.0027217594622241706
tp1952
(Vlkp.com
p1953
F0.002395657870110425
tp1954
(Vcroline.com
p1955
F0.0017521257407884566
tp1956
(Vaksci.com
p1957
F0.0016539834760689266
tp1958
tp1959
s((S'scirra.com'
p1960
tp1961
(ttp1962
((Vc2community.ru
p1963
F0.007406235634299808
tp1964
(Vforums.tigsource.com
p1965
F0.006516674763500749
tp1966
(Vschwer-muta.blogspot.com
p1967
F0.0023252657005772242
tp1968
(Vwayofthepixel.net
p1969
F0.001771588111111012
tp1970
(Vblog.rubukkit.org
p1971
F0.001722506455389649
tp1972
(Vgamedev.ru
p1973
F0.00155671710308373
tp1974
(Velm-lang.org
p1975
F0.001454633678371806
tp1976
(Vkaamelott.co
p1977
F0.0014379499425883405
tp1978
(Vapp.mopub.com
p1979
F0.0013974901440273661
tp1980
(Vgame.9128.com
p1981
F0.001325856745272391
tp1982
(Vbases-hacking.org
p1983
F0.0012120643217503788
tp1984
(Va710594.byethost24.com
p1985
F0.0011639507815098104
tp1986
(Vyoyogames.com
p1987
F0.0010952749740584789
tp1988
(Vforums.wasabistudio.ca
p1989
F0.0010359152424912791
tp1990
(Velbitcoin.org
p1991
F0.0010213289204327799
tp1992
(Vstencyl.com
p1993
F0.0009509958272804534
tp1994
(Vfilmin.es
p1995
F0.000825167958358985
tp1996
(Vwowgame.jp
p1997
F0.0007702468672979726
tp1998
(Vcollaboration.swisscom.com
p1999
F0.0007476651600406859
tp2000
(Vfpl78.free.fr
p2001
F0.000719450980093071
tp2002
tp2003
s((S'chromium.org'
p2004
tp2005
(ttp2006
((Vdeveloper.chrome.com
p2007
F0.022100752027343448
tp2008
(Vjohnlewis.ie
p2009
F0.008052545533720222
tp2010
(Vimperialviolet.org
p2011
F0.004177426369874129
tp2012
(Vdownload-chromium.appspot.com
p2013
F0.004009500944262519
tp2014
(Vscotthelme.co.uk
p2015
F0.003532999099854658
tp2016
(Vcode.google.com
p2017
F0.002697460919000486
tp2018
(Vchromium.googlesource.com
p2019
F0.0020873460363834335
tp2020
(Vproductforums.google.com
p2021
F0.001335644399033382
tp2022
(Vwiki.archlinux.org
p2023
F0.0012934590063155952
tp2024
(Vkb.sitecore.net
p2025
F0.001156154586531049
tp2026
(Vblogmicrosoftbrasil.com.br
p2027
F0.0010548510155260927
tp2028
(Vexample.com
p2029
F0.0003803379258623619
tp2030
(Vdownloads.yahoo.com
p2031
F0.00034267692060830046
tp2032
(Vjava.com
p2033
F0.00031751464182818584
tp2034
(Vminutoms.com.br
p2035
F0.00029505951595761227
tp2036
(Vmattcutts.com
p2037
F0.0002391419420138638
tp2038
(Vgigaom.com
p2039
F0.00023660680057301445
tp2040
(Vcorom.vn
p2041
F0.00023047213023705282
tp2042
(Vvpnhelp.homeawaycorp.com
p2043
F0.0002284515048063452
tp2044
tp2045
s((S'alpha28.com'
p2046
tp2047
(ttp2048
(ts((S'gmail.com'
p2049
tp2050
(ttp2051
((Vgoogle.co.in
p2052
F0.002160747949931791
tp2053
(Vreddit.com
p2054
F0.0019094229668676123
tp2055
(Vnetflix.com
p2056
F0.0015143636335367562
tp2057
(Vamazon.com
p2058
F0.001114998532370577
tp2059
(Vdropbox.com
p2060
F0.0008313813311958971
tp2061
(Ven.wikipedia.org
p2062
F0.0008247348851858367
tp2063
(Vpandora.com
p2064
F0.0008159585716037036
tp2065
(Vaccount.live.com
p2066
F0.0007445104894934813
tp2067
(Vfacebook.com
p2068
F0.0007035519930853775
tp2069
(Vstartpagina.nl
p2070
F0.0004478025187472418
tp2071
(Vlinkedin.com
p2072
F0.00038762191829156073
tp2073
(Vsoundcloud.com
p2074
F0.00035534929141919615
tp2075
(Vstackoverflow.com
p2076
F0.000352430535378393
tp2077
(Vtrovi.com
p2078
F0.0003270559567248911
tp2079
(Vbing.com
p2080
F0.0003186797288942869
tp2081
(Vsearch.safefinder.com
p2082
F0.0003181670220008833
tp2083
(Vhome.tb.ask.com
p2084
F0.000309598054277362
tp2085
tp2086
s((S'beta5.com'
p2087
tp2088
(ttp2089
(ts((S'alpha50.com'
p2090
tp2091
(ttp2092
(ts((S'padolsey.com'
p2093
tp2094
(ttp2095
((Vpapagoarchery.com
p2096
F0.010473375849017473
tp2097
(Vvintagephotoboothnyc.com
p2098
F0.00996644957568581
tp2099
(Vwebmail.digitalgear.com
p2100
F0.007198731312699346
tp2101
(Vgod.richard.dev.xen.lan.expert-shops.com
p2102
F0.005221312448083541
tp2103
(Vfoaas.com
p2104
F0.005002293011606166
tp2105
(Vcnfeat.com
p2106
F0.00401750239583653
tp2107
(Vwifi.weixin.qq.com
p2108
F0.003792761744407321
tp2109
(Vfrontend.richard.dev.xen.lan.expert-shops.com
p2110
F0.0036325652028917203
tp2111
(Vjira.foryouandyourteam.com
p2112
F0.003233026610295946
tp2113
(Vicescrum.i-dalgo2.com
p2114
F0.003064895530648955
tp2115
(Vabgmanagementlimited.quickbase.com
p2116
F0.002340158796489762
tp2117
(Vsave-dep-mukku.blogspot.jp
p2118
F0.0023262142399424154
tp2119
(Vzero11.com.br
p2120
F0.0023032042085126734
tp2121
(Vwiki.s00.jp
p2122
F0.002212426322029087
tp2123
(Vozekisms.com
p2124
F0.0018377987713592483
tp2125
(Vzhangxinxu.com
p2126
F0.0016898954023123237
tp2127
(Vcvmlrobotics.blogspot.com
p2128
F0.0016786257882148291
tp2129
(Vredwoods.com
p2130
F0.0016160499719493919
tp2131
(Vrandomsnippets.com
p2132
F0.0013289677088390124
tp2133
(Vejohn.org
p2134
F0.0012231300524343327
tp2135
tp2136
s((S'sixrevisions.com'
p2137
tp2138
(ttp2139
((Vforum.hangarnet.com.br
p2140
F0.004522612841241663
tp2141
(Viconpaper.org
p2142
F0.004388601429190374
tp2143
(Vpanosfx.com
p2144
F0.003981522100667729
tp2145
(Vliptonicetea.com
p2146
F0.0039197345769073555
tp2147
(Vtiny.cc
p2148
F0.003371601640395747
tp2149
(Vbohemian.curated.co
p2150
F0.003326202922179347
tp2151
(Vnoupe.com
p2152
F0.002781459432749324
tp2153
(Vvle-project.org
p2154
F0.002767415707556039
tp2155
(Vsixrevision.com
p2156
F0.0022085172602788606
tp2157
(Vbusiness.tutsplus.com
p2158
F0.0017757417437201713
tp2159
(Vforum.weavertheme.com
p2160
F0.0015203455783372938
tp2161
(Vtvgratishd.blogspot.com
p2162
F0.0015013110572595332
tp2163
(Vinflexwetrust.com
p2164
F0.0012838767727523452
tp2165
(Vsixminutes.dlugan.com
p2166
F0.001239579333077317
tp2167
(Vtricias-captions.tumblr.com
p2168
F0.0012110202845897668
tp2169
(Vsiteexplorer.info
p2170
F0.0010857132729947228
tp2171
(Vcommonplaces.com
p2172
F0.0010758741477450429
tp2173
(Vmongodbspain.com
p2174
F0.0010698474333738655
tp2175
(Vlanzateya.com
p2176
F0.0010386067653343092
tp2177
(Vfleischlust.com
p2178
F0.0009746657118920917
tp2179
tp2180
s((S'beta3.com'
p2181
tp2182
(ttp2183
((Vsearch.smartshopping.com
p2184
F1.0572516976406806e-07
tp2185
tp2186
s((S'spotad.co'
p2187
tp2188
(ttp2189
((Vinnolance.com
p2190
F0.002733964248159832
tp2191
(Vnewincite.com
p2192
F0.0021574973031283713
tp2193
(Vui.servesharp.net
p2194
F0.0003960637357950218
tp2195
(Vjira.millennialmedia.com
p2196
F0.00036140992389132194
tp2197
(Vmovinstream.com
p2198
F4.124136508918446e-05
tp2199
(Vhwzone.co.il
p2200
F1.7154933461951347e-05
tp2201
(Vsubtitle.co.il
p2202
F7.854194729049916e-06
tp2203
(Vlinkedin.com
p2204
F1.6123254398713075e-07
tp2205
(Vvimeo.com
p2206
F9.877902401742443e-08
tp2207
(Vgoogle.co.uk
p2208
F9.113462281788802e-08
tp2209
(Vfacebook.com
p2210
F7.059035289641063e-09
tp2211
tp2212
s((S'beta11.com'
p2213
tp2214
(ttp2215
(ts((S'walmart.com'
p2216
tp2217
(ttp2218
((Vtarget.com
p2219
F0.016191472243672674
tp2220
(Vwww2.onlinecreditcenter6.com
p2221
F0.01191700934366368
tp2222
(Vblackfriday.com
p2223
F0.008828973008072028
tp2224
(Vbestbuy.com
p2225
F0.007051185413925967
tp2226
(Vkmart.com
p2227
F0.004302594970420979
tp2228
(Vtoysrus.com
p2229
F0.004132935890938453
tp2230
(Vsamsclub.com
p2231
F0.003398453827899621
tp2232
(Vhiringcenter.walmartstores.com
p2233
F0.002464230730206549
tp2234
(Vr.befrugal.com
p2235
F0.002102698555986174
tp2236
(Vwalgreens.com
p2237
F0.0018930996132344058
tp2238
(Vshopping.paypal.com
p2239
F0.0012793019201361572
tp2240
(Vkohls.com
p2241
F0.001067534574161307
tp2242
(Vgamestop.com
p2243
F0.00098459925813377
tp2244
(Vamazon.com
p2245
F0.0009239514095817645
tp2246
tp2247
s((S'testy.com'
p2248
tp2249
(ttp2250
((Vgoogle.com
p2251
F5.7582840045330454e-09
tp2252
(Vfacebook.com
p2253
F4.906167885604807e-10
tp2254
tp2255
s((S'apidock.com'
p2256
tp2257
(ttp2258
((Vapi.rubyonrails.org
p2259
F0.004283722809508841
tp2260
(Vlogentries.com
p2261
F0.0031281175847644965
tp2262
(Vguides.rubyonrails.org
p2263
F0.0014298972896033487
tp2264
(Vbsonspec.org
p2265
F0.0013823136499941477
tp2266
(Vadtaily.hackpad.com
p2267
F0.0013067944421232297
tp2268
(Vadmin.revieworld.com
p2269
F0.0012428262182843334
tp2270
(Vsportngin.atlassian.net
p2271
F0.000914667802116352
tp2272
(Vrailsdoc.com
p2273
F0.0008941412847720574
tp2274
(Vgsubbarao.com
p2275
F0.0008810756888817209
tp2276
(Vruby-doc.org
p2277
F0.000875561057367794
tp2278
(Vgotealeaf.campfirenow.com
p2279
F0.0008217247009736729
tp2280
(Vruby-forum.com
p2281
F0.0007341966194683126
tp2282
(Vrequiremind.com
p2283
F0.0006038566509753178
tp2284
(V3edge.in
p2285
F0.0006037040162545684
tp2286
(Vcapterrapaulo.aws.af.cm
p2287
F0.0005021993641797336
tp2288
(Vstrftimer.com
p2289
F0.0005021070563973819
tp2290
(Vclojuredocs.org
p2291
F0.0004751783760686909
tp2292
(Vwebmail.abril.com.br
p2293
F0.00046069404857109657
tp2294
(Vnvcad.nvidia.com
p2295
F0.0004513071790077689
tp2296
(Vruby.about.com
p2297
F0.0004484059714551321
tp2298
tp2299
s((S'dorkly.com'
p2300
tp2301
(ttp2302
((Vcollegehumor.com
p2303
F0.00532996727307274
tp2304
(Vdidyouknowgaming.com
p2305
F0.0021633027780272383
tp2306
(Vnetlore.ru
p2307
F0.0013772662965528448
tp2308
(Vawkwardzombie.com
p2309
F0.0011546861484157086
tp2310
(Vbrawlinthefamily.keenspot.com
p2311
F0.001025083503038372
tp2312
(Vexplosm.net
p2313
F0.0009121791532666129
tp2314
(Vdorktower.com
p2315
F0.0007780467559879749
tp2316
(Vbunicomic.com
p2317
F0.0007688771325575398
tp2318
(Vpenny-arcade.com
p2319
F0.000697397505029458
tp2320
(Vforums.tigsource.com
p2321
F0.0006230253345583321
tp2322
(Vsyacartoonist.com
p2323
F0.0005622097830873088
tp2324
(Vdangerouslychloe.com
p2325
F0.0004875689986759523
tp2326
(Vblessings.thecomicseries.com
p2327
F0.0004383328772759553
tp2328
(Vtrenchescomic.com
p2329
F0.00042936677189025536
tp2330
(Vsurvivingtheworld.net
p2331
F0.00038241257511459256
tp2332
(Vdraconicsonic.deviantart.com
p2333
F0.0002444842155108139
tp2334
tp2335
s((S'banrate.com'
p2336
tp2337
(ttp2338
((Vadvertiser.bankrate.com
p2339
F0.010417933438728768
tp2340
(Vmycfe.com
p2341
F0.003697223187641567
tp2342
(Vlowermybills.com
p2343
F0.000577498241663914
tp2344
(Vsalliemae.com
p2345
F4.9130725485894754e-05
tp2346
(Vdictionary.goo.ne.jp
p2347
F3.7425394069492426e-05
tp2348
(Vally.com
p2349
F1.4405003035318033e-05
tp2350
(Vpost.craigslist.org
p2351
F1.8668535426783176e-06
tp2352
(Vwellsfargo.com
p2353
F1.5658914407910743e-06
tp2354
(Vfinance.yahoo.com
p2355
F8.480322713302284e-07
tp2356
(Vebay.com
p2357
F1.287045916505256e-07
tp2358
tp2359
s((S'9gag.com'
p2360
tp2361
(ttp2362
((Vhugelol.com
p2363
F0.003233730888247263
tp2364
(Vmemecenter.com
p2365
F0.0025017981164674975
tp2366
(Vkwejk.pl
p2367
F0.0021561817990461748
tp2368
(Vmangareader.net
p2369
F0.001933358652853593
tp2370
(Vdumpert.nl
p2371
F0.0015286863776028295
tp2372
(Veksisozluk.com
p2373
F0.001271977269860276
tp2374
(Vtwitch.tv
p2375
F0.0012509446636704555
tp2376
(Vhiddenlol.com
p2377
F0.0010730062228643238
tp2378
(Vmangafox.me
p2379
F0.0006855088296482892
tp2380
(Vjeuxvideo.com
p2381
F0.0005999945477223184
tp2382
(Vhaivl.com
p2383
F0.0004240296668315654
tp2384
(Vmangahere.co
p2385
F0.0003718523999781129
tp2386
tp2387
s((S'infosecisland.com'
p2388
tp2389
(ttp2390
(ts((S'widdershinscomic.com'
p2391
tp2392
(ttp2393
((Vletsaskviolet.com
p2394
F0.023339778372803054
tp2395
(Vthe-whiteboard.com
p2396
F0.02297513496899636
tp2397
(Vineffableaether.com
p2398
F0.018733703512249688
tp2399
(Vpuckcomics.com
p2400
F0.010880843347775311
tp2401
(Valiendice.com
p2402
F0.0095586849274735
tp2403
(Vcasualvillain.com
p2404
F0.007030130604618646
tp2405
(Vmarryme.keenspot.com
p2406
F0.00618793397842423
tp2407
(Vprecociouscomic.com
p2408
F0.006100743140697935
tp2409
(Vrice-boy.com
p2410
F0.004656766063375279
tp2411
(Vthearchipelago.smackjeeves.com
p2412
F0.002923735751237376
tp2413
(Vsmbhax.com
p2414
F0.0025248584102409368
tp2415
(Vbetweenfailures.com
p2416
F0.0018146924062114364
tp2417
(Vwncomic.com
p2418
F0.0017688444965095805
tp2419
(Vthegamercat.com
p2420
F0.0015217058359325555
tp2421
(Vweregeek.com
p2422
F0.0014803237802496064
tp2423
(Vnerf-this.com
p2424
F0.0013742114952235965
tp2425
tp2426
s((S'zetalab.de'
p2427
tp2428
(ttp2429
(ts((S'dock.com'
p2430
tp2431
(ttp2432
((Vdocks.qc.ca
p2433
F0.06434729912128474
tp2434
(Vdockandslip.com
p2435
F0.06212746446584136
tp2436
(Vtessera.com
p2437
F0.005609478693919016
tp2438
(Vedu.americanvhs.com
p2439
F0.0009426078168425553
tp2440
(Vv3.mercusuar.info
p2441
F5.262204832870827e-06
tp2442
(Vsafecart.com
p2443
F1.0612495775718263e-06
tp2444
tp2445
s((S'92.195'
p2446
tp2447
(ttp2448
(ts((S'alpha30.com'
p2449
tp2450
(ttp2451
(ts((S'alpha19.com'
p2452
tp2453
(ttp2454
(ts((S'.hdokiejnpimakedhajhdlcegeplioahd'
p2455
tp2456
(ttp2457
(ts((S'beta8.com'
p2458
tp2459
(ttp2460
(ts((S'johnlewis.ie'
p2461
tp2462
(ttp2463
((Vcoreboot.org
p2464
F0.02854268245491835
tp2465
(Vdistroshare.com
p2466
F0.016549572788962446
tp2467
(Vwebmail.w14a.comcast.net
p2468
F0.013918136600019624
tp2469
(Vdeconetworks.com
p2470
F0.007967123011370798
tp2471
(Vjeanlouisnguyen.blogspot.ca
p2472
F0.005415745410279979
tp2473
(Vpilaresdelcodigo.wordpress.com
p2474
F0.004368068633605357
tp2475
(Vae.sjsu.edu
p2476
F0.00432630123544891
tp2477
(Vsenk9.wordpress.com
p2478
F0.0035087719298245615
tp2479
(Vreadditing.herokuapp.com
p2480
F0.0031414092774758665
tp2481
(Vanderswallin.net
p2482
F0.0027987907111832813
tp2483
(Vgeorgakopoulos.org
p2484
F0.001107007252449383
tp2485
(Vzupimages.net
p2486
F0.0010530772654731792
tp2487
(Vjoomla.quantumcs.com
p2488
F0.0007784613047770943
tp2489
(Vchromium.org
p2490
F0.0007239176971487771
tp2491
(Vciteworld.com
p2492
F0.000622003528792297
tp2493
(Vtechreport.com
p2494
F0.0003636459011841565
tp2495
(Vfunhousegames.co
p2496
F0.00029423524559166105
tp2497
(Vbuddypress.org
p2498
F0.00017586529805995192
tp2499
(Vwiki.archlinux.org
p2500
F0.00013728228690694814
tp2501
(Vtvxs.gr
p2502
F9.757876076671679e-05
tp2503
tp2504
s((S'coreboot.org'
p2505
tp2506
(ttp2507
((Vhappyassassin.net
p2508
F0.059476348436577016
tp2509
(Vgit.buildroot.net
p2510
F0.02452952891923749
tp2511
(Vflashrom.org
p2512
F0.017701817587736517
tp2513
(Vbrmlab.cz
p2514
F0.013296603505499648
tp2515
(Vtiny.wiki.kernel.org
p2516
F0.012337571525115207
tp2517
(V86duino.com
p2518
F0.010515115478500344
tp2519
(Veskolar.com
p2520
F0.009344584495521896
tp2521
(Vjohnlewis.ie
p2522
F0.006332038626695642
tp2523
(Vseabios.org
p2524
F0.00443494523109805
tp2525
(Vsavebydiy.com
p2526
F0.0036583215796897038
tp2527
(Vlists.denx.de
p2528
F0.0029219143576826195
tp2529
(Vdonate.ccf.org.tw
p2530
F0.0027590143659023876
tp2531
(Vmetacloud.jira.com
p2532
F0.002028728663370954
tp2533
(Vembeddedlinux.org.cn
p2534
F0.0018237464363575382
tp2535
(Vfsf.org
p2536
F0.0017019026720611005
tp2537
(Vdev.milaap.org
p2538
F0.0011945877468052004
tp2539
(Vwiki.archlinux.org
p2540
F0.0007416826313193679
tp2541
(Vhitech.vesti.ru
p2542
F0.00033012905439744935
tp2543
(Vmark.intel.com
p2544
F0.00029483913576752523
tp2545
(Vlinux.softpedia.com
p2546
F2.1233992224112045e-05
tp2547
tp2548
s((S'docks.com'
p2549
tp2550
(ttp2551
((Vnew-startups.com
p2552
F0.0011150896408172368
tp2553
(Vimei.info
p2554
F0.00013258549617717544
tp2555
(Vdocs.com
p2556
F0.00011210307582814303
tp2557
tp2558
s((S'walla.co.il'
p2559
tp2560
(ttp2561
((Vynet.co.il
p2562
F0.020681855597970564
tp2563
(Vsport5.co.il
p2564
F0.01671716174222901
tp2565
(Vone.co.il
p2566
F0.0158659102755873
tp2567
(Vmako.co.il
p2568
F0.01332301405197086
tp2569
(Vnrg.co.il
p2570
F0.008862240216676337
tp2571
(Vgoogle.co.il
p2572
F0.007271907105170784
tp2573
(Vhaaretz.co.il
p2574
F0.005973013842627749
tp2575
(Vrotter.net
p2576
F0.005844035385500475
tp2577
(Vnana10.co.il
p2578
F0.005317331090295053
tp2579
(Vglobes.co.il
p2580
F0.004428857379564541
tp2581
tp2582
s((S'railscasts.com'
p2583
tp2584
(ttp2585
(ts((S'beta0.com'
p2586
tp2587
(ttp2588
(ts((S'beta6.com'
p2589
tp2590
(ttp2591
(ts((S'alpha8.com'
p2592
tp2593
(ttp2594
(ts((S'stakeventures.com'
p2595
tp2596
(ttp2597
(ts((S'ycombinator.com'
p2598
tp2599
(ttp2600
((Vhackerne.ws
p2601
F0.002258449013607999
tp2602
(Vtechmeme.com
p2603
F0.0012691820221576143
tp2604
(Vnews.layervault.com
p2605
F0.0009917455368117767
tp2606
(Vproducthunt.com
p2607
F0.0006783600822242837
tp2608
(Vspacerogue.net
p2609
F0.0006178246123912907
tp2610
(Vxcortex.com
p2611
F0.0005490919247667366
tp2612
(Vblog.samaltman.com
p2613
F0.00045371434238055064
tp2614
(Vnautil.us
p2615
F0.0004510529032547637
tp2616
(Vnews.dbanotes.net
p2617
F0.0003639712839933979
tp2618
(Vlesswrong.com
p2619
F0.00029064409138113845
tp2620
(Vnikcub.com
p2621
F0.00023565540621483204
tp2622
(Vlobste.rs
p2623
F0.00016749410462020464
tp2624
(Vgwucolumbian.service-now.com
p2625
F0.00015106314765607595
tp2626
(Vdatatau.com
p2627
F0.0001409348825942487
tp2628
(Vnet-benefits.net
p2629
F0.00013016942453237583
tp2630
tp2631
s((S'fetchapp.com'
p2632
tp2633
(ttp2634
((Vcheckout.shopify.com
p2635
F0.03289034869667742
tp2636
(Vpixelunion.net
p2637
F0.014754481133273599
tp2638
(Vvfbpro.com
p2639
F0.006749764676306224
tp2640
(Vmovimus-wrestling.myshopify.com
p2641
F0.004611150121474517
tp2642
(Vsiteorigin.uservoice.com
p2643
F0.0013398333270103824
tp2644
(Vnivel7.zendesk.com
p2645
F0.0010256196709226026
tp2646
(Vlocalinternettraffic.basecamphq.com
p2647
F0.0007945726175017724
tp2648
(Vfindacaravan.co.uk
p2649
F0.000773582354640265
tp2650
(Vmygedlive.com
p2651
F0.0006667648984276862
tp2652
(Vsupergiantgames.com
p2653
F0.0006353591339866412
tp2654
(Vrubinmuseum.mooclients.com
p2655
F0.0005533319807440471
tp2656
(Vstore-ugs15e.mybigcommerce.com
p2657
F0.0005459376175282371
tp2658
(Vdowntownhq.com
p2659
F0.0005201510438608135
tp2660
(Vwebmail1.cogeco.ca
p2661
F0.0005121806493696923
tp2662
(Vccparkboard.com
p2663
F0.0005069670278806741
tp2664
(Vmy-cubby-house-rocks.myshopify.com
p2665
F0.000469641480868186
tp2666
(Vpredictablesuccess.com
p2667
F0.00046456904822288767
tp2668
(Vabookapart.com
p2669
F0.000443290002711978
tp2670
(Vjoridweb.com
p2671
F0.00037026980326331123
tp2672
(Vevanabrams.com
p2673
F0.00036538634981349104
tp2674
tp2675
s((S'beta10.com'
p2676
tp2677
(ttp2678
(ts((S'beta2.com'
p2679
tp2680
(ttp2681
((Vlogopond.com
p2682
F8.342355902882032e-05
tp2683
tp2684
s((S'imgur.com'
p2685
tp2686
(ttp2687
((Veksisozluk.com
p2688
F0.007959158123693156
tp2689
(Vsteamcommunity.com
p2690
F0.005482409223054582
tp2691
(Vl.moapi.net
p2692
F0.0042747932543380305
tp2693
(Vptt.cc
p2694
F0.004205827649589891
tp2695
(Vreddit.com
p2696
F0.002423451953582919
tp2697
(Vus.battle.net
p2698
F0.0023017082856949867
tp2699
(Vprntscr.com
p2700
F0.002184980056042118
tp2701
(Viamchucky.github.io
p2702
F0.002029496111172061
tp2703
(Vplurk.com
p2704
F0.0012164439471213228
tp2705
(Vgamefaqs.com
p2706
F0.0011121531273015387
tp2707
(Vflashback.org
p2708
F0.0010824160224589597
tp2709
(Vtwitch.tv
p2710
F0.0008429300641815612
tp2711
(Vboards.4chan.org
p2712
F0.0008128220671250406
tp2713
tp2714
s((S'google.co.il'
p2715
tp2716
(ttp2717
((Vynet.co.il
p2718
F0.02090290556127998
tp2719
(Vwalla.co.il
p2720
F0.010178080865357519
tp2721
(Vmako.co.il
p2722
F0.009531641570181064
tp2723
(Vhe.wikipedia.org
p2724
F0.005168147982441724
tp2725
(Vone.co.il
p2726
F0.004797051193030695
tp2727
(Vsport5.co.il
p2728
F0.004629557192589989
tp2729
(Vpanet.co.il
p2730
F0.004466318634153449
tp2731
(Vyad2.co.il
p2732
F0.004239283102327047
tp2733
(Vfxp.co.il
p2734
F0.004224135214989242
tp2735
(Vil.msn.com
p2736
F0.0025525166492135123
tp2737
(Vjewishjournal.com
p2738
F0.0016738899904644618
tp2739
(Vhaaretz.co.il
p2740
F0.0011658029360413589
tp2741
tp2742
s((S'foobar2000.com'
p2743
tp2744
(ttp2745
((Vmorbo.org
p2746
F0.031915159700857905
tp2747
(Vjdk8.java.net
p2748
F0.0036444231186665292
tp2749
(Vforum.powerampapp.com
p2750
F0.0026170710255915223
tp2751
(Vdbpoweramp.com
p2752
F0.0008974646623289207
tp2753
(Vjriver.com
p2754
F0.00033570030497519226
tp2755
(Vpodsvojostreho.net
p2756
F0.00014945816684828672
tp2757
(Vteksyndicate.com
p2758
F1.1823333348362995e-05
tp2759
(Vtrojmiasto.pl
p2760
F5.731231896333478e-06
tp2761
(Vricardo.ch
p2762
F3.7479474663832534e-06
tp2763
(Vus-mg204.mail.yahoo.com
p2764
F1.5779104558357893e-06
tp2765
(Vboards.4chan.org
p2766
F1.1310967365085483e-06
tp2767
(Vnetvibes.com
p2768
F1.0671421974257503e-06
tp2769
(Vtheguardian.com
p2770
F7.685661734505484e-07
tp2771
(Varstechnica.com
p2772
F6.992041308980053e-07
tp2773
(Vsearch.yahoo.co.jp
p2774
F6.754668573135203e-07
tp2775
(Ven.eazel.com
p2776
F5.318138091329666e-07
tp2777
(Vandroidpolice.com
p2778
F3.6786215539942405e-07
tp2779
(Vkickstarter.com
p2780
F2.241460998950497e-07
tp2781
(Vgoogle.com.tw
p2782
F1.301859356429909e-07
tp2783
(Vgoogle.lv
p2784
F1.037835278431857e-07
tp2785
tp2786
s((S'alpha14.com'
p2787
tp2788
(ttp2789
((Vdofusbook.net
p2790
F0.0006337329293461555
tp2791
tp2792
s((S'happyassassin.net'
p2793
tp2794
(ttp2795
((Vmndm.gov.on.ca
p2796
F0.04298894933263563
tp2797
(Veriberto.pro.br
p2798
F0.01202062754212667
tp2799
(Vblog.hansenpartnership.com
p2800
F0.011842526405633201
tp2801
(Vcalm.aber.ac.uk
p2802
F0.011433569710412046
tp2803
(Vbugs.freedesktop.org
p2804
F0.0009542923479526986
tp2805
(Vsandboxie.com
p2806
F0.0007907844422448724
tp2807
(Vmanyland.com
p2808
F0.0007040551653256227
tp2809
(Vmarc.info
p2810
F0.0005867879121690093
tp2811
(Vforums.opensuse.org
p2812
F0.0005194968302130223
tp2813
(Veeti.com.tw
p2814
F0.0005194955121359924
tp2815
(Vimaginecup.com
p2816
F0.0003215762268482594
tp2817
(V4sysops.com
p2818
F0.00014510480483848856
tp2819
(Vanimeultima.tv
p2820
F0.0001281134603127242
tp2821
(Vthomas-krenn.com
p2822
F7.921381869224323e-05
tp2823
(Vjustinguitar.com
p2824
F6.288087035151911e-05
tp2825
(Vcomputer.howstuffworks.com
p2826
F2.4267097954854636e-05
tp2827
(Vcompileonline.com
p2828
F2.3703323624266067e-05
tp2829
(Vsevenforums.com
p2830
F2.367194472127469e-06
tp2831
(Vtechnet.microsoft.com
p2832
F2.1155661906668695e-06
tp2833
(Vaccounts.google.com
p2834
F1.3084216140549257e-07
tp2835
tp2836
s((S'chrome.com'
p2837
tp2838
(ttp2839
(ts((S'alpha3.com'
p2840
tp2841
(ttp2842
((Vanimeq.com.br
p2843
F2.1789299758136615e-06
tp2844
tp2845
s((S'alpha9.com'
p2846
tp2847
(ttp2848
(ts((S'goldsteintech.com'
p2849
tp2850
(ttp2851
(ts((S'alpha4.com'
p2852
tp2853
(ttp2854
((Vgoogle.com.au
p2855
F8.213878316722479e-08
tp2856
tp2857
s((S'techonthenet.com'
p2858
tp2859
(ttp2860
(ts((S'cracked.com'
p2861
tp2862
(ttp2863
((Vlistverse.com
p2864
F0.002726385758898505
tp2865
(Vcollegehumor.com
p2866
F0.002107328674389131
tp2867
(Varchive.today
p2868
F0.0016765785990839604
tp2869
(Vescapistmagazine.com
p2870
F0.0016443018805989268
tp2871
(Vdorkly.com
p2872
F0.0015727526783965238
tp2873
(Vsmbc-comics.com
p2874
F0.0014025142688979721
tp2875
(Vtheonion.com
p2876
F0.0012152073952430848
tp2877
(Voddee.com
p2878
F0.0008038470483622185
tp2879
(Vavclub.com
p2880
F0.0007375924550347175
tp2881
(Vexplosm.net
p2882
F0.0007325112118358349
tp2883
(Vthechive.com
p2884
F0.0006896736374762467
tp2885
(Vmentalfloss.com
p2886
F0.0004837719810559199
tp2887
(Vbuzzfeed.com
p2888
F0.00045508882873294493
tp2889
tp2890
s((S'guru99.com'
p2891
tp2892
(ttp2893
((Vtoolsqa.com
p2894
F0.005719466566131465
tp2895
(Vabap101.com
p2896
F0.003011493349875067
tp2897
(Vregistria.app.box.com
p2898
F0.0026405273456051367
tp2899
(Vhanelsoft.vn
p2900
F0.002062561850334693
tp2901
(Vassertselenium.com
p2902
F0.00195169518565124
tp2903
(Vseleniummadeeasy.blogspot.co.uk
p2904
F0.0017882739008798492
tp2905
(Vsaptraininghub.com
p2906
F0.0017882409332036706
tp2907
(Vqtpfaq.wordpress.com
p2908
F0.0017873677324844871
tp2909
(Vcodeodor.com
p2910
F0.0016453585640558656
tp2911
(Vmanage.hivelocity.net
p2912
F0.001623640201331385
tp2913
(Vsoftwaretestinggenius.com
p2914
F0.001583393157862956
tp2915
(Vcommunity.stresstimulus.com
p2916
F0.001557093159406643
tp2917
(Vtennisworlditalia.com
p2918
F0.0012915493611922993
tp2919
(Vroqit.sharepoint.com
p2920
F0.0010722141775454032
tp2921
(Vsyrinx.catsone.com
p2922
F0.0009775579010200494
tp2923
(Vculverlabs.co
p2924
F0.0009439906846807562
tp2925
(Vwebmail.trigma.co.in
p2926
F0.0008988027832973669
tp2927
(Vnewtours.demoaut.com
p2928
F0.0008537480868080438
tp2929
(Vajmadison.com
p2930
F0.0008427717137978187
tp2931
(Vin.playstation.com
p2932
F0.0008242438736899647
tp2933
tp2934
s((S'blogspot.co.uk'
p2935
tp2936
(ttp2937
((Vsoccersportthai.blogspot.co.uk
p2938
F0.0707374040707374
tp2939
(Vproofreadmyfile.blogspot.com
p2940
F0.030689329556185082
tp2941
(Vibrahimyamanabdullahi.blogspot.co.uk
p2942
F0.017033585087578337
tp2943
(Vsapbasissociety.blogspot.co.uk
p2944
F0.015119098559406645
tp2945
(Vpersianbooks2.blogspot.co.uk
p2946
F0.01447080599024062
tp2947
(Vblogsofnote.blogspot.co.uk
p2948
F0.014427657547298217
tp2949
(Vkizomba-zouk.blogspot.co.uk
p2950
F0.012347802817439838
tp2951
(Vbmackie.blogspot.co.uk
p2952
F0.01162535643781531
tp2953
(Vsherrysbeautyandfashion.blogspot.co.uk
p2954
F0.011378935939196526
tp2955
(Vmwholt.blogspot.co.uk
p2956
F0.011096992799661162
tp2957
(Vhongleili.blogspot.co.uk
p2958
F0.010588425476883283
tp2959
(Vportableappz.blogspot.co.uk
p2960
F0.008682119747727087
tp2961
(Vjandjalpacas.blogspot.co.uk
p2962
F0.006606792608650769
tp2963
(Vsuitcaseboy.blogspot.co.uk
p2964
F0.0065030737184372306
tp2965
(Vsliekje.blogspot.co.uk
p2966
F0.006483803155788567
tp2967
(Vyourcreativefuel.blogspot.co.uk
p2968
F0.006483803155788567
tp2969
(Vmonica-or.blogspot.co.uk
p2970
F0.006322861094645326
tp2971
(Vsleazybeats.blogspot.co.uk
p2972
F0.0062287104622871054
tp2973
(Vquickshout.blogspot.co.uk
p2974
F0.005905511811023622
tp2975
(Vblogger.co.uk
p2976
F0.00456841015757446
tp2977
tp2978
s((S'lwn.net'
p2979
tp2980
(ttp2981
((Vsuccessfulsoftware.net
p2982
F0.005252112500049234
tp2983
(Vlinuxfr.org
p2984
F0.004822843418206723
tp2985
(Vghzl.co
p2986
F0.0034472746606284085
tp2987
(Vphoronix.com
p2988
F0.002768949835679411
tp2989
(Vlinux-bg.org
p2990
F0.0026851094101852297
tp2991
(Vbugs.freedesktop.org
p2992
F0.002523399741763606
tp2993
(Vrt.wiki.kernel.org
p2994
F0.002237663304438635
tp2995
(Vrajalanetti.com
p2996
F0.002206267253682163
tp2997
(Vsimepar.br
p2998
F0.0018997695554617766
tp2999
(Vlxer.com
p3000
F0.0016418547532840177
tp3001
(Vplanet.postgresql.org
p3002
F0.0016138535921117138
tp3003
(Vnorrod.nl
p3004
F0.0014726421294774892
tp3005
(Vwebmail.delaval.com
p3006
F0.001380474439094912
tp3007
(Velementarynow.com
p3008
F0.0012930064543167485
tp3009
(Vusers.csc.calpoly.edu
p3010
F0.001283081096542379
tp3011
(Vbeyond3d.com
p3012
F0.0012644611077741394
tp3013
(V100ask.org
p3014
F0.0012163660952326189
tp3015
(Vanandtech.com
p3016
F0.001147878137408774
tp3017
(Vohjelmointiputka.net
p3018
F0.00110908323285851
tp3019
(Vwebmail.alltele.net
p3020
F0.0010886146327560872
tp3021
tp3022
s((S'keyvalue.org'
p3023
tp3024
(ttp3025
((Vrubygems.org
p3026
F1.8680492428768945e-05
tp3027
(Vgithub.com
p3028
F3.475709217831192e-07
tp3029
tp3030
s((S'alibaba.com'
p3031
tp3032
(ttp3033
(ts((S'mobileread.com'
p3034
tp3035
(ttp3036
(ts((S'alpha46.com'
p3037
tp3038
(ttp3039
(ts((S'oracle-base.com'
p3040
tp3041
(ttp3042
(ts((S'alpha43.com'
p3043
tp3044
(ttp3045
(ts((S'alpha0.com'
p3046
tp3047
(ttp3048
(ts((S'beta9.com'
p3049
tp3050
(ttp3051
(ts((S'caltech.edu'
p3052
tp3053
(ttp3054
(ts((S'sarasoueidan.com'
p3055
tp3056
(ttp3057
(ts((S'mozilla.org'
p3058
tp3059
(ttp3060
((Vtrovi.com
p3061
F0.003908185540139704
tp3062
(Vastromenda.com
p3063
F0.003661281447262505
tp3064
(Vdefault-search.net
p3065
F0.003546628603773007
tp3066
(Vyandex.ru
p3067
F0.003418356746361168
tp3068
(Vhome.tb.ask.com
p3069
F0.002485574080687845
tp3070
(Vmystartsearch.com
p3071
F0.002372836999030979
tp3072
(Vgroovorio.com
p3073
F0.0021940789678751077
tp3074
(Vcr4.gogorithm.com
p3075
F0.0014396275046440782
tp3076
(Vistartsurf.com
p3077
F0.001407008639371235
tp3078
(Vcr2.gogorithm.com
p3079
F0.0011775681487276746
tp3080
(Vvosteran.com
p3081
F0.0011286580230675245
tp3082
(Vupdatesoftnow.com
p3083
F0.0011115485450116163
tp3084
(Vsearch.yahoo.com
p3085
F0.0010762443747588434
tp3086
(Vsweet-page.com
p3087
F0.0009996025717427229
tp3088
(Vhd-plugin.com
p3089
F0.0009837360668146014
tp3090
(Vget.adobe.com
p3091
F0.0008646924779831686
tp3092
(Vcij.campaignism.com
p3093
F0.0007996086228882707
tp3094
(Vieonline.microsoft.com
p3095
F0.0007893274514678609
tp3096
(Vaz307127.vo.msecnd.net
p3097
F0.0007404118225709963
tp3098
tp3099
s((S'wolframalpha.com'
p3100
tp3101
(ttp3102
((Vwebassign.net
p3103
F0.006517849643425926
tp3104
(Vmathworld.wolfram.com
p3105
F0.003393997804121385
tp3106
(Vtutorial.math.lamar.edu
p3107
F0.0032305370516692486
tp3108
(Vmathxl.com
p3109
F0.002903553433297141
tp3110
(Vsymbolab.com
p3111
F0.0026494218523835946
tp3112
(Vpurplemath.com
p3113
F0.0023617804926934385
tp3114
(Vquest.cns.utexas.edu
p3115
F0.0022502976628350187
tp3116
(Vmath.stackexchange.com
p3117
F0.0021096126650983816
tp3118
(Vdesmos.com
p3119
F0.0016572406004577939
tp3120
(Vchegg.com
p3121
F0.0011195735650166758
tp3122
(Vmathway.com
p3123
F0.0008791764257050895
tp3124
tp3125
s((S'alpha24.com'
p3126
tp3127
(ttp3128
(ts((S'astralapp.com'
p3129
tp3130
(ttp3131
(ts((S'codinghorror.com'
p3132
tp3133
(ttp3134
(ts((S'lego.com'
p3135
tp3136
(ttp3137
(ts((S'alpha32.com'
p3138
tp3139
(ttp3140
(ts((S'shawarma-time.com'
p3141
tp3142
(ttp3143
(ts((S'alpha38.com'
p3144
tp3145
(ttp3146
(ts((S'alpha31.com'
p3147
tp3148
(ttp3149
(ts((S'practicingruby.com'
p3150
tp3151
(ttp3152
((Velmcitycraftworks.org
p3153
F0.023109641123805664
tp3154
(Vhartsem.edu
p3155
F0.01576023487552252
tp3156
(Vvdumoulin.github.io
p3157
F0.014616148715765574
tp3158
(Vblog.rubybestpractices.com
p3159
F0.014336265722118734
tp3160
(Vletter.ly
p3161
F0.009270472292980331
tp3162
(Vfabioanselmo.github.io
p3163
F0.007632800412583806
tp3164
(Vnas.int.stangl.co.za
p3165
F0.006892014145900156
tp3166
(Vpracticalruby.com
p3167
F0.006233190950798924
tp3168
(Vjamesfriend.com.au
p3169
F0.004684389272748566
tp3170
(Vdevblog.avdi.org
p3171
F0.0029803058169662632
tp3172
(Vrubytechlist.com
p3173
F0.0027833693680260445
tp3174
(Vstats.fanjas.com
p3175
F0.002452099050482813
tp3176
(Vcodon.com
p3177
F0.002302760390183461
tp3178
(Vtestingeducation.org
p3179
F0.0022754087308275747
tp3180
(Vherdt.de
p3181
F0.0022693966419629025
tp3182
(Vrubyoffrails.com
p3183
F0.0021707508112341948
tp3184
(Vcodecoreyvr.slack.com
p3185
F0.001842643106583627
tp3186
(Vdaniel.haxx.se
p3187
F0.0017404757300328755
tp3188
(Vschibsted.service-now.com
p3189
F0.0012539919721074684
tp3190
(Vallin.qiita.com
p3191
F0.0011750421056754533
tp3192
tp3193
s((S'metaskills.net'
p3194
tp3195
(ttp3196
((Vctshryock.com
p3197
F0.016547468798205022
tp3198
(Vredmine.bikecityguide.org
p3199
F0.0021527305687740767
tp3200
(Vatendesign.atlassian.net
p3201
F0.0003169074849782714
tp3202
(Vcoderwall.com
p3203
F0.00021703084325282697
tp3204
(Vphantomjs.org
p3205
F0.00013313754282917278
tp3206
(Vhttpd.apache.org
p3207
F1.5940797752535055e-05
tp3208
(Vgithub.com
p3209
F3.3243081757242964e-06
tp3210
(Vduckduckgo.com
p3211
F1.0081056908941716e-06
tp3212
(Vtrello.com
p3213
F9.761391994511724e-07
tp3214
(Vstartpage.com
p3215
F6.875454166190843e-07
tp3216
(Vstackoverflow.com
p3217
F3.0192988684047274e-07
tp3218
(Vtweetdeck.twitter.com
p3219
F1.599518661211605e-07
tp3220
(Vbing.com
p3221
F9.369324416725723e-08
tp3222
(Vgoogle.com.sg
p3223
F5.183408317133579e-08
tp3224
tp3225
s((S'ureddit.com'
p3226
tp3227
(ttp3228
((Vbeginnerscpp.com
p3229
F0.006572671888598781
tp3230
(Vfatsecret.com.au
p3231
F0.004678948612723494
tp3232
(V3pod.com.au
p3233
F0.004578399016372226
tp3234
(Vdev.solita.fi
p3235
F0.00436173082109968
tp3236
(Vwebcourseworks.com
p3237
F0.003127216921718232
tp3238
(Vthehybridathlete.com
p3239
F0.0023514834745883392
tp3240
(Vtelecommuterjobs.net
p3241
F0.002200164380097364
tp3242
(Vlocal.brookings.k12.sd.us
p3243
F0.002117690013996227
tp3244
(Vevasdigital.co
p3245
F0.0018805682450380422
tp3246
(Vuniversityofreddit.com
p3247
F0.0013201869970415694
tp3248
(Vludosoul.wordpress.com
p3249
F0.0012700212020068434
tp3250
(Vmole-reads.tumblr.com
p3251
F0.0012221340955459448
tp3252
(Vwipp.energy.gov
p3253
F0.001025010250102501
tp3254
(Vmail.yoox.biz
p3255
F0.0010156743254000932
tp3256
(Vapexbookcompany.com
p3257
F0.0010100822701702092
tp3258
(Vcodeception.com
p3259
F0.0009424400667020082
tp3260
(Vincidentalcomplexity.com
p3261
F0.0009344921035417251
tp3262
(Vdogfalo.github.io
p3263
F0.0009123859517560306
tp3264
(Vacsf.com.au
p3265
F0.0008911864087341653
tp3266
(Vwindenergyfoundation.org
p3267
F0.0008400938928468477
tp3268
tp3269
s((S'paulund.co.uk'
p3270
tp3271
(ttp3272
((Vdesignfloat.com
p3273
F0.014682317874154185
tp3274
(Vtikslus.com
p3275
F0.009972109256922046
tp3276
(Vtuflow.com
p3277
F0.00941413071944854
tp3278
(Vthemeswordpressfree.com
p3279
F0.0064874181764638375
tp3280
(V1dex.ch
p3281
F0.005137631363583222
tp3282
(Vcodingfusion.com
p3283
F0.005027579500723988
tp3284
(Vwp-tips.net
p3285
F0.004666974061316192
tp3286
(Vdanangsmartphone.vn
p3287
F0.004652234916816997
tp3288
(Vtak.ee
p3289
F0.004626630229509653
tp3290
(Venjoycss.com
p3291
F0.004177601750527054
tp3292
(Ve-kitap.org
p3293
F0.004108657082764539
tp3294
(Vpurecssmenu.com
p3295
F0.0039179659775167705
tp3296
(Vccs.seemysite.us
p3297
F0.003615513921040149
tp3298
(Vpro.agence-hybrid.com
p3299
F0.003342605497371602
tp3300
(Vhobium.com
p3301
F0.003266090976893467
tp3302
(Vwplift.com
p3303
F0.0028646937118022783
tp3304
(Vsimplemediacode.info
p3305
F0.002693832260479542
tp3306
(Vcubic-bezier.com
p3307
F0.002685931857532827
tp3308
(Vleagueoflegends-wiki.com
p3309
F0.00265266660471949
tp3310
(Vgmgcongress.com
p3311
F0.0025931240388389495
tp3312
tp3313
s((S'alpha45.com'
p3314
tp3315
(ttp3316
(ts((S'.'
p3317
tp3318
(ttp3319
(ts((S'alpha17.com'
p3320
tp3321
(ttp3322
(ts((S'somethingpositive.com'
p3323
tp3324
(ttp3325
((Vsomethingpostive.net
p3326
F0.05551369002763124
tp3327
(Vjezebel.com
p3328
F4.424084024843979e-06
tp3329
(Vsmbc-comics.com
p3330
F3.576337317918497e-06
tp3331
(Vamazon.co.uk
p3332
F2.8458752349683427e-07
tp3333
(Vtwitter.com
p3334
F1.9658182515494668e-08
tp3335
(Vreddit.com
p3336
F1.4299505429861048e-08
tp3337
tp3338
s((S'thoughtbot.com'
p3339
tp3340
(ttp3341
((Vupcase.com
p3342
F0.024989667086915485
tp3343
(Vformkeep.com
p3344
F0.014646203355550037
tp3345
(Vjameschambers.co
p3346
F0.008357425242515544
tp3347
(Vtammersaleh.com
p3348
F0.004943316112993391
tp3349
(Vhoundci.com
p3350
F0.004806836698868746
tp3351
(Vsiyelo.com
p3352
F0.002945051927677963
tp3353
(Vgiantrobots.fm
p3354
F0.00211715962498671
tp3355
(Vmapsdesign.tumblr.com
p3356
F0.002099795643319399
tp3357
(Vapeth.com
p3358
F0.0019577595682550466
tp3359
(Vdevblog.avdi.org
p3360
F0.0019100218616960073
tp3361
(Vacademicwork.se
p3362
F0.0017322341701425485
tp3363
(Vrinse.io
p3364
F0.001560292892647523
tp3365
(Vatomic.io
p3366
F0.0014838520150369518
tp3367
(Vmartialcodex.com
p3368
F0.0014348262119961987
tp3369
(Vlvh.me
p3370
F0.0013953332488518147
tp3371
(Vbrightnewt.com
p3372
F0.0013170589638774016
tp3373
(Vsetentaydos.com
p3374
F0.0012088216882618495
tp3375
(Vryanterry.net
p3376
F0.0011578899857040137
tp3377
(Vdrp.io
p3378
F0.0011536686663590216
tp3379
(Vlaurium.nusii.com
p3380
F0.001150569134284429
tp3381
tp3382
s((S'alpha7.com'
p3383
tp3384
(ttp3385
(ts((S'oranlooney.com'
p3386
tp3387
(ttp3388
((Vnpmjs.org
p3389
F9.37878187396508e-06
tp3390
(Vsearch.disconnect.me
p3391
F2.222519934059104e-06
tp3392
(Vgithub.com
p3393
F1.2404606312831473e-07
tp3394
(Vgoogle.com.ua
p3395
F1.1512227389007056e-07
tp3396
(Vbing.com
p3397
F4.6492935284599696e-08
tp3398
tp3399
s((S'alpha23.com'
p3400
tp3401
(ttp3402
(ts((S'theoldreader.com'
p3403
tp3404
(ttp3405
((Vcluborlov.blogspot.com.br
p3406
F0.001629483712195623
tp3407
(Vhome.nielskim.nl
p3408
F0.001583765973314186
tp3409
(Vboards.cruisecritic.com
p3410
F0.001485453300561661
tp3411
(Vdtmpower.net
p3412
F0.0014122945690184302
tp3413
(Vmail.luetzen.dk
p3414
F0.0011100585027773505
tp3415
(Vportal.filadelfia.br
p3416
F0.0008692568306636837
tp3417
(Vgigabitescafe.com
p3418
F0.0007618165206089385
tp3419
(Vdelphifeeds.com
p3420
F0.0005999661440565003
tp3421
(Vbrusselnieuws.be
p3422
F0.0005860492509324877
tp3423
(Vtheaquilareport.com
p3424
F0.0005821878023734192
tp3425
(Vradionacional.com.ar
p3426
F0.0005543664620062667
tp3427
(Vvott.ru
p3428
F0.0004978213381410596
tp3429
(Vunz.com
p3430
F0.0004920895591088345
tp3431
(Vone.npr.org
p3432
F0.0004875921931996698
tp3433
(Vforum.pdnk.org
p3434
F0.00046894424078728703
tp3435
(Vwebmail.wmich.edu
p3436
F0.0004127460638011333
tp3437
(Vylilauta.org
p3438
F0.0003986461030724298
tp3439
(Vivorytower.com
p3440
F0.0003872626065568982
tp3441
(Vhomebrewchatter.com
p3442
F0.0003844828465516838
tp3443
(Vs126-pl.ogame.gameforge.com
p3444
F0.0003813682539531203
tp3445
tp3446
s((S'docks.qc.ca'
p3447
tp3448
(ttp3449
((Vgoogle.com
p3450
F1.8234564997169045e-08
tp3451
tp3452
s((S'pow.cx'
p3453
tp3454
(ttp3455
(ts((S'github.com'
p3456
tp3457
(ttp3458
((Vcode.google.com
p3459
F0.00407012608671127
tp3460
(Vrubygems.org
p3461
F0.0035773462484789457
tp3462
(Vraw.githubusercontent.com
p3463
F0.0034577717855745157
tp3464
(Vstackoverflow.com
p3465
F0.003441503954031439
tp3466
(Vbitbucket.org
p3467
F0.003385212782873444
tp3468
(Vnpmjs.org
p3469
F0.002854017136546961
tp3470
(Vpypi.python.org
p3471
F0.002706602897481004
tp3472
(Vnews.ycombinator.com
p3473
F0.0019993154488276
tp3474
(Vgit-scm.com
p3475
F0.0019871032599025357
tp3476
(Vdocs.angularjs.org
p3477
F0.0012442907118560913
tp3478
(Vhaxiomic.github.io
p3479
F0.0006659055953985048
tp3480
(Vpivotaltracker.com
p3481
F0.0005625324970995607
tp3482
tp3483
s((S'stackoverflow.com'
p3484
tp3485
(ttp3486
(ts((S'youtube.com'
p3487
tp3488
(ttp3489
(ts((S'speakerdeck.com'
p3490
tp3491
(ttp3492
((Vdemo.coffee-themes.com
p3493
F0.0039671592074744305
tp3494
(Vspeakerd.s3.amazonaws.com
p3495
F0.0031840326414409345
tp3496
(Vstartupsmart.com.au
p3497
F0.0024248497613811744
tp3498
(Vmaddisondesigns.com
p3499
F0.0023298317533521225
tp3500
(Vthemes-lab.com
p3501
F0.0022676382593878877
tp3502
(Vfontstruct.com
p3503
F0.0022317005850366494
tp3504
(Vreadability.com
p3505
F0.002135284711928032
tp3506
(Vadmin.smartphone.userlocal.jp
p3507
F0.002003364625203868
tp3508
(Vbagtheweb.com
p3509
F0.001999111954713731
tp3510
(Vclickwork7network.com
p3511
F0.0017965561747034368
tp3512
(Vinteractly.com
p3513
F0.0017284060116690148
tp3514
(Vtest.proxistore.com
p3515
F0.001579048509965591
tp3516
(Vrajhimself.com
p3517
F0.0013000119296729658
tp3518
(Vcodecondo.com
p3519
F0.001220573693455316
tp3520
(Vcss-happylife.com
p3521
F0.0011575611844464764
tp3522
(Vaneventapart.com
p3523
F0.0011068669516008853
tp3524
(Vmaketea.co.uk
p3525
F0.0009992090820833237
tp3526
(V960.gs
p3527
F0.0009955768862741556
tp3528
(Vgrapplemobile.atlassian.net
p3529
F0.000977010403519926
tp3530
(Vadmin.taggedpdf.com.au
p3531
F0.0008888000838847269
tp3532
tp3533
s((S'javascriptkit.com'
p3534
tp3535
(ttp3536
(ts((S'mortgagecalculator.org'
p3537
tp3538
(ttp3539
((Vmlstoledo.com
p3540
F0.002289881028527568
tp3541
(Vecf.ganb.uscourts.gov
p3542
F0.002150350332913875
tp3543
(Vsef.fusionmls.com
p3544
F0.0017126636580814146
tp3545
(Vnom.fusionmls.com
p3546
F0.0012663389234897188
tp3547
(Vmoneychimp.com
p3548
F0.0010296039907220602
tp3549
(Vnexusthemes.com
p3550
F0.0009361985436735829
tp3551
(Vluminouswm.com
p3552
F0.0007395303318144178
tp3553
(Vtn-murfreesboro.civicplus.com
p3554
F0.0007395303318144178
tp3555
(Vturquoisekosherfish.com
p3556
F0.0007395303318144178
tp3557
(Vtour.nneren.previsite.com
p3558
F0.0007377367825841108
tp3559
(Vpopville.wpengine.netdna-cdn.com
p3560
F0.0007369530082134957
tp3561
(Vstjosephcountyindiana.com
p3562
F0.0007309605565805052
tp3563
(Vbestplaces.coldwellbanker.com
p3564
F0.0007305960044710725
tp3565
(Vloftplace.com
p3566
F0.0007303300151423214
tp3567
(Vmyutahnest.com
p3568
F0.0007207697129977007
tp3569
(Vmatrix.carolinamls.com
p3570
F0.0006728210371216791
tp3571
(Vatproperties.com
p3572
F0.0004691549728514806
tp3573
(Vmatrix.mlslistings.com
p3574
F0.00043129308413106487
tp3575
(Vbrighton-exchange.com
p3576
F0.0003896827677490704
tp3577
(Vmortgagcalculator.org
p3578
F0.0003896827677490704
tp3579
tp3580
s((S'stackexchange.com'
p3581
tp3582
(ttp3583
((Vdrupal.org
p3584
F0.0018087338073138374
tp3585
(Vsuperuser.com
p3586
F0.0017565770216195539
tp3587
(Vstackoverflow.com
p3588
F0.0017298447513904261
tp3589
(Vexchange.jacobs-university.de
p3590
F0.0017227839744996746
tp3591
(Vencrypted.google.com
p3592
F0.0016974100217127502
tp3593
(Vstartpage.com
p3594
F0.0011022911608110297
tp3595
(Vknightsandmerchants.net
p3596
F0.0010559136442041205
tp3597
(Vcourses.edx.org
p3598
F0.0009489679492966093
tp3599
(Vwen.lu
p3600
F0.0007011318157478892
tp3601
(Vdev53.mainlinemenswear.co.uk
p3602
F0.0004911855144103377
tp3603
(Vbodytonicmusic.com
p3604
F0.0004665108146013598
tp3605
(Vwpsites.net
p3606
F0.00045658378453616134
tp3607
(Vmathoverflow.net
p3608
F0.00038500259922329095
tp3609
(Vbuildwithcraft.com
p3610
F0.00036671354486146547
tp3611
(Vshkspr.mobi
p3612
F0.00034314590131385466
tp3613
tp3614
s((S'livejournal.com'
p3615
tp3616
(ttp3617
((Vlenta.ru
p3618
F0.007630193552149961
tp3619
(Vecho.msk.ru
p3620
F0.005440124097184883
tp3621
(Vnewsru.com
p3622
F0.00489071664256173
tp3623
(Vrusvesna.su
p3624
F0.0048745836111702455
tp3625
(Vartlebedev.ru
p3626
F0.00466291265138468
tp3627
(Vnavalny.com
p3628
F0.004605537564307319
tp3629
(Vgazeta.ru
p3630
F0.004564734729053364
tp3631
(Vexler.ru
p3632
F0.004269929777672117
tp3633
(Vrbc.ru
p3634
F0.004190171181083074
tp3635
(Vvoicesevas.ru
p3636
F0.0032223065289894
tp3637
(Vd3.ru
p3638
F0.0009741109205437652
tp3639
tp3640
s((S'rubyonrails.org'
p3641
tp3642
(ttp3643
((Vapidock.com
p3644
F0.011397494420702052
tp3645
(Vrubygems.org
p3646
F0.008203633250278028
tp3647
(Vgotealeaf.com
p3648
F0.005455874526601032
tp3649
(Vrailstutorial.org
p3650
F0.004871535033275358
tp3651
(Vruby-doc.org
p3652
F0.004805262911288739
tp3653
(Vruby-forum.com
p3654
F0.004490223826882239
tp3655
(Vruby-lang.org
p3656
F0.0032113084093923576
tp3657
(Vbloc.io
p3658
F0.00318059571273871
tp3659
(Vreinteractive.net
p3660
F0.001720967333430777
tp3661
(Vrelishapp.com
p3662
F0.0013700371245817546
tp3663
(Vjira.greenmile.com
p3664
F0.0012420964931221224
tp3665
(Vamberbit.com
p3666
F0.0011787522780099952
tp3667
(Vruby-china.org
p3668
F0.000915150624069657
tp3669
(Vrails.org
p3670
F0.0008464418997255876
tp3671
(Vrailsforzombies.org
p3672
F0.0007531036531073972
tp3673
tp3674
s((S'fabiensanglard.net'
p3675
tp3676
(ttp3677
((Vnom.com
p3678
F0.016733385481372414
tp3679
(Vmeet.emulex.com
p3680
F0.009327642729015897
tp3681
(Vemulex.my.salesforce.com
p3682
F0.009142718564326422
tp3683
(Vasicweb.emulex.com
p3684
F0.007491289198606272
tp3685
(Vopenhighschoolcourses.org
p3686
F0.006642895061989392
tp3687
(Vneilblevins.com
p3688
F0.004470560344097675
tp3689
(Vlinor.fr
p3690
F0.0038202984095753404
tp3691
(Vhmsconfluence.activision.com
p3692
F0.003148796306750467
tp3693
(Vdevinsmith.net
p3694
F0.002372270790317621
tp3695
(Vhobbygamedev.com
p3696
F0.0022267112008906844
tp3697
(Vthink-like-a-git.net
p3698
F0.002052212874160923
tp3699
(Vgamedev.stackexchange.com
p3700
F0.0019690283982804094
tp3701
(Vgp32spain.com
p3702
F0.0015787369595053969
tp3703
(Vsda.se
p3704
F0.0014976407646989833
tp3705
(Vbenefitsmedical.com
p3706
F0.0014063662602922299
tp3707
(Vengineering.zenpayroll.com
p3708
F0.0013555184723144803
tp3709
(Vblog.yourkarma.com
p3710
F0.0011144507108844686
tp3711
(Vshoutem.slack.com
p3712
F0.0007275420982314113
tp3713
(Vwiki.mcselec.com
p3714
F0.0004583651642475172
tp3715
(Vopengl.org
p3716
F0.000321510536147959
tp3717
tp3718
s((S'batsov.com'
p3719
tp3720
(ttp3721
((Vblog.rust-lang.org
p3722
F0.0025602059117481963
tp3723
(Vskanev.com
p3724
F0.0022080608194980154
tp3725
(Vbarisyuksel.com
p3726
F0.0017846249100858622
tp3727
(Vclever-cloud.com
p3728
F0.0017729664335737266
tp3729
(Vbotnets.fr
p3730
F0.0017378253485524707
tp3731
(Vemacs.sexy
p3732
F0.0017151187719749593
tp3733
(Vohtatblog.wordpress.com
p3734
F0.0014208184846155637
tp3735
(Vthatthinginswift.com
p3736
F0.0005549820740790072
tp3737
(Vemacswiki.org
p3738
F0.000361288776960209
tp3739
(Vgamasutra.com
p3740
F7.182796042938065e-05
tp3741
(Vcreditkarma.com
p3742
F4.846935431658113e-05
tp3743
(Vde.reddit.com
p3744
F2.1918490506820317e-05
tp3745
(Vgithub.com
p3746
F9.564137939050661e-06
tp3747
(Vpluralsight.com
p3748
F7.698149584786948e-06
tp3749
(Vencrypted.google.com
p3750
F3.904554290440822e-06
tp3751
(Vstackoverflow.com
p3752
F2.7530196598198716e-06
tp3753
(Vsearch.disconnect.me
p3754
F1.452201017759609e-06
tp3755
(Vstartpage.com
p3756
F4.5705844497747614e-07
tp3757
(Vgoogle.com.br
p3758
F2.7313056986275865e-08
tp3759
tp3760
s.