(dp0
((S'nuclearsquid.com'
p1
tp2
(ttp3
((Vmolotang.com
p4
F0.025083419629501783
tp5
(Vcrucible.corp.appnexus.com
p6
F0.0014309814038058852
tp7
(Vanswers.perforce.com
p8
F0.000850176451716394
tp9
(Vruby-forum.com
p10
F0.00012045186657374666
tp11
(Vx.sankuai.com
p12
F7.04903956835881e-05
tp13
(Vpinboard.in
p14
F7.1203116432007166e-06
tp15
(Vtheverge.com
p16
F2.8217985580072086e-06
tp17
(Vsuperuser.com
p18
F1.8128071291828394e-06
tp19
(Vstackoverflow.com
p20
F7.170873291331439e-07
tp21
(V8tracks.com
p22
F4.5838400205375003e-07
tp23
(Vgoogle.com.ph
p24
F6.325116749043523e-08
tp25
(Vgithub.com
p26
F2.4893524466823384e-08
tp27
(Vgoogle.com
p28
F2.4395329918893198e-08
tp29
(Vmail.google.com
p30
F9.62054693148217e-09
tp31
(Vfacebook.com
p32
F3.2707786008337474e-10
tp33
tp34
s((S'mojotech.com'
p35
tp36
(ttp37
(ts((S'railsenvy.com'
p38
tp39
(ttp40
((Vproxylala.pw
p41
F0.07315634218289085
tp42
(Vafreshcup.wordpress.com
p43
F0.061630218687872766
tp44
(Vtheodinproject.com
p45
F0.000533130952642291
tp46
(Vforum.rubyonrails.pl
p47
F6.492624968274674e-05
tp48
(Vrailscasts.com
p49
F5.9049096962160154e-05
tp50
(Vkora-online.tv
p51
F5.540333318764308e-06
tp52
(Vyoutube.com
p53
F8.756484556477331e-10
tp54
tp55
s((S'python.org'
p56
tp57
(ttp58
((Vdjangopackages.com
p59
F0.028235770318671527
tp60
(Vdocs.djangoproject.com
p61
F0.011797606215775544
tp62
(Vpythonhosted.org
p63
F0.0072327330062755026
tp64
(Vwikidocs.net
p65
F0.00331444475734783
tp66
(Vnetworkx.github.io
p67
F0.0025721363577256035
tp68
(Vpython3wos.appspot.com
p69
F0.0017378741652830621
tp70
(Vconfluence.atlassian.com
p71
F0.001071124946390917
tp72
(Vpure-forum.org
p73
F0.0008837824192407215
tp74
(Vmoodle.macalester.edu
p75
F0.0007187880924060596
tp76
(Vdeveloper.foursquare.com
p77
F0.000605093370590939
tp78
(Vprogrammeerimine.cs.ut.ee
p79
F0.00043730836141456323
tp80
(Vtrailtiger.com
p81
F0.0004264912335899067
tp82
(Vvirtualenv.pypa.io
p83
F0.0004119807334448899
tp84
(Vliaoxuefeng.com
p85
F0.00039731681140257646
tp86
(Vpagekite.net
p87
F0.00038970019874352943
tp88
(Vh.yandex-team.ru
p89
F0.00032120697262060226
tp90
(Vreplicat.org
p91
F0.00030196437819484144
tp92
tp93
s((S'rydia.net'
p94
tp95
(ttp96
((Vsincomics.com
p97
F0.021359696539829148
tp98
(Vhalflightcomics.com
p99
F0.012060105220756076
tp100
(Vstoryofthedoor.com
p101
F0.012027073087597992
tp102
(Valexanderthekid.tumblr.com
p103
F0.01121503814021068
tp104
(Vdcisgoingtohell.com
p105
F0.010699820225692566
tp106
(Vdubiouscompany.com
p107
F0.008778554737132042
tp108
(Vushala.smackjeeves.com
p109
F0.007147921459680803
tp110
(Vtrue-magic.com
p111
F0.006756772051863651
tp112
(Veqcomics.com
p113
F0.004581133879620812
tp114
(Vteamheartgold.deviantart.com
p115
F0.0041985387859174265
tp116
(Veverblue-comic.com
p117
F0.004143634823308365
tp118
(Vforgottenordercomic.com
p119
F0.003456092237085129
tp120
(Vamyachronicles.com
p121
F0.0028932456769697056
tp122
(Vblackbird.ashen-ray.com
p123
F0.002813647717287217
tp124
(Vhttydireth-vespera.smackjeeves.com
p125
F0.0020531153005398485
tp126
(Vdigitalextremes.slack.com
p127
F0.0016468962340205
tp128
(Vblindsprings.com
p129
F0.001613013680589577
tp130
(Vteahousecomic.com
p131
F0.0013120810467020735
tp132
(Vgiginuzlocke.smackjeeves.com
p133
F0.0011640229070923036
tp134
(Vegscomics.com
p135
F0.0010893065517749412
tp136
tp137
s((S'pocketworx.com'
p138
tp139
(ttp140
(ts((S'penny-arcade.com'
p141
tp142
(ttp143
(ts((S'ruby-doc.org'
p144
tp145
(ttp146
((Vruby-lang.org
p147
F0.013201199696001907
tp148
(Vruby-forum.com
p149
F0.008747609502763641
tp150
(Vrubymonk.com
p151
F0.0066763845359754164
tp152
(Vapi.rubyonrails.org
p153
F0.005878717500206361
tp154
(Vpine.fm
p155
F0.0024445864869402467
tp156
(Vrubydoc.info
p157
F0.0018924510596828913
tp158
(Vpb.vanburg.ru
p159
F0.0016634643017226075
tp160
(Vcodewars.com
p161
F0.0013226159920880281
tp162
(Vfabricationgem.org
p163
F0.0012286729167879811
tp164
(Vrubydocs.org
p165
F0.0012119574037700268
tp166
(Vapidock.com
p167
F0.0010269281121975656
tp168
(Vmootools.net
p169
F0.0009992932546863443
tp170
(Vblog.remarkablelabs.com
p171
F0.0008252490196022697
tp172
(Valexa.bitmakerlabs.com
p173
F0.0008213445688254505
tp174
(Vbloc.io
p175
F0.0008046723518956768
tp176
(Vtlk.io
p177
F0.0008028277194664875
tp178
(Vit-ebooks-search.info
p179
F0.0007187965547440323
tp180
(Vrailstutorial.org
p181
F0.0006903101397194037
tp182
(Vget.wynk.in
p183
F0.000643192538966548
tp184
(Vhorizon.launchacademy.com
p185
F0.0006275973357841288
tp186
tp187
s((S'walla.co'
p188
tp189
(ttp190
((Vmspowerpack.com
p191
F0.00042286056172976963
tp192
(Vmslworld.egged.co.il
p193
F4.631610521254681e-05
tp194
(Vsimplestoolbar.com
p195
F4.4748032871714525e-05
tp196
(Vlink4u.co.il
p197
F8.555601488820286e-06
tp198
(Vpanet.co.il
p199
F2.0687343820870316e-06
tp200
(Vgoogle.co.il
p201
F1.3330927104853262e-06
tp202
(Vsearches.vi-view.com
p203
F1.4813106299849904e-07
tp204
(Vxnxx.com
p205
F9.644941531802667e-08
tp206
(Vmysearch.avg.com
p207
F3.890298355709239e-08
tp208
(Visearch.omiga-plus.com
p209
F3.272544785429898e-08
tp210
(Vistart.webssearches.com
p211
F2.1441877890798774e-08
tp212
(Vtrovi.com
p213
F1.6677189871460833e-08
tp214
(Vsweet-page.com
p215
F1.3795853007327792e-08
tp216
(Vmystartsearch.com
p217
F1.0474484448833913e-08
tp218
(Vvk.com
p219
F5.105423590911466e-09
tp220
(Vyoutube.com
p221
F5.776359629362245e-10
tp222
tp223
s((S'diasp.eu'
p224
tp225
(ttp226
((Vcybette.com
p227
F0.02790506560906111
tp228
(Vd.consumium.org
p229
F0.008538320796909941
tp230
(Vkolabsys.com
p231
F0.005063497897014986
tp232
(Vproverochka.businesscatalyst.com
p233
F0.00446202210729135
tp234
(Vawable.imgur.com
p235
F0.004351204351204351
tp236
(Vfantasylife.nintendo.com
p237
F0.004010262386895224
tp238
(Vpodupti.me
p239
F0.0020148652279036445
tp240
(Vforum.sportenter.co.il
p241
F0.001306915155467928
tp242
(Vfreefotohelp.ru
p243
F0.0008028673835125448
tp244
(Vfuckyouverymuch.dk
p245
F0.0004181940984847102
tp246
(Vredbox.com
p247
F4.213100135421364e-05
tp248
(Vnypost.com
p249
F1.7682904543184476e-05
tp250
(Vbeforeitsnews.com
p251
F1.6786280627496154e-05
tp252
(Vnaturalnews.com
p253
F1.2519575881711194e-05
tp254
(Vrus.postimees.ee
p255
F8.37074626064608e-06
tp256
(Vinfowars.com
p257
F8.345739769065305e-06
tp258
(Vya.ru
p259
F4.903540471922245e-06
tp260
(Vello.co
p261
F1.0571140123657e-06
tp262
(Vvimeo.com
p263
F7.446324075200837e-07
tp264
(Vwordpress.com
p265
F5.822044442670433e-07
tp266
tp267
s((S'nasa.gov'
p268
tp269
(ttp270
((Vnasa.jerusalem.com
p271
F0.0034835518377293096
tp272
(Vspaceweather.com
p273
F0.0033475442840786474
tp274
(Vspace.com
p275
F0.002945265177369104
tp276
(Vswpc.noaa.gov
p277
F0.002494603391767854
tp278
(Vesa.int
p279
F0.001361835042951779
tp280
(Vwhat-if.xkcd.com
p281
F0.0012732149429607702
tp282
(Vciclops.org
p283
F0.0012026940365659103
tp284
(Vcoasttocoastam.com
p285
F0.0011265697014438598
tp286
(Vmarssociety.de
p287
F0.00112391909362521
tp288
(Vweb.taskcracker.com
p289
F0.001026107590113099
tp290
(Vbibobuzz.com
p291
F0.0009696968425407064
tp292
(Vnanowerk.com
p293
F0.0008919591961055805
tp294
(Vbarnstormers.com
p295
F0.000739077425229431
tp296
(Vepod.usra.edu
p297
F0.000649929188302291
tp298
(Vroshihogan.blogspot.com
p299
F0.0006483939270824397
tp300
(Vsolarham.net
p301
F0.0006229008473932558
tp302
(Vharztourist.de
p303
F0.0005347227582500918
tp304
(Vgoehren-ruegen.de
p305
F0.0004998782773573379
tp306
(Vstats.mutu.sivit.org
p307
F0.0004962087088050525
tp308
tp309
s((S'sivers.org'
p310
tp311
(ttp312
((Vexamine.com
p313
F0.007219883173093456
tp314
(Vuwitechnology.com
p315
F0.006839846558005141
tp316
(Vtruefilms.com
p317
F0.0034328335396701663
tp318
(Vsitebeam.net
p319
F0.0032794691752359648
tp320
(Vdocs.withdraft.com
p321
F0.0030549495715956874
tp322
(Vmynavigatorweb.nl
p323
F0.0028599137643591107
tp324
(Vsingapore.recruit.net
p325
F0.0025840897233237402
tp326
(Vmarketplaceleaders.org
p327
F0.0025240834176874162
tp328
(Vblog.placeit.net
p329
F0.0020766650167739096
tp330
(Vkairosbio.com
p331
F0.0019437477085309572
tp332
(Vcenteroftheweb.com
p333
F0.0019412848515847046
tp334
(Valytadros.com
p335
F0.001937933895566251
tp336
(Vfullstackacademy.slack.com
p337
F0.0018748035385513495
tp338
(Vrailstutorial.org
p339
F0.0018368225687322617
tp340
(Vlintool.github.io
p341
F0.0018285739313244568
tp342
(Vhiretheworld.com
p343
F0.0018284838365313551
tp344
(Vadvancedlifeskills.com
p345
F0.0017834354092023132
tp346
(Vballcharts.com
p347
F0.0017386913484488426
tp348
(Vci.appveyor.com
p349
F0.001590201798643241
tp350
(Vblog.zackshapiro.com
p351
F0.0014996575814189902
tp352
tp353
s((S'github.io'
p354
tp355
(ttp356
((Vlukecarbis.github.io
p357
F0.019639527656929768
tp358
(Vbuke.github.io
p359
F0.013217398454201612
tp360
(Vbriangordon.github.io
p361
F0.009287699283311393
tp362
(Vgpeyre.github.io
p363
F0.008611401092566274
tp364
(V6889692.github.io
p365
F0.008225091134009764
tp366
(Vmattsharpe.github.io
p367
F0.00815808798985246
tp368
(Vkalakuh.github.io
p369
F0.007584589614740369
tp370
(Vstevejwikeley.github.io
p371
F0.00743578488101414
tp372
(Vgovlab.github.io
p373
F0.005946039187036417
tp374
(Vlopezrj.github.io
p375
F0.005642699636979904
tp376
(Vrweather.github.io
p377
F0.005466472303206997
tp378
(Vharrydeluxe.github.io
p379
F0.005292730375055698
tp380
(Vfavoorr.github.io
p381
F0.004616774648508087
tp382
(Vthink2011.github.io
p383
F0.004302731567056891
tp384
(Vlxc-webpanel.github.io
p385
F0.00421468554494567
tp386
(Viamtrask.github.io
p387
F0.003928938799817474
tp388
(Vgit.github.io
p389
F0.0037792006892635455
tp390
(Vjakiestfu.github.io
p391
F0.0036454348083036284
tp392
(Vigorescobar.github.io
p393
F0.0036386593204775024
tp394
(Vwxfengyun.github.io
p395
F0.0036010132128431577
tp396
tp397
s((S'extracheese.org'
p398
tp399
(ttp400
(ts((S'dropbox.com'
p401
tp402
(ttp403
((Vapp.box.com
p404
F0.0013404739791132872
tp405
(Vonedrive.live.com
p406
F0.0013325521252906328
tp407
(Vmail.google.com
p408
F0.0012791638643396106
tp409
(Vwetransfer.com
p410
F0.0012718690578820595
tp411
(Vdl.dropboxusercontent.com
p412
F0.001113213379752746
tp413
(Vbasecamp.com
p414
F0.0009847477842498521
tp415
(Vevernote.com
p416
F0.000911169342945063
tp417
(Vtrello.com
p418
F0.0007707266331317271
tp419
(Vgoo.gl
p420
F0.0005643067133763446
tp421
(Vapp.asana.com
p422
F0.0003447113809095475
tp423
(Vpastebin.com
p424
F0.0002867605076989273
tp425
(Vbit.ly
p426
F0.00028238188059720985
tp427
(Vdb.tt
p428
F0.00024846578865390364
tp429
(Vodesk.com
p430
F0.00023057830681953457
tp431
tp432
s((S'stackoverflow.com'
p433
tp434
(ttp435
(ts((S'cappuccino-project.org'
p436
tp437
(ttp438
(ts((S'w3schools.com'
p439
tp440
(ttp441
((Vw3school.com
p442
F0.011502063248230303
tp443
(Vinfo343.ischool.uw.edu
p444
F0.00222680914685972
tp445
(Vhackthissite.org
p446
F0.0020351576929919703
tp447
(Vw3.org
p448
F0.0016574297507289558
tp449
(Vkb.iu.edu
p450
F0.0013406884083077707
tp451
(Vspidermarks.com
p452
F0.0011385526915260464
tp453
(Vtutorialspoint.com
p454
F0.0009175821542880868
tp455
(Vpicoctf.com
p456
F0.0004549384568337717
tp457
(Vw3shools.com
p458
F0.00037857890125446626
tp459
(Vapi.jquery.com
p460
F0.0003059480826287719
tp461
(Vmarianocalvo.com
p462
F0.0002950192275021
tp463
(Vprofit.notice.nl
p464
F0.00028931787484113804
tp465
(Vinsight.ccsf.edu
p466
F0.00027594889236203874
tp467
(Vxps.pk4labs.com
p468
F0.0002748864938891834
tp469
(Vtoster.ru
p470
F0.00025806812375980776
tp471
(Vkarlstads.itslearning.com
p472
F0.00022547500963902747
tp473
(Vhtmlgoodies.com
p474
F0.00021626982800444284
tp475
tp476
s((S'surrey.ac.uk'
p477
tp478
(ttp479
((Vpod51031.outlook.com
p480
F0.0017963586262663706
tp481
(Vexchange.uml.edu
p482
F0.0016144286007902184
tp483
(Vproximity.instructure.com
p484
F0.0015774356511539845
tp485
(Vexchange.ict.usc.edu
p486
F0.0015382841826919614
tp487
(Vsavingcountrymusic.com
p488
F0.0014328752846817757
tp489
(Vkaggle.com
p490
F0.001367232926914554
tp491
(Vussu.co.uk
p492
F0.0012484564641502206
tp493
(Vsurrey.summon.serialssolutions.com
p494
F0.0012332027866896894
tp495
(Vthecompleteuniversityguide.co.uk
p496
F0.0009841707655122726
tp497
(Vuppmax.uu.se
p498
F0.0009450092846242944
tp499
(Vsurrey-uk.sona-systems.com
p500
F0.0008319067088646201
tp501
(Vukeas.com.tw
p502
F0.0007918761171179304
tp503
(Vlms.neumont.edu
p504
F0.0007807936079197472
tp505
(Vunitemps.com
p506
F0.0007186507649313663
tp507
(Vbda.uk.com
p508
F0.0007096719081631982
tp509
(Vcreativeplusonline.co.uk
p510
F0.0006779957155228734
tp511
(Vcancercentrelondon.co.uk
p512
F0.0006776894018489342
tp513
(Vgradintel.com
p514
F0.0006630566913471102
tp515
(Vprogramsinformationpeople.org
p516
F0.0005993082113115775
tp517
(Vemeraldinsight.com
p518
F0.0005816681288147595
tp519
tp520
s((S'iosreviews.net'
p521
tp522
(ttp523
((Vfilter.usd262.net
p524
F0.0006673834859664083
tp525
(Va3.mzstatic.com
p526
F7.803355442840422e-05
tp527
(Vappszoom.com
p528
F2.7909670351906058e-05
tp529
(Vvimeo.com
p530
F4.509971547090617e-07
tp531
(Vgoogle.com.my
p532
F1.679023567040801e-07
tp533
(Vencrypted.google.com
p534
F1.581442718563291e-07
tp535
(Vduckduckgo.com
p536
F1.2340433203180587e-07
tp537
(Vtwitch.tv
p538
F6.699834316704951e-08
tp539
(Vgoogle.com
p540
F1.7100833862031203e-08
tp541
tp542
s((S'superuser.com'
p543
tp544
(ttp545
((Vstackexchange.com
p546
F0.004099459401758269
tp547
(Vlibc6.org
p548
F0.0030590372069599944
tp549
(Vencrypted.google.com
p550
F0.001023749016786298
tp551
(Vstartpage.com
p552
F0.0008201129671354862
tp553
(Vxie.lu
p554
F0.0007714776591323591
tp555
(Vforum.transmissionbt.com
p556
F0.0007119466006968179
tp557
(Vsmartredirect.de
p558
F0.00047585572816905144
tp559
(Vserverfault.com
p560
F0.00047570928055575365
tp561
(Vaskubuntu.com
p562
F0.0004297365953529304
tp563
(Vvirtualrouter.codeplex.com
p564
F0.00036603824366120835
tp565
(Ventiteinconnue.com
p566
F0.0002567725344910978
tp567
(Vservice.whiteclarke.com
p568
F0.0002535906271887286
tp569
(Vnetmechanic.dyndns.org
p570
F0.000249944877301956
tp571
(Vsocial.technet.microsoft.com
p572
F0.0002398143987486882
tp573
(Vcode5gaming.com
p574
F0.00022645517687985438
tp575
(Vmxc.ru
p576
F0.00021803652826213085
tp577
(Vwen.lu
p578
F0.00021779296914272678
tp579
(Vkldp.org
p580
F0.0001614334562921192
tp581
tp582
s((S'regexper.com'
p583
tp584
(ttp585
((Vstats.wefra.de
p586
F0.01654884318766067
tp587
(Vservices.balihoo.com
p588
F0.011492809144005528
tp589
(Virchelp.org
p590
F0.009514896272032445
tp591
(Vbalihoo.wikispaces.com
p592
F0.008600634473034897
tp593
(Vconfig.whatsapp.net
p594
F0.008235261768587769
tp595
(Vope.comlocal.com
p596
F0.0054417942296446095
tp597
(Vex-parrot.com
p598
F0.005244206124024955
tp599
(Vscriptular.com
p600
F0.004299777068208656
tp601
(Vquovo.slack.com
p602
F0.004205529280171921
tp603
(Vslant.co
p604
F0.004089682490907161
tp605
(Vifconfig.me
p606
F0.003823109724905924
tp607
(Vjex.im
p608
F0.003593484437396034
tp609
(Vregexpal.com
p610
F0.003533949522620317
tp611
(Vredmine.nokaut.pl
p612
F0.003469110832330577
tp613
(Vmyezapp.com
p614
F0.0033483126266631424
tp615
(Vosslab.msopentech.cn
p616
F0.003287199672690848
tp617
(Vregexcrossword.com
p618
F0.0032797965438917417
tp619
(Vflockhart.virtualave.net
p620
F0.003141157502640796
tp621
(Vww1.regexp.com
p622
F0.0030955896640652257
tp623
(Vwisepilgrim.tk
p624
F0.0027548002769799186
tp625
tp626
s((S'foobar2000.org'
p627
tp628
(ttp629
((Vxiph.org
p630
F0.012560316380569403
tp631
(Vchromium.woolyss.com
p632
F0.00955818180112687
tp633
(Vnnc-board.com
p634
F0.008407273052412243
tp635
(Vseriosoft.org
p636
F0.00812328805121656
tp637
(Vifi-audio.com
p638
F0.00682673706152465
tp639
(Vthalassa.feralhosting.com
p640
F0.006206348719177406
tp641
(Vexactaudiocopy.de
p642
F0.0059219804079789435
tp643
(Vhydrogenaud.io
p644
F0.004881531371685709
tp645
(Vsrware.net
p646
F0.0038989963128243216
tp647
(Vopen-end-music.de
p648
F0.0028752770792993695
tp649
(Vforum.pskovonline.ru
p650
F0.002540252362730567
tp651
(Vforum.hdmovie.vn
p652
F0.0019178192491957236
tp653
(Vmassengeschmack.tv
p654
F0.0017078779488777472
tp655
(Vforums.ffshrine.org
p656
F0.001649445296546487
tp657
(Vsmsserver.itouchnet.co.za
p658
F0.0015547791300949707
tp659
(Vburrrn.net
p660
F0.0013273025950887873
tp661
(Vjenny317.pixnet.net
p662
F0.0010201545082112753
tp663
(V10file.com
p664
F0.0009778273268755075
tp665
tp666
s((S'ycombinator.com'
p667
tp668
(ttp669
((Vhackerne.ws
p670
F0.002258449013607999
tp671
(Vtechmeme.com
p672
F0.0012691820221576143
tp673
(Vnews.layervault.com
p674
F0.0009917455368117767
tp675
(Vproducthunt.com
p676
F0.0006783600822242837
tp677
(Vspacerogue.net
p678
F0.0006178246123912907
tp679
(Vxcortex.com
p680
F0.0005490919247667366
tp681
(Vblog.samaltman.com
p682
F0.00045371434238055064
tp683
(Vnautil.us
p684
F0.0004510529032547637
tp685
(Vnews.dbanotes.net
p686
F0.0003639712839933979
tp687
(Vlesswrong.com
p688
F0.00029064409138113845
tp689
(Vnikcub.com
p690
F0.00023565540621483204
tp691
(Vlobste.rs
p692
F0.00016749410462020464
tp693
(Vgwucolumbian.service-now.com
p694
F0.00015106314765607595
tp695
(Vdatatau.com
p696
F0.0001409348825942487
tp697
(Vnet-benefits.net
p698
F0.00013016942453237583
tp699
tp700
s((S'netdna-ssl.com'
p701
tp702
(ttp703
((Vservermat.info
p704
F0.015230253887760331
tp705
(Vfinedininglovers.com
p706
F0.007828688392923909
tp707
(Vblog.myfitnesspal.com
p708
F0.006571678856628307
tp709
(Vvisual.ly
p710
F0.005523052877933682
tp711
(Vredrow.co.uk
p712
F0.0054794740749505135
tp713
(Vgrainandmortar.com
p714
F0.005173594116386273
tp715
(Vskillsera.com
p716
F0.004438460562360511
tp717
(Vblank-box.net
p718
F0.003202477829561559
tp719
(Vkls-ukraine.com.ua
p720
F0.0026298015359082477
tp721
(Vfinerthings.in
p722
F0.002208584819772735
tp723
(Vhostedcloudy.com
p724
F0.001929990552717578
tp725
(Vzino.im
p726
F0.0017095925364803445
tp727
(Vsram.com
p728
F0.0015705995916889095
tp729
(Vs1magnettvcom.maynemyltf.netdna-cdn.com
p730
F0.0013414146062946583
tp731
(Vhomepath.com
p732
F0.0010985648416592306
tp733
(Vagents.equator.com
p734
F0.000992105542015471
tp735
(Vnewhdplugin.net
p736
F0.0006650805674776797
tp737
(Virvsluggage.com
p738
F0.0006295881279719576
tp739
(Vcool-tv.net
p740
F0.0006268836631248746
tp741
(Vbettielou.blogspot.com
p742
F0.0005037569778605635
tp743
tp744
s((S'theenchanter.com'
p745
tp746
(ttp747
(ts((S'mashable.com'
p748
tp749
(ttp750
((Vtechcrunch.com
p751
F0.003269554441150279
tp752
(Vthenextweb.com
p753
F0.0020893059576553882
tp754
(Vtheverge.com
p755
F0.0011964644051488723
tp756
(Vengadget.com
p757
F0.0011541180149668715
tp758
(Vwired.com
p759
F0.0010062199169788152
tp760
(Vt.co
p761
F0.001000532665223137
tp762
(Vgizmodo.com
p763
F0.0008873288390789227
tp764
(Vbusinessinsider.com
p765
F0.0007152040206950399
tp766
(Vdigg.com
p767
F0.0005093257403694798
tp768
(Vmacrumors.com
p769
F0.00048813763950878304
tp770
(Vfastcompany.com
p771
F0.0004186323234047929
tp772
(Varstechnica.com
p773
F0.00036950639928100704
tp774
(Vfeedly.com
p775
F0.000247658170357474
tp776
tp777
s((S'designtaxi.com'
p778
tp779
(ttp780
((Vnaturpixel.com
p781
F0.002525569674668886
tp782
(Vresearch.facebook.com
p783
F0.0024447558932316087
tp784
(Vmrhyde.com
p785
F0.002101027503719101
tp786
(Vpurpleheart.org
p787
F0.0015727754663803514
tp788
(Vedpuzzle.com
p789
F0.0014091455933541925
tp790
(Vallenby-pratt.com
p791
F0.0012811653560782217
tp792
(Valiciavera.com
p793
F0.0012265785229286553
tp794
(Vtheinspiration.com
p795
F0.0011984722954081271
tp796
(Vmodernhousemagazine.com
p797
F0.0011556103820603895
tp798
(Vhaebc.com
p799
F0.0011554678439678909
tp800
(Vhep.eiz.jp
p801
F0.0011284011989747447
tp802
(Vsomethingcomics.tumblr.com
p803
F0.001076472847460011
tp804
(Vmensstyleadvice.com
p805
F0.0010069390317375387
tp806
(Vjobisjob.de
p807
F0.0009852059176329467
tp808
(Vassets.gecapital.com.au
p809
F0.0009332437835811571
tp810
(Vcreativereview.co.uk
p811
F0.000928881838058707
tp812
(Vzombiesamurai.pl
p813
F0.0009227463467303423
tp814
(Vecsediekszer.hu
p815
F0.0008745579998976046
tp816
(Vkarne.pl
p817
F0.0008697854085080444
tp818
(Vilghirlandaio.com
p819
F0.000848768909519732
tp820
tp821
s((S'jasonseifer.com'
p822
tp823
(ttp824
((Vauto.pubtest.internal.33across.com
p825
F0.01332036660478001
tp826
(Vjuanpabloprado.com
p827
F0.007676274719129683
tp828
(Vpichost.me
p829
F0.00024074733939569222
tp830
(Vteamtreehouse.com
p831
F0.00023630208318629474
tp832
(Vmartinfowler.com
p833
F8.655217132744378e-05
tp834
(Vraindrop.io
p835
F2.303324849420138e-05
tp836
(Vdigitalocean.com
p837
F5.704592440587661e-06
tp838
(Vencrypted.google.com
p839
F2.6578255453102915e-06
tp840
(Vpivotaltracker.com
p841
F8.601690807198737e-07
tp842
(Vstackoverflow.com
p843
F7.90829840897358e-07
tp844
(Vb.hatena.ne.jp
p845
F3.9690572298361973e-07
tp846
(Vgithub.com
p847
F8.47725944524667e-08
tp848
tp849
s((S'metaskills.net'
p850
tp851
(ttp852
((Vctshryock.com
p853
F0.016547468798205022
tp854
(Vredmine.bikecityguide.org
p855
F0.0021527305687740767
tp856
(Vatendesign.atlassian.net
p857
F0.0003169074849782714
tp858
(Vcoderwall.com
p859
F0.00021703084325282697
tp860
(Vphantomjs.org
p861
F0.00013313754282917278
tp862
(Vhttpd.apache.org
p863
F1.5940797752535055e-05
tp864
(Vgithub.com
p865
F3.3243081757242964e-06
tp866
(Vduckduckgo.com
p867
F1.0081056908941716e-06
tp868
(Vtrello.com
p869
F9.761391994511724e-07
tp870
(Vstartpage.com
p871
F6.875454166190843e-07
tp872
(Vstackoverflow.com
p873
F3.0192988684047274e-07
tp874
(Vtweetdeck.twitter.com
p875
F1.599518661211605e-07
tp876
(Vbing.com
p877
F9.369324416725723e-08
tp878
(Vgoogle.com.sg
p879
F5.183408317133579e-08
tp880
tp881
s((S'overapi.com'
p882
tp883
(ttp884
((Vapis.pw
p885
F0.007200668343131401
tp886
(Vtroy.labs.daum.net
p887
F0.00701409345452805
tp888
(V121down.com
p889
F0.005797076194085878
tp890
(Vbullium.com
p891
F0.005647792665666607
tp892
(Vpittalis.hostings.co.uk
p893
F0.005007780530559443
tp894
(Vwebmail.garmin.com
p895
F0.004804957073805288
tp896
(Vbumpsdocumentarily.squarespace.com
p897
F0.004158373405198481
tp898
(Vorays.wd-works.com
p899
F0.004110381077529567
tp900
(Vbootgraph.net
p901
F0.004030362627239939
tp902
(Vredmine.infogene.fr
p903
F0.0034291946192749156
tp904
(Vmitarbeiter.hs-heilbronn.de
p905
F0.003285460978893482
tp906
(Vnote-pad.net
p907
F0.0032399080437864043
tp908
(Vupsideos.com
p909
F0.0032079887740138428
tp910
(Vscm.ulster.ac.uk
p911
F0.002922858853657464
tp912
(Vibmwebsphereportalserver.blogspot.pt
p913
F0.0026748188381356852
tp914
(Vytub3.com
p915
F0.0026007381348067253
tp916
(Vvertical3w.teamwork.com
p917
F0.002595337661272785
tp918
(Vfindpatent.ru
p919
F0.0025676768503163972
tp920
(Vcheat-sheets.org
p921
F0.0022810455972986374
tp922
(Vlocaltest.me
p923
F0.002195967292517345
tp924
tp925
s((S'meditation.com'
p926
tp927
(ttp928
((Vmedication.com
p929
F0.015265354800238521
tp930
(Vhoroscopedays.com
p931
F0.0001161929383741703
tp932
(Vbrilliant.org
p933
F6.724553867879327e-05
tp934
(Vamharicmovies.com
p935
F5.362787984026289e-05
tp936
(Vlequipe.fr
p937
F7.816310148203357e-07
tp938
(Ven.wikipedia.org
p939
F5.252421832353988e-08
tp940
(Vsearch.ask.com
p941
F3.7740381291546105e-08
tp942
(Vgoogle.ca
p943
F3.648383286054617e-08
tp944
(Vreddit.com
p945
F1.058890587253285e-08
tp946
(Vgoogle.co.in
p947
F3.669238772897556e-09
tp948
(Vfacebook.com
p949
F1.5397755423834308e-09
tp950
tp951
s((S'taskrabbit.com'
p952
tp953
(ttp954
(ts((S'fetchapp.com'
p955
tp956
(ttp957
((Vcheckout.shopify.com
p958
F0.03289034869667742
tp959
(Vpixelunion.net
p960
F0.014754481133273599
tp961
(Vvfbpro.com
p962
F0.006749764676306224
tp963
(Vmovimus-wrestling.myshopify.com
p964
F0.004611150121474517
tp965
(Vsiteorigin.uservoice.com
p966
F0.0013398333270103824
tp967
(Vnivel7.zendesk.com
p968
F0.0010256196709226026
tp969
(Vlocalinternettraffic.basecamphq.com
p970
F0.0007945726175017724
tp971
(Vfindacaravan.co.uk
p972
F0.000773582354640265
tp973
(Vmygedlive.com
p974
F0.0006667648984276862
tp975
(Vsupergiantgames.com
p976
F0.0006353591339866412
tp977
(Vrubinmuseum.mooclients.com
p978
F0.0005533319807440471
tp979
(Vstore-ugs15e.mybigcommerce.com
p980
F0.0005459376175282371
tp981
(Vdowntownhq.com
p982
F0.0005201510438608135
tp983
(Vwebmail1.cogeco.ca
p984
F0.0005121806493696923
tp985
(Vccparkboard.com
p986
F0.0005069670278806741
tp987
(Vmy-cubby-house-rocks.myshopify.com
p988
F0.000469641480868186
tp989
(Vpredictablesuccess.com
p990
F0.00046456904822288767
tp991
(Vabookapart.com
p992
F0.000443290002711978
tp993
(Vjoridweb.com
p994
F0.00037026980326331123
tp995
(Vevanabrams.com
p996
F0.00036538634981349104
tp997
tp998
s((S'youtu.be'
p999
tp1000
(ttp1001
((Vyoutube.be
p1002
F0.002327771504181619
tp1003
(Vuses.myherbalife.com
p1004
F0.0022052491406921487
tp1005
(Vbahrammoshiri.com
p1006
F0.00120513846529179
tp1007
(Vsteerbiddersales.com
p1008
F0.0010856524094649729
tp1009
(Vexams.evinrude.com
p1010
F0.0009387105668307909
tp1011
(Vwww2.memehk.com
p1012
F0.000840664053480079
tp1013
(Vmemehk.com
p1014
F0.0006322798687984735
tp1015
(Vmissyusa.com
p1016
F0.0006279402146092168
tp1017
(Vfollovvme.com
p1018
F0.0004785133661676418
tp1019
(Vtubetamil.com
p1020
F0.0004547101225723085
tp1021
(Vfirstlegoleague.org
p1022
F0.0004278581860366056
tp1023
(Vk8mer.com
p1024
F0.00038935924897389785
tp1025
(Vblaulichtreporter.de
p1026
F0.0003442025800306291
tp1027
(Veasykart.it
p1028
F0.00034177048920407956
tp1029
(Vnerdapproved.com
p1030
F0.00033383098580019383
tp1031
(Vwieboldtv.de
p1032
F0.0003332203017659258
tp1033
(Vphumidrama.com
p1034
F0.00032757148580445696
tp1035
(Vkilroynews.net
p1036
F0.0003270797996804544
tp1037
(Vhelpdesk.tankionline.com
p1038
F0.0002683043007451439
tp1039
(Vsaintsfc.co.uk
p1040
F0.0002499477358238586
tp1041
tp1042
s((S'ynet.co.il'
p1043
tp1044
(ttp1045
(ts((S'tutorialspoint.com'
p1046
tp1047
(ttp1048
((Vwiki.python.org
p1049
F0.005812159708003393
tp1050
(Vtutorialpoint.com
p1051
F0.0021775165351430943
tp1052
(Vjavatpoint.com
p1053
F0.001968934012532698
tp1054
(Vhexvolt.blogspot.ru
p1055
F0.0015654524915361316
tp1056
(Verhvervsakademisydvest.sharepoint.com
p1057
F0.0010571098842477162
tp1058
(Vrallydev.com
p1059
F0.0007445860040062963
tp1060
(Vcprogramming.com
p1061
F0.0006934952073382222
tp1062
(Vebooks-it.org
p1063
F0.0006203165820055927
tp1064
(Vmkyong.com
p1065
F0.0005062963910686054
tp1066
(Vlardoors.ru
p1067
F0.00048065709207179333
tp1068
(Vstudytonight.com
p1069
F0.00044009319580119765
tp1070
(Vhomeandlearn.co.uk
p1071
F0.00042920870144858323
tp1072
(Vhub.attask.com
p1073
F0.00041461175045723575
tp1074
(Vfhict.nl
p1075
F0.0003724732036863049
tp1076
(Vbatman.jamk.fi
p1077
F0.00035189190319527444
tp1078
(Vservices.brics.dk
p1079
F0.00034668114031273604
tp1080
(Vjava2s.com
p1081
F0.0003430930183514621
tp1082
(Vncvps.blackboard.com
p1083
F0.00033488728945250517
tp1084
(Vforum-alsacetech.org
p1085
F0.00031760909843814436
tp1086
(Vvogella.com
p1087
F0.0003130399033593343
tp1088
tp1089
s((S'cappuccino.org'
p1090
tp1091
(ttp1092
(ts((S'verou.me'
p1093
tp1094
(ttp1095
(ts((S'sqlite.org'
p1096
tp1097
(ttp1098
(ts((S'amazon.com'
p1099
tp1100
(ttp1101
((Vebay.com
p1102
F0.006738821250621747
tp1103
(Vslickdeals.net
p1104
F0.004120650473717563
tp1105
(Vbestbuy.com
p1106
F0.0030788964220882925
tp1107
(Vwalmart.com
p1108
F0.003050477312560511
tp1109
(Vnewegg.com
p1110
F0.002798296769576636
tp1111
(Vnetflix.com
p1112
F0.0024294274563549496
tp1113
(Vreddit.com
p1114
F0.002175753691217573
tp1115
(Vgoogle.com
p1116
F0.001391784985509667
tp1117
(Vhulu.com
p1118
F0.0011102072873126314
tp1119
(Vblackfriday.com
p1120
F0.0008052288786513178
tp1121
(Vus-mg6.mail.yahoo.com
p1122
F0.000766715618933907
tp1123
(Vtarget.com
p1124
F0.0007593360528991675
tp1125
(Ven.wikipedia.org
p1126
F0.0005814582312035169
tp1127
(Vgoodreads.com
p1128
F0.000495839687204871
tp1129
tp1130
s((S'brentozar.com'
p1131
tp1132
(ttp1133
(ts((S'rubybestpractices.com'
p1134
tp1135
(ttp1136
(ts((S'adobe.com'
p1137
tp1138
(ttp1139
((Vmozilla.org
p1140
F0.015111450175616077
tp1141
(Vapps.facebook.com
p1142
F0.0059619678680743506
tp1143
(Vfilehippo.com
p1144
F0.004900062455243954
tp1145
(Vacrobat.com
p1146
F0.004836207731470023
tp1147
(Vshell.windows.com
p1148
F0.004715263584245032
tp1149
(Vfb1.farm2.zynga.com
p1150
F0.004637787853163249
tp1151
(Vsupport.google.com
p1152
F0.0037578816140994334
tp1153
(Vthanks.freesoftstore.com
p1154
F0.002328482156562959
tp1155
(Vupdate1024.com
p1156
F0.0013898408960056395
tp1157
(Vthanks.freesoftstore2.com
p1158
F0.0013255858152199373
tp1159
(Vowl.english.purdue.edu
p1160
F0.0013105499640232714
tp1161
(Veasyjet.com
p1162
F0.0007198307701079823
tp1163
(Vmacromedia.com
p1164
F0.0006869022921899767
tp1165
(Vsecure.sarsefiling.co.za
p1166
F0.0006844256605296551
tp1167
tp1168
s((S'wikipedia.org'
p1169
tp1170
(ttp1171
((Vencrypted.google.com
p1172
F0.00771525505585607
tp1173
(Vbing.com
p1174
F0.004811910265206266
tp1175
(Vanswers.yahoo.com
p1176
F0.003100154798136046
tp1177
(Vsearch.disconnect.me
p1178
F0.0027486073979923428
tp1179
(Vprinceton.edu
p1180
F0.002546492596888385
tp1181
(Vimdb.com
p1182
F0.0020199007621722297
tp1183
(Vboards.4chan.org
p1184
F0.0011714401370427696
tp1185
(Veksisozluk.com
p1186
F0.001109914847106986
tp1187
(Vduckduckgo.com
p1188
F0.0010408949383171428
tp1189
(Vreddit.com
p1190
F0.000775024669043505
tp1191
(Vwen.lu
p1192
F0.0007574262961416565
tp1193
(Vraterhub.com
p1194
F0.00044425107955377627
tp1195
(Vbaike.baidu.com
p1196
F0.00035421615396662187
tp1197
tp1198
s((S'twitter.com'
p1199
tp1200
(ttp1201
((Vinstagram.com
p1202
F0.009640668836346135
tp1203
(Vfacebook.com
p1204
F0.005754900727130478
tp1205
(Vtumblr.com
p1206
F0.005717088994814716
tp1207
(Vtwitch.tv
p1208
F0.005152529468333346
tp1209
(Vreddit.com
p1210
F0.004914842497878588
tp1211
(Vask.fm
p1212
F0.004444513960399476
tp1213
(Vlinkedin.com
p1214
F0.003428389609628508
tp1215
(Vyoutube.com
p1216
F0.0033467710833313545
tp1217
(Vgoogle.co.jp
p1218
F0.0017641893086358437
tp1219
(Vespn.go.com
p1220
F0.001334680555584708
tp1221
(Vvk.com
p1222
F0.0008567391042836494
tp1223
(Vgoogle.com.tr
p1224
F0.0008184359701507858
tp1225
tp1226
s((S'google.com'
p1227
tp1228
(ttp1229
(ts((S'coursera.org'
p1230
tp1231
(ttp1232
((Vcourses.edx.org
p1233
F0.005682409218958396
tp1234
(Vudacity.com
p1235
F0.0032743153315409304
tp1236
(Vcodeskulptor.org
p1237
F0.002716798767326224
tp1238
(Vedx.org
p1239
F0.002345213620656822
tp1240
(Vmooc.guokr.com
p1241
F0.001304445694573597
tp1242
(Vudemy.com
p1243
F0.0012989515229204602
tp1244
(Vcodecademy.com
p1245
F0.001094793903822028
tp1246
(Vfuturelearn.com
p1247
F0.001069718425067974
tp1248
(Vd396qusza40orc.cloudfront.net
p1249
F0.0009671142040794794
tp1250
(Vmysliderule.com
p1251
F0.0006418503366131907
tp1252
(Vmiriadax.net
p1253
F0.0006400923571775631
tp1254
(Vocw.mit.edu
p1255
F0.0005196729488418822
tp1256
(Vonline.stanford.edu
p1257
F0.0004266295741752318
tp1258
(V1point3acres.com
p1259
F0.00034809050272295626
tp1260
tp1261
s((S'somethingpositive.com'
p1262
tp1263
(ttp1264
((Vsomethingpostive.net
p1265
F0.05551369002763124
tp1266
(Vjezebel.com
p1267
F4.424084024843979e-06
tp1268
(Vsmbc-comics.com
p1269
F3.576337317918497e-06
tp1270
(Vamazon.co.uk
p1271
F2.8458752349683427e-07
tp1272
(Vtwitter.com
p1273
F1.9658182515494668e-08
tp1274
(Vreddit.com
p1275
F1.4299505429861048e-08
tp1276
tp1277
s((S'puzzlescript.net'
p1278
tp1279
(ttp1280
(ts((S'ebay.com'
p1281
tp1282
(ttp1283
((Vamazon.com
p1284
F0.010715418955713561
tp1285
(Vpaypal.com
p1286
F0.004491756406860376
tp1287
(Vetsy.com
p1288
F0.003662715716951191
tp1289
(Vslickdeals.net
p1290
F0.003069012319460808
tp1291
(Valiexpress.com
p1292
F0.0028328755606823754
tp1293
(Vus-mg6.mail.yahoo.com
p1294
F0.0019084091674699396
tp1295
(Vwalmart.com
p1296
F0.0017906265490819154
tp1297
(Ve.mail.ru
p1298
F0.0016764064461063679
tp1299
(Vgoogle.com
p1300
F0.0010756325212520402
tp1301
(Vautobia.com
p1302
F0.0008751469412171619
tp1303
(Vbestbuy.com
p1304
F0.0006417003644546833
tp1305
(Vnewegg.com
p1306
F0.0005644308027097123
tp1307
(Vmail.aol.com
p1308
F0.0004919381996496611
tp1309
tp1310
s((S'blogspot.com'
p1311
tp1312
(ttp1313
((Vassemblagemagazine.blogspot.co.uk
p1314
F0.006541988631317168
tp1315
(Vm5newsroom.blogspot.com
p1316
F0.004036872954197155
tp1317
(Vynotdownload.blogspot.fr
p1318
F0.0022117442599623263
tp1319
(Vmthplay.blogspot.com
p1320
F0.0020413221935465056
tp1321
(Vhamidrezashaabani.blogspot.com
p1322
F0.0019204729711661645
tp1323
(Vaufannada.blogspot.com
p1324
F0.0017903645833333333
tp1325
(Vbpi.fr
p1326
F0.0017869947498546654
tp1327
(Vesmor.blogspots.com
p1328
F0.00178335979137614
tp1329
(Vnasirabdulsattar.blogspot.com
p1330
F0.0015214354157980588
tp1331
(Vblogdauyeu.blogspot.com
p1332
F0.0015159288469955333
tp1333
(Vnetnam.vn
p1334
F0.0015090202188512115
tp1335
(Vncngame.blogspot.com
p1336
F0.0015063179670179727
tp1337
(Vm88vn.com
p1338
F0.001409084418436105
tp1339
(Vmncshop.co.id
p1340
F0.001362530038324371
tp1341
(Vmywardrobesl.blogspot.com
p1342
F0.0011306262301520825
tp1343
(Vshishology.blogspot.com
p1344
F0.0010837903091795939
tp1345
(Vkaka1951989.blogspot.com
p1346
F0.0010813764505062807
tp1347
(Vblogspots.com
p1348
F0.0010752472369247685
tp1349
(Vapp-vn.blogspot.com
p1350
F0.0010721612178382198
tp1351
(Vchoukngok.blogspot.com
p1352
F0.0010719783990852125
tp1353
tp1354
s((S'python-requests.org'
p1355
tp1356
(ttp1357
((Vzhidaow.com
p1358
F0.009551755746611724
tp1359
(Vfreepythontips.wordpress.com
p1360
F0.006459608747061535
tp1361
(Vcrsmithdev.com
p1362
F0.003916645744413759
tp1363
(Vpythonforbeginners.com
p1364
F0.00257766774217122
tp1365
(Vdjrill.readthedocs.org
p1366
F0.002012919776840218
tp1367
(Vpypi.python.org
p1368
F0.0017488807041015017
tp1369
(Vsqlserverradio.co.il
p1370
F0.0015344216654011643
tp1371
(Vlftp.yar.ru
p1372
F0.0014730447987851177
tp1373
(Vcommunity.idolondemand.com
p1374
F0.0014134444923578169
tp1375
(Vlupaworld.com
p1376
F0.0012363183378873667
tp1377
(Vapi-help.campaigncommander.com
p1378
F0.0012157320254775146
tp1379
(Vcms.int.avast.com
p1380
F0.00106509819085949
tp1381
(V101skidka.slack.com
p1382
F0.001045992198313829
tp1383
(Vmy.itron.com
p1384
F0.0009469974323677864
tp1385
(Vgitlab.labs.nic.cz
p1386
F0.000788003055522052
tp1387
(Vcoupadev.atlassian.net
p1388
F0.0007800650703031773
tp1389
(Vctf.sobug.com
p1390
F0.0007446869450650168
tp1391
(Vpydoc.net
p1392
F0.0007438618658704967
tp1393
(Vcrummy.com
p1394
F0.0005123460621771358
tp1395
(Vhazel01.dot8.va.us.attask.com
p1396
F0.0004937072558779491
tp1397
tp1398
s((S'lifehacker.com'
p1399
tp1400
(ttp1401
(ts((S'similarweb.com'
p1402
tp1403
(ttp1404
(ts((S'labnol.org'
p1405
tp1406
(ttp1407
((Vdictation.io
p1408
F0.053638048227418224
tp1409
(Vshoutmeloud.com
p1410
F0.006330967493765026
tp1411
(Vchandigarh.craigslist.co.in
p1412
F0.005956020018352308
tp1413
(Vctrlq.org
p1414
F0.003126295253718603
tp1415
(Vsoftwarerecs.stackexchange.com
p1416
F0.0024987468507650713
tp1417
(Vwarriorbreak.com
p1418
F0.0018003759225045986
tp1419
(Vdavidwalsh.name
p1420
F0.0017453391136774254
tp1421
(Vchillingeffects.org
p1422
F0.0010805928441890496
tp1423
(Vbocktherobber.com
p1424
F0.0010176242920439393
tp1425
(Vdeadurl.com
p1426
F0.0009012318677442234
tp1427
(Vcrack-net.com
p1428
F0.0008675788308667134
tp1429
(Vacessotop.semanatopenem.com
p1430
F0.0008457425669831452
tp1431
(Vplaytool.com
p1432
F0.000833971133323157
tp1433
(Vblog.teamtreehouse.com
p1434
F0.0007845697379048289
tp1435
(Vscript.google.com
p1436
F0.000775616447790688
tp1437
(Vcurso.aspasl.com
p1438
F0.0007295140509111274
tp1439
(Vmuro.sk
p1440
F0.0007203143020910928
tp1441
(Vdigitalhubinc.com
p1442
F0.0006249173569437375
tp1443
(Vmeteoalarm.eu
p1444
F0.0006155205087474934
tp1445
(Vbazqux.com
p1446
F0.0006142111911626334
tp1447
tp1448
s((S'microsoft.com'
p1449
tp1450
(ttp1451
((Vaccount.live.com
p1452
F0.03392699089457
tp1453
(Vsupport.skype.com
p1454
F0.0035348837961288793
tp1455
(Vsupport.google.com
p1456
F0.0034552858349033064
tp1457
(Vaz307127.vo.msecnd.net
p1458
F0.0022238317607300075
tp1459
(Vbing.com
p1460
F0.0021814967174457966
tp1461
(Vinsider.windows.com
p1462
F0.0020978542030613587
tp1463
(Vsupport.mozilla.org
p1464
F0.0014405952463219156
tp1465
(Vshell.windows.com
p1466
F0.0009299673249284091
tp1467
(Vwunderlist.com
p1468
F0.000919005584821735
tp1469
(Vsupport.office.com
p1470
F0.0008910745265042753
tp1471
(Vmozilla.org
p1472
F0.0008072399269828862
tp1473
(Voffice.com
p1474
F0.0007969000993079764
tp1475
(Vportal.office.com
p1476
F0.0005823095407318863
tp1477
(Vjava.com
p1478
F0.0005101489984820142
tp1479
(Vmystartsearch.com
p1480
F0.0004853991371988819
tp1481
(Vmicrosoftstore.com
p1482
F0.0004429218660199628
tp1483
(Viegallery.com
p1484
F0.00043285860820947095
tp1485
tp1486
s((S'sitepoint.com'
p1487
tp1488
(ttp1489
((Vlearnable.com
p1490
F0.003775512545387916
tp1491
(Vtutsplus.com
p1492
F0.0018674564890191878
tp1493
(Vjquery4u.com
p1494
F0.0015746334577439493
tp1495
(Vsmashingmagazine.com
p1496
F0.0015285013069617425
tp1497
(Vphpdeveloper.org
p1498
F0.0009926448925364107
tp1499
(Vaskleo.com
p1500
F0.0007617632740019425
tp1501
(Vrockettheme.com
p1502
F0.0006841783339726206
tp1503
(Vohio.edu
p1504
F0.0006826065234712008
tp1505
(Vbaymard.com
p1506
F0.0005839645071941564
tp1507
(Vwfvrj.petrobras.com.br
p1508
F0.000577655622686037
tp1509
(Vflukeout.github.io
p1510
F0.0005158523372684569
tp1511
(Vcodeguide.hu
p1512
F0.0005057804575627206
tp1513
(Vdocs.angularjs.org
p1514
F0.0005039753917788309
tp1515
(Vrubyflow.com
p1516
F0.00047607335651278954
tp1517
(Vsocial.tesisquare.com
p1518
F0.0004735965093608097
tp1519
(Vmobility.synovus.com
p1520
F0.00046856522119488223
tp1521
(Vorder.sitepointmedia.com
p1522
F0.0004548368673123083
tp1523
(Vmanagewp.org
p1524
F0.00035966640079505813
tp1525
(Vapp.emailmeform.com
p1526
F0.0002865970293783667
tp1527
(Vhealthclubsystems.com
p1528
F0.0002705686531720551
tp1529
tp1530
s((S'history.com'
p1531
tp1532
(ttp1533
((Vaetv.com
p1534
F0.00798236133012671
tp1535
(Vthisdayinrock.com
p1536
F0.0037971496161920237
tp1537
(Vhistorynet.com
p1538
F0.0030760712668171076
tp1539
(Vdiscovery.com
p1540
F0.0021861770845481867
tp1541
(Von-this-day.com
p1542
F0.001472630734754977
tp1543
(Vtravelchannel.com
p1544
F0.001415992886466294
tp1545
(Vbiography.com
p1546
F0.0013597998334544566
tp1547
(Vunileverpc.com
p1548
F0.0012406136238727436
tp1549
(Voptimum.net
p1550
F0.0010563923348507547
tp1551
(Vdailyupliftingquotes.com
p1552
F0.000970086295744522
tp1553
(Vtodayinliterature.com
p1554
F0.0007611890843539773
tp1555
(Vmylifetime.com
p1556
F0.0007440318299485829
tp1557
(Vactivate.fox.com
p1558
F0.000740355482017051
tp1559
(Vwatchtveverywhere.com
p1560
F0.0007079766794187768
tp1561
(Vhistoryorb.com
p1562
F0.0006006680921527825
tp1563
(Vnationaldaycalendar.com
p1564
F0.0005802684968778012
tp1565
(Vushistory.org
p1566
F0.000472393245433172
tp1567
(Vmail.colton.k12.ca.us
p1568
F0.00046702853469422615
tp1569
(Vmyhatchets.haikulearning.com
p1570
F0.00035607368402211693
tp1571
tp1572
s((S'andismith.com'
p1573
tp1574
(ttp1575
(ts((S'diveintopython.net'
p1576
tp1577
(ttp1578
((Vluisartola.com
p1579
F0.01308713593306666
tp1580
(Vlearn.gramener.com
p1581
F0.0066802362512468775
tp1582
(Vdjango-chinese-docs-14.readthedocs.org
p1583
F0.006255710972095312
tp1584
(Vlignos.org
p1585
F0.003607044345427541
tp1586
(Vdocs.python.org
p1587
F0.0029514139252664086
tp1588
(Vdiveintopython3.net
p1589
F0.0024584698132149164
tp1590
(Vscipy.org
p1591
F0.00233695159956468
tp1592
(Vcalazan.com
p1593
F0.0018844901747393514
tp1594
(Vconnexus-jjm.appspot.com
p1595
F0.0016320116054158607
tp1596
(Vtour-sz.com
p1597
F0.0015841490518749704
tp1598
(Vsagemath.org
p1599
F0.0013459797709473023
tp1600
(Vapp.azendoo.com
p1601
F0.001330340715038685
tp1602
(Vgit.crl.vecna.com
p1603
F0.0011964902951342728
tp1604
(Vtechprom.ru
p1605
F0.0011357111225529769
tp1606
(Vmozgovipc.blogspot.co.il
p1607
F0.0008450978246330817
tp1608
(Vcforbeginners.com
p1609
F0.0006691024343003037
tp1610
(Vquality.mozilla.org
p1611
F0.0006626145240006626
tp1612
(Vvipod.ecommtools.com
p1613
F0.0006560723137483598
tp1614
(Vtrac.kit-xxi.com.ua
p1615
F0.0006007910415380251
tp1616
(Vwoodpecker.org.cn
p1617
F0.0005948740571413293
tp1618
tp1619
s((S'facebook.com'
p1620
tp1621
(ttp1622
(ts((S'voormedia.com'
p1623
tp1624
(ttp1625
(ts((S'google.co.uk'
p1626
tp1627
(ttp1628
((Vbbc.co.uk
p1629
F0.015803661828799845
tp1630
(Vuk.search.yahoo.com
p1631
F0.015624271888821255
tp1632
(Vamazon.co.uk
p1633
F0.009254315963283003
tp1634
(Vebay.co.uk
p1635
F0.008528257560579584
tp1636
(Ven.wikipedia.org
p1637
F0.004255091317020974
tp1638
(Vreddit.com
p1639
F0.003980648583379911
tp1640
(Vdailymail.co.uk
p1641
F0.0038733698459187693
tp1642
(Vsearch.safefinder.com
p1643
F0.0028345322202820732
tp1644
(Vyoutube.com
p1645
F0.00276943281382409
tp1646
(Vtwitter.com
p1647
F0.002499320864991151
tp1648
(Vuk.msn.com
p1649
F0.0014519535531925948
tp1650
(Vaccounts.youtube.com
p1651
F0.0014106376960693401
tp1652
(Vtheguardian.com
p1653
F0.0012393448640209122
tp1654
(Vcr2.gogorithm.com
p1655
F0.001229652212371702
tp1656
tp1657
s((S'reddit.com'
p1658
tp1659
(ttp1660
(ts((S'apidoc.com'
p1661
tp1662
(ttp1663
((Vapi.doc.com
p1664
F0.1111111111111111
tp1665
(Vapi.gehealthcare.com
p1666
F0.009782125389061804
tp1667
(Vapidock.com
p1668
F3.2379614904614277e-05
tp1669
tp1670
s((S'technion.ac.il'
p1671
tp1672
(ttp1673
(ts((S'apple.com'
p1674
tp1675
(ttp1676
(ts((S'scirra.com'
p1677
tp1678
(ttp1679
((Vc2community.ru
p1680
F0.007406235634299808
tp1681
(Vforums.tigsource.com
p1682
F0.006516674763500749
tp1683
(Vschwer-muta.blogspot.com
p1684
F0.0023252657005772242
tp1685
(Vwayofthepixel.net
p1686
F0.001771588111111012
tp1687
(Vblog.rubukkit.org
p1688
F0.001722506455389649
tp1689
(Vgamedev.ru
p1690
F0.00155671710308373
tp1691
(Velm-lang.org
p1692
F0.001454633678371806
tp1693
(Vkaamelott.co
p1694
F0.0014379499425883405
tp1695
(Vapp.mopub.com
p1696
F0.0013974901440273661
tp1697
(Vgame.9128.com
p1698
F0.001325856745272391
tp1699
(Vbases-hacking.org
p1700
F0.0012120643217503788
tp1701
(Va710594.byethost24.com
p1702
F0.0011639507815098104
tp1703
(Vyoyogames.com
p1704
F0.0010952749740584789
tp1705
(Vforums.wasabistudio.ca
p1706
F0.0010359152424912791
tp1707
(Velbitcoin.org
p1708
F0.0010213289204327799
tp1709
(Vstencyl.com
p1710
F0.0009509958272804534
tp1711
(Vfilmin.es
p1712
F0.000825167958358985
tp1713
(Vwowgame.jp
p1714
F0.0007702468672979726
tp1715
(Vcollaboration.swisscom.com
p1716
F0.0007476651600406859
tp1717
(Vfpl78.free.fr
p1718
F0.000719450980093071
tp1719
tp1720
s((S'chromium.org'
p1721
tp1722
(ttp1723
((Vdeveloper.chrome.com
p1724
F0.022100752027343448
tp1725
(Vjohnlewis.ie
p1726
F0.008052545533720222
tp1727
(Vimperialviolet.org
p1728
F0.004177426369874129
tp1729
(Vdownload-chromium.appspot.com
p1730
F0.004009500944262519
tp1731
(Vscotthelme.co.uk
p1732
F0.003532999099854658
tp1733
(Vcode.google.com
p1734
F0.002697460919000486
tp1735
(Vchromium.googlesource.com
p1736
F0.0020873460363834335
tp1737
(Vproductforums.google.com
p1738
F0.001335644399033382
tp1739
(Vwiki.archlinux.org
p1740
F0.0012934590063155952
tp1741
(Vkb.sitecore.net
p1742
F0.001156154586531049
tp1743
(Vblogmicrosoftbrasil.com.br
p1744
F0.0010548510155260927
tp1745
(Vexample.com
p1746
F0.0003803379258623619
tp1747
(Vdownloads.yahoo.com
p1748
F0.00034267692060830046
tp1749
(Vjava.com
p1750
F0.00031751464182818584
tp1751
(Vminutoms.com.br
p1752
F0.00029505951595761227
tp1753
(Vmattcutts.com
p1754
F0.0002391419420138638
tp1755
(Vgigaom.com
p1756
F0.00023660680057301445
tp1757
(Vcorom.vn
p1758
F0.00023047213023705282
tp1759
(Vvpnhelp.homeawaycorp.com
p1760
F0.0002284515048063452
tp1761
tp1762
s((S'gmail.com'
p1763
tp1764
(ttp1765
((Vgoogle.co.in
p1766
F0.002160747949931791
tp1767
(Vreddit.com
p1768
F0.0019094229668676123
tp1769
(Vnetflix.com
p1770
F0.0015143636335367562
tp1771
(Vamazon.com
p1772
F0.001114998532370577
tp1773
(Vdropbox.com
p1774
F0.0008313813311958971
tp1775
(Ven.wikipedia.org
p1776
F0.0008247348851858367
tp1777
(Vpandora.com
p1778
F0.0008159585716037036
tp1779
(Vaccount.live.com
p1780
F0.0007445104894934813
tp1781
(Vfacebook.com
p1782
F0.0007035519930853775
tp1783
(Vstartpagina.nl
p1784
F0.0004478025187472418
tp1785
(Vlinkedin.com
p1786
F0.00038762191829156073
tp1787
(Vsoundcloud.com
p1788
F0.00035534929141919615
tp1789
(Vstackoverflow.com
p1790
F0.000352430535378393
tp1791
(Vtrovi.com
p1792
F0.0003270559567248911
tp1793
(Vbing.com
p1794
F0.0003186797288942869
tp1795
(Vsearch.safefinder.com
p1796
F0.0003181670220008833
tp1797
(Vhome.tb.ask.com
p1798
F0.000309598054277362
tp1799
tp1800
s((S'padolsey.com'
p1801
tp1802
(ttp1803
((Vpapagoarchery.com
p1804
F0.010473375849017473
tp1805
(Vvintagephotoboothnyc.com
p1806
F0.00996644957568581
tp1807
(Vwebmail.digitalgear.com
p1808
F0.007198731312699346
tp1809
(Vgod.richard.dev.xen.lan.expert-shops.com
p1810
F0.005221312448083541
tp1811
(Vfoaas.com
p1812
F0.005002293011606166
tp1813
(Vcnfeat.com
p1814
F0.00401750239583653
tp1815
(Vwifi.weixin.qq.com
p1816
F0.003792761744407321
tp1817
(Vfrontend.richard.dev.xen.lan.expert-shops.com
p1818
F0.0036325652028917203
tp1819
(Vjira.foryouandyourteam.com
p1820
F0.003233026610295946
tp1821
(Vicescrum.i-dalgo2.com
p1822
F0.003064895530648955
tp1823
(Vabgmanagementlimited.quickbase.com
p1824
F0.002340158796489762
tp1825
(Vsave-dep-mukku.blogspot.jp
p1826
F0.0023262142399424154
tp1827
(Vzero11.com.br
p1828
F0.0023032042085126734
tp1829
(Vwiki.s00.jp
p1830
F0.002212426322029087
tp1831
(Vozekisms.com
p1832
F0.0018377987713592483
tp1833
(Vzhangxinxu.com
p1834
F0.0016898954023123237
tp1835
(Vcvmlrobotics.blogspot.com
p1836
F0.0016786257882148291
tp1837
(Vredwoods.com
p1838
F0.0016160499719493919
tp1839
(Vrandomsnippets.com
p1840
F0.0013289677088390124
tp1841
(Vejohn.org
p1842
F0.0012231300524343327
tp1843
tp1844
s((S'sixrevisions.com'
p1845
tp1846
(ttp1847
((Vforum.hangarnet.com.br
p1848
F0.004522612841241663
tp1849
(Viconpaper.org
p1850
F0.004388601429190374
tp1851
(Vpanosfx.com
p1852
F0.003981522100667729
tp1853
(Vliptonicetea.com
p1854
F0.0039197345769073555
tp1855
(Vtiny.cc
p1856
F0.003371601640395747
tp1857
(Vbohemian.curated.co
p1858
F0.003326202922179347
tp1859
(Vnoupe.com
p1860
F0.002781459432749324
tp1861
(Vvle-project.org
p1862
F0.002767415707556039
tp1863
(Vsixrevision.com
p1864
F0.0022085172602788606
tp1865
(Vbusiness.tutsplus.com
p1866
F0.0017757417437201713
tp1867
(Vforum.weavertheme.com
p1868
F0.0015203455783372938
tp1869
(Vtvgratishd.blogspot.com
p1870
F0.0015013110572595332
tp1871
(Vinflexwetrust.com
p1872
F0.0012838767727523452
tp1873
(Vsixminutes.dlugan.com
p1874
F0.001239579333077317
tp1875
(Vtricias-captions.tumblr.com
p1876
F0.0012110202845897668
tp1877
(Vsiteexplorer.info
p1878
F0.0010857132729947228
tp1879
(Vcommonplaces.com
p1880
F0.0010758741477450429
tp1881
(Vmongodbspain.com
p1882
F0.0010698474333738655
tp1883
(Vlanzateya.com
p1884
F0.0010386067653343092
tp1885
(Vfleischlust.com
p1886
F0.0009746657118920917
tp1887
tp1888
s((S'spotad.co'
p1889
tp1890
(ttp1891
((Vinnolance.com
p1892
F0.002733964248159832
tp1893
(Vnewincite.com
p1894
F0.0021574973031283713
tp1895
(Vui.servesharp.net
p1896
F0.0003960637357950218
tp1897
(Vjira.millennialmedia.com
p1898
F0.00036140992389132194
tp1899
(Vmovinstream.com
p1900
F4.124136508918446e-05
tp1901
(Vhwzone.co.il
p1902
F1.7154933461951347e-05
tp1903
(Vsubtitle.co.il
p1904
F7.854194729049916e-06
tp1905
(Vlinkedin.com
p1906
F1.6123254398713075e-07
tp1907
(Vvimeo.com
p1908
F9.877902401742443e-08
tp1909
(Vgoogle.co.uk
p1910
F9.113462281788802e-08
tp1911
(Vfacebook.com
p1912
F7.059035289641063e-09
tp1913
tp1914
s((S'walmart.com'
p1915
tp1916
(ttp1917
((Vtarget.com
p1918
F0.016191472243672674
tp1919
(Vwww2.onlinecreditcenter6.com
p1920
F0.01191700934366368
tp1921
(Vblackfriday.com
p1922
F0.008828973008072028
tp1923
(Vbestbuy.com
p1924
F0.007051185413925967
tp1925
(Vkmart.com
p1926
F0.004302594970420979
tp1927
(Vtoysrus.com
p1928
F0.004132935890938453
tp1929
(Vsamsclub.com
p1930
F0.003398453827899621
tp1931
(Vhiringcenter.walmartstores.com
p1932
F0.002464230730206549
tp1933
(Vr.befrugal.com
p1934
F0.002102698555986174
tp1935
(Vwalgreens.com
p1936
F0.0018930996132344058
tp1937
(Vshopping.paypal.com
p1938
F0.0012793019201361572
tp1939
(Vkohls.com
p1940
F0.001067534574161307
tp1941
(Vgamestop.com
p1942
F0.00098459925813377
tp1943
(Vamazon.com
p1944
F0.0009239514095817645
tp1945
tp1946
s((S'testy.com'
p1947
tp1948
(ttp1949
((Vgoogle.com
p1950
F5.7582840045330454e-09
tp1951
(Vfacebook.com
p1952
F4.906167885604807e-10
tp1953
tp1954
s((S'batsov.com'
p1955
tp1956
(ttp1957
((Vblog.rust-lang.org
p1958
F0.0025602059117481963
tp1959
(Vskanev.com
p1960
F0.0022080608194980154
tp1961
(Vbarisyuksel.com
p1962
F0.0017846249100858622
tp1963
(Vclever-cloud.com
p1964
F0.0017729664335737266
tp1965
(Vbotnets.fr
p1966
F0.0017378253485524707
tp1967
(Vemacs.sexy
p1968
F0.0017151187719749593
tp1969
(Vohtatblog.wordpress.com
p1970
F0.0014208184846155637
tp1971
(Vthatthinginswift.com
p1972
F0.0005549820740790072
tp1973
(Vemacswiki.org
p1974
F0.000361288776960209
tp1975
(Vgamasutra.com
p1976
F7.182796042938065e-05
tp1977
(Vcreditkarma.com
p1978
F4.846935431658113e-05
tp1979
(Vde.reddit.com
p1980
F2.1918490506820317e-05
tp1981
(Vgithub.com
p1982
F9.564137939050661e-06
tp1983
(Vpluralsight.com
p1984
F7.698149584786948e-06
tp1985
(Vencrypted.google.com
p1986
F3.904554290440822e-06
tp1987
(Vstackoverflow.com
p1988
F2.7530196598198716e-06
tp1989
(Vsearch.disconnect.me
p1990
F1.452201017759609e-06
tp1991
(Vstartpage.com
p1992
F4.5705844497747614e-07
tp1993
(Vgoogle.com.br
p1994
F2.7313056986275865e-08
tp1995
tp1996
s((S'apidock.com'
p1997
tp1998
(ttp1999
((Vapi.rubyonrails.org
p2000
F0.004283722809508841
tp2001
(Vlogentries.com
p2002
F0.0031281175847644965
tp2003
(Vguides.rubyonrails.org
p2004
F0.0014298972896033487
tp2005
(Vbsonspec.org
p2006
F0.0013823136499941477
tp2007
(Vadtaily.hackpad.com
p2008
F0.0013067944421232297
tp2009
(Vadmin.revieworld.com
p2010
F0.0012428262182843334
tp2011
(Vsportngin.atlassian.net
p2012
F0.000914667802116352
tp2013
(Vrailsdoc.com
p2014
F0.0008941412847720574
tp2015
(Vgsubbarao.com
p2016
F0.0008810756888817209
tp2017
(Vruby-doc.org
p2018
F0.000875561057367794
tp2019
(Vgotealeaf.campfirenow.com
p2020
F0.0008217247009736729
tp2021
(Vruby-forum.com
p2022
F0.0007341966194683126
tp2023
(Vrequiremind.com
p2024
F0.0006038566509753178
tp2025
(V3edge.in
p2026
F0.0006037040162545684
tp2027
(Vcapterrapaulo.aws.af.cm
p2028
F0.0005021993641797336
tp2029
(Vstrftimer.com
p2030
F0.0005021070563973819
tp2031
(Vclojuredocs.org
p2032
F0.0004751783760686909
tp2033
(Vwebmail.abril.com.br
p2034
F0.00046069404857109657
tp2035
(Vnvcad.nvidia.com
p2036
F0.0004513071790077689
tp2037
(Vruby.about.com
p2038
F0.0004484059714551321
tp2039
tp2040
s((S'dorkly.com'
p2041
tp2042
(ttp2043
((Vcollegehumor.com
p2044
F0.00532996727307274
tp2045
(Vdidyouknowgaming.com
p2046
F0.0021633027780272383
tp2047
(Vnetlore.ru
p2048
F0.0013772662965528448
tp2049
(Vawkwardzombie.com
p2050
F0.0011546861484157086
tp2051
(Vbrawlinthefamily.keenspot.com
p2052
F0.001025083503038372
tp2053
(Vexplosm.net
p2054
F0.0009121791532666129
tp2055
(Vdorktower.com
p2056
F0.0007780467559879749
tp2057
(Vbunicomic.com
p2058
F0.0007688771325575398
tp2059
(Vpenny-arcade.com
p2060
F0.000697397505029458
tp2061
(Vforums.tigsource.com
p2062
F0.0006230253345583321
tp2063
(Vsyacartoonist.com
p2064
F0.0005622097830873088
tp2065
(Vdangerouslychloe.com
p2066
F0.0004875689986759523
tp2067
(Vblessings.thecomicseries.com
p2068
F0.0004383328772759553
tp2069
(Vtrenchescomic.com
p2070
F0.00042936677189025536
tp2071
(Vsurvivingtheworld.net
p2072
F0.00038241257511459256
tp2073
(Vdraconicsonic.deviantart.com
p2074
F0.0002444842155108139
tp2075
tp2076
s((S'infosecisland.com'
p2077
tp2078
(ttp2079
(ts((S'widdershinscomic.com'
p2080
tp2081
(ttp2082
((Vletsaskviolet.com
p2083
F0.023339778372803054
tp2084
(Vthe-whiteboard.com
p2085
F0.02297513496899636
tp2086
(Vineffableaether.com
p2087
F0.018733703512249688
tp2088
(Vpuckcomics.com
p2089
F0.010880843347775311
tp2090
(Valiendice.com
p2091
F0.0095586849274735
tp2092
(Vcasualvillain.com
p2093
F0.007030130604618646
tp2094
(Vmarryme.keenspot.com
p2095
F0.00618793397842423
tp2096
(Vprecociouscomic.com
p2097
F0.006100743140697935
tp2098
(Vrice-boy.com
p2099
F0.004656766063375279
tp2100
(Vthearchipelago.smackjeeves.com
p2101
F0.002923735751237376
tp2102
(Vsmbhax.com
p2103
F0.0025248584102409368
tp2104
(Vbetweenfailures.com
p2105
F0.0018146924062114364
tp2106
(Vwncomic.com
p2107
F0.0017688444965095805
tp2108
(Vthegamercat.com
p2109
F0.0015217058359325555
tp2110
(Vweregeek.com
p2111
F0.0014803237802496064
tp2112
(Vnerf-this.com
p2113
F0.0013742114952235965
tp2114
tp2115
s((S'zetalab.de'
p2116
tp2117
(ttp2118
(ts((S'dock.com'
p2119
tp2120
(ttp2121
((Vdocks.qc.ca
p2122
F0.06434729912128474
tp2123
(Vdockandslip.com
p2124
F0.06212746446584136
tp2125
(Vtessera.com
p2126
F0.005609478693919016
tp2127
(Vedu.americanvhs.com
p2128
F0.0009426078168425553
tp2129
(Vv3.mercusuar.info
p2130
F5.262204832870827e-06
tp2131
(Vsafecart.com
p2132
F1.0612495775718263e-06
tp2133
tp2134
s((S'fabiensanglard.net'
p2135
tp2136
(ttp2137
((Vnom.com
p2138
F0.016733385481372414
tp2139
(Vmeet.emulex.com
p2140
F0.009327642729015897
tp2141
(Vemulex.my.salesforce.com
p2142
F0.009142718564326422
tp2143
(Vasicweb.emulex.com
p2144
F0.007491289198606272
tp2145
(Vopenhighschoolcourses.org
p2146
F0.006642895061989392
tp2147
(Vneilblevins.com
p2148
F0.004470560344097675
tp2149
(Vlinor.fr
p2150
F0.0038202984095753404
tp2151
(Vhmsconfluence.activision.com
p2152
F0.003148796306750467
tp2153
(Vdevinsmith.net
p2154
F0.002372270790317621
tp2155
(Vhobbygamedev.com
p2156
F0.0022267112008906844
tp2157
(Vthink-like-a-git.net
p2158
F0.002052212874160923
tp2159
(Vgamedev.stackexchange.com
p2160
F0.0019690283982804094
tp2161
(Vgp32spain.com
p2162
F0.0015787369595053969
tp2163
(Vsda.se
p2164
F0.0014976407646989833
tp2165
(Vbenefitsmedical.com
p2166
F0.0014063662602922299
tp2167
(Vengineering.zenpayroll.com
p2168
F0.0013555184723144803
tp2169
(Vblog.yourkarma.com
p2170
F0.0011144507108844686
tp2171
(Vshoutem.slack.com
p2172
F0.0007275420982314113
tp2173
(Vwiki.mcselec.com
p2174
F0.0004583651642475172
tp2175
(Vopengl.org
p2176
F0.000321510536147959
tp2177
tp2178
s((S'92.195'
p2179
tp2180
(ttp2181
(ts((S'.hdokiejnpimakedhajhdlcegeplioahd'
p2182
tp2183
(ttp2184
(ts((S'johnlewis.ie'
p2185
tp2186
(ttp2187
((Vcoreboot.org
p2188
F0.02854268245491835
tp2189
(Vdistroshare.com
p2190
F0.016549572788962446
tp2191
(Vwebmail.w14a.comcast.net
p2192
F0.013918136600019624
tp2193
(Vdeconetworks.com
p2194
F0.007967123011370798
tp2195
(Vjeanlouisnguyen.blogspot.ca
p2196
F0.005415745410279979
tp2197
(Vpilaresdelcodigo.wordpress.com
p2198
F0.004368068633605357
tp2199
(Vae.sjsu.edu
p2200
F0.00432630123544891
tp2201
(Vsenk9.wordpress.com
p2202
F0.0035087719298245615
tp2203
(Vreadditing.herokuapp.com
p2204
F0.0031414092774758665
tp2205
(Vanderswallin.net
p2206
F0.0027987907111832813
tp2207
(Vgeorgakopoulos.org
p2208
F0.001107007252449383
tp2209
(Vzupimages.net
p2210
F0.0010530772654731792
tp2211
(Vjoomla.quantumcs.com
p2212
F0.0007784613047770943
tp2213
(Vchromium.org
p2214
F0.0007239176971487771
tp2215
(Vciteworld.com
p2216
F0.000622003528792297
tp2217
(Vtechreport.com
p2218
F0.0003636459011841565
tp2219
(Vfunhousegames.co
p2220
F0.00029423524559166105
tp2221
(Vbuddypress.org
p2222
F0.00017586529805995192
tp2223
(Vwiki.archlinux.org
p2224
F0.00013728228690694814
tp2225
(Vtvxs.gr
p2226
F9.757876076671679e-05
tp2227
tp2228
s((S'docks.com'
p2229
tp2230
(ttp2231
((Vnew-startups.com
p2232
F0.0011150896408172368
tp2233
(Vimei.info
p2234
F0.00013258549617717544
tp2235
(Vdocs.com
p2236
F0.00011210307582814303
tp2237
tp2238
s((S'walla.co.il'
p2239
tp2240
(ttp2241
((Vynet.co.il
p2242
F0.020681855597970564
tp2243
(Vsport5.co.il
p2244
F0.01671716174222901
tp2245
(Vone.co.il
p2246
F0.0158659102755873
tp2247
(Vmako.co.il
p2248
F0.01332301405197086
tp2249
(Vnrg.co.il
p2250
F0.008862240216676337
tp2251
(Vgoogle.co.il
p2252
F0.007271907105170784
tp2253
(Vhaaretz.co.il
p2254
F0.005973013842627749
tp2255
(Vrotter.net
p2256
F0.005844035385500475
tp2257
(Vnana10.co.il
p2258
F0.005317331090295053
tp2259
(Vglobes.co.il
p2260
F0.004428857379564541
tp2261
tp2262
s((S'railscasts.com'
p2263
tp2264
(ttp2265
(ts((S'stakeventures.com'
p2266
tp2267
(ttp2268
(ts((S'coreboot.org'
p2269
tp2270
(ttp2271
((Vhappyassassin.net
p2272
F0.059476348436577016
tp2273
(Vgit.buildroot.net
p2274
F0.02452952891923749
tp2275
(Vflashrom.org
p2276
F0.017701817587736517
tp2277
(Vbrmlab.cz
p2278
F0.013296603505499648
tp2279
(Vtiny.wiki.kernel.org
p2280
F0.012337571525115207
tp2281
(V86duino.com
p2282
F0.010515115478500344
tp2283
(Veskolar.com
p2284
F0.009344584495521896
tp2285
(Vjohnlewis.ie
p2286
F0.006332038626695642
tp2287
(Vseabios.org
p2288
F0.00443494523109805
tp2289
(Vsavebydiy.com
p2290
F0.0036583215796897038
tp2291
(Vlists.denx.de
p2292
F0.0029219143576826195
tp2293
(Vdonate.ccf.org.tw
p2294
F0.0027590143659023876
tp2295
(Vmetacloud.jira.com
p2296
F0.002028728663370954
tp2297
(Vembeddedlinux.org.cn
p2298
F0.0018237464363575382
tp2299
(Vfsf.org
p2300
F0.0017019026720611005
tp2301
(Vdev.milaap.org
p2302
F0.0011945877468052004
tp2303
(Vwiki.archlinux.org
p2304
F0.0007416826313193679
tp2305
(Vhitech.vesti.ru
p2306
F0.00033012905439744935
tp2307
(Vmark.intel.com
p2308
F0.00029483913576752523
tp2309
(Vlinux.softpedia.com
p2310
F2.1233992224112045e-05
tp2311
tp2312
s((S'usenet.org'
p2313
tp2314
(ttp2315
(ts((S'imgur.com'
p2316
tp2317
(ttp2318
((Veksisozluk.com
p2319
F0.007959158123693156
tp2320
(Vsteamcommunity.com
p2321
F0.005482409223054582
tp2322
(Vl.moapi.net
p2323
F0.0042747932543380305
tp2324
(Vptt.cc
p2325
F0.004205827649589891
tp2326
(Vreddit.com
p2327
F0.002423451953582919
tp2328
(Vus.battle.net
p2329
F0.0023017082856949867
tp2330
(Vprntscr.com
p2331
F0.002184980056042118
tp2332
(Viamchucky.github.io
p2333
F0.002029496111172061
tp2334
(Vplurk.com
p2335
F0.0012164439471213228
tp2336
(Vgamefaqs.com
p2337
F0.0011121531273015387
tp2338
(Vflashback.org
p2339
F0.0010824160224589597
tp2340
(Vtwitch.tv
p2341
F0.0008429300641815612
tp2342
(Vboards.4chan.org
p2343
F0.0008128220671250406
tp2344
tp2345
s((S'google.co.il'
p2346
tp2347
(ttp2348
((Vynet.co.il
p2349
F0.02090290556127998
tp2350
(Vwalla.co.il
p2351
F0.010178080865357519
tp2352
(Vmako.co.il
p2353
F0.009531641570181064
tp2354
(Vhe.wikipedia.org
p2355
F0.005168147982441724
tp2356
(Vone.co.il
p2357
F0.004797051193030695
tp2358
(Vsport5.co.il
p2359
F0.004629557192589989
tp2360
(Vpanet.co.il
p2361
F0.004466318634153449
tp2362
(Vyad2.co.il
p2363
F0.004239283102327047
tp2364
(Vfxp.co.il
p2365
F0.004224135214989242
tp2366
(Vil.msn.com
p2367
F0.0025525166492135123
tp2368
(Vjewishjournal.com
p2369
F0.0016738899904644618
tp2370
(Vhaaretz.co.il
p2371
F0.0011658029360413589
tp2372
tp2373
s((S'foobar2000.com'
p2374
tp2375
(ttp2376
((Vmorbo.org
p2377
F0.031915159700857905
tp2378
(Vjdk8.java.net
p2379
F0.0036444231186665292
tp2380
(Vforum.powerampapp.com
p2381
F0.0026170710255915223
tp2382
(Vdbpoweramp.com
p2383
F0.0008974646623289207
tp2384
(Vjriver.com
p2385
F0.00033570030497519226
tp2386
(Vpodsvojostreho.net
p2387
F0.00014945816684828672
tp2388
(Vteksyndicate.com
p2389
F1.1823333348362995e-05
tp2390
(Vtrojmiasto.pl
p2391
F5.731231896333478e-06
tp2392
(Vricardo.ch
p2393
F3.7479474663832534e-06
tp2394
(Vus-mg204.mail.yahoo.com
p2395
F1.5779104558357893e-06
tp2396
(Vboards.4chan.org
p2397
F1.1310967365085483e-06
tp2398
(Vnetvibes.com
p2399
F1.0671421974257503e-06
tp2400
(Vtheguardian.com
p2401
F7.685661734505484e-07
tp2402
(Varstechnica.com
p2403
F6.992041308980053e-07
tp2404
(Vsearch.yahoo.co.jp
p2405
F6.754668573135203e-07
tp2406
(Ven.eazel.com
p2407
F5.318138091329666e-07
tp2408
(Vandroidpolice.com
p2409
F3.6786215539942405e-07
tp2410
(Vkickstarter.com
p2411
F2.241460998950497e-07
tp2412
(Vgoogle.com.tw
p2413
F1.301859356429909e-07
tp2414
(Vgoogle.lv
p2415
F1.037835278431857e-07
tp2416
tp2417
s((S'happyassassin.net'
p2418
tp2419
(ttp2420
((Vmndm.gov.on.ca
p2421
F0.04298894933263563
tp2422
(Veriberto.pro.br
p2423
F0.01202062754212667
tp2424
(Vblog.hansenpartnership.com
p2425
F0.011842526405633201
tp2426
(Vcalm.aber.ac.uk
p2427
F0.011433569710412046
tp2428
(Vbugs.freedesktop.org
p2429
F0.0009542923479526986
tp2430
(Vsandboxie.com
p2431
F0.0007907844422448724
tp2432
(Vmanyland.com
p2433
F0.0007040551653256227
tp2434
(Vmarc.info
p2435
F0.0005867879121690093
tp2436
(Vforums.opensuse.org
p2437
F0.0005194968302130223
tp2438
(Veeti.com.tw
p2439
F0.0005194955121359924
tp2440
(Vimaginecup.com
p2441
F0.0003215762268482594
tp2442
(V4sysops.com
p2443
F0.00014510480483848856
tp2444
(Vanimeultima.tv
p2445
F0.0001281134603127242
tp2446
(Vthomas-krenn.com
p2447
F7.921381869224323e-05
tp2448
(Vjustinguitar.com
p2449
F6.288087035151911e-05
tp2450
(Vcomputer.howstuffworks.com
p2451
F2.4267097954854636e-05
tp2452
(Vcompileonline.com
p2453
F2.3703323624266067e-05
tp2454
(Vsevenforums.com
p2455
F2.367194472127469e-06
tp2456
(Vtechnet.microsoft.com
p2457
F2.1155661906668695e-06
tp2458
(Vaccounts.google.com
p2459
F1.3084216140549257e-07
tp2460
tp2461
s((S'chrome.com'
p2462
tp2463
(ttp2464
(ts((S'goldsteintech.com'
p2465
tp2466
(ttp2467
(ts((S'techonthenet.com'
p2468
tp2469
(ttp2470
(ts((S'cracked.com'
p2471
tp2472
(ttp2473
((Vlistverse.com
p2474
F0.002726385758898505
tp2475
(Vcollegehumor.com
p2476
F0.002107328674389131
tp2477
(Varchive.today
p2478
F0.0016765785990839604
tp2479
(Vescapistmagazine.com
p2480
F0.0016443018805989268
tp2481
(Vdorkly.com
p2482
F0.0015727526783965238
tp2483
(Vsmbc-comics.com
p2484
F0.0014025142688979721
tp2485
(Vtheonion.com
p2486
F0.0012152073952430848
tp2487
(Voddee.com
p2488
F0.0008038470483622185
tp2489
(Vavclub.com
p2490
F0.0007375924550347175
tp2491
(Vexplosm.net
p2492
F0.0007325112118358349
tp2493
(Vthechive.com
p2494
F0.0006896736374762467
tp2495
(Vmentalfloss.com
p2496
F0.0004837719810559199
tp2497
(Vbuzzfeed.com
p2498
F0.00045508882873294493
tp2499
tp2500
s((S'guru99.com'
p2501
tp2502
(ttp2503
((Vtoolsqa.com
p2504
F0.005719466566131465
tp2505
(Vabap101.com
p2506
F0.003011493349875067
tp2507
(Vregistria.app.box.com
p2508
F0.0026405273456051367
tp2509
(Vhanelsoft.vn
p2510
F0.002062561850334693
tp2511
(Vassertselenium.com
p2512
F0.00195169518565124
tp2513
(Vseleniummadeeasy.blogspot.co.uk
p2514
F0.0017882739008798492
tp2515
(Vsaptraininghub.com
p2516
F0.0017882409332036706
tp2517
(Vqtpfaq.wordpress.com
p2518
F0.0017873677324844871
tp2519
(Vcodeodor.com
p2520
F0.0016453585640558656
tp2521
(Vmanage.hivelocity.net
p2522
F0.001623640201331385
tp2523
(Vsoftwaretestinggenius.com
p2524
F0.001583393157862956
tp2525
(Vcommunity.stresstimulus.com
p2526
F0.001557093159406643
tp2527
(Vtennisworlditalia.com
p2528
F0.0012915493611922993
tp2529
(Vroqit.sharepoint.com
p2530
F0.0010722141775454032
tp2531
(Vsyrinx.catsone.com
p2532
F0.0009775579010200494
tp2533
(Vculverlabs.co
p2534
F0.0009439906846807562
tp2535
(Vwebmail.trigma.co.in
p2536
F0.0008988027832973669
tp2537
(Vnewtours.demoaut.com
p2538
F0.0008537480868080438
tp2539
(Vajmadison.com
p2540
F0.0008427717137978187
tp2541
(Vin.playstation.com
p2542
F0.0008242438736899647
tp2543
tp2544
s((S'blogspot.co.uk'
p2545
tp2546
(ttp2547
((Vsoccersportthai.blogspot.co.uk
p2548
F0.0707374040707374
tp2549
(Vproofreadmyfile.blogspot.com
p2550
F0.030689329556185082
tp2551
(Vibrahimyamanabdullahi.blogspot.co.uk
p2552
F0.017033585087578337
tp2553
(Vsapbasissociety.blogspot.co.uk
p2554
F0.015119098559406645
tp2555
(Vpersianbooks2.blogspot.co.uk
p2556
F0.01447080599024062
tp2557
(Vblogsofnote.blogspot.co.uk
p2558
F0.014427657547298217
tp2559
(Vkizomba-zouk.blogspot.co.uk
p2560
F0.012347802817439838
tp2561
(Vbmackie.blogspot.co.uk
p2562
F0.01162535643781531
tp2563
(Vsherrysbeautyandfashion.blogspot.co.uk
p2564
F0.011378935939196526
tp2565
(Vmwholt.blogspot.co.uk
p2566
F0.011096992799661162
tp2567
(Vhongleili.blogspot.co.uk
p2568
F0.010588425476883283
tp2569
(Vportableappz.blogspot.co.uk
p2570
F0.008682119747727087
tp2571
(Vjandjalpacas.blogspot.co.uk
p2572
F0.006606792608650769
tp2573
(Vsuitcaseboy.blogspot.co.uk
p2574
F0.0065030737184372306
tp2575
(Vsliekje.blogspot.co.uk
p2576
F0.006483803155788567
tp2577
(Vyourcreativefuel.blogspot.co.uk
p2578
F0.006483803155788567
tp2579
(Vmonica-or.blogspot.co.uk
p2580
F0.006322861094645326
tp2581
(Vsleazybeats.blogspot.co.uk
p2582
F0.0062287104622871054
tp2583
(Vquickshout.blogspot.co.uk
p2584
F0.005905511811023622
tp2585
(Vblogger.co.uk
p2586
F0.00456841015757446
tp2587
tp2588
s((S'lwn.net'
p2589
tp2590
(ttp2591
((Vsuccessfulsoftware.net
p2592
F0.005252112500049234
tp2593
(Vlinuxfr.org
p2594
F0.004822843418206723
tp2595
(Vghzl.co
p2596
F0.0034472746606284085
tp2597
(Vphoronix.com
p2598
F0.002768949835679411
tp2599
(Vlinux-bg.org
p2600
F0.0026851094101852297
tp2601
(Vbugs.freedesktop.org
p2602
F0.002523399741763606
tp2603
(Vrt.wiki.kernel.org
p2604
F0.002237663304438635
tp2605
(Vrajalanetti.com
p2606
F0.002206267253682163
tp2607
(Vsimepar.br
p2608
F0.0018997695554617766
tp2609
(Vlxer.com
p2610
F0.0016418547532840177
tp2611
(Vplanet.postgresql.org
p2612
F0.0016138535921117138
tp2613
(Vnorrod.nl
p2614
F0.0014726421294774892
tp2615
(Vwebmail.delaval.com
p2616
F0.001380474439094912
tp2617
(Velementarynow.com
p2618
F0.0012930064543167485
tp2619
(Vusers.csc.calpoly.edu
p2620
F0.001283081096542379
tp2621
(Vbeyond3d.com
p2622
F0.0012644611077741394
tp2623
(V100ask.org
p2624
F0.0012163660952326189
tp2625
(Vanandtech.com
p2626
F0.001147878137408774
tp2627
(Vohjelmointiputka.net
p2628
F0.00110908323285851
tp2629
(Vwebmail.alltele.net
p2630
F0.0010886146327560872
tp2631
tp2632
s((S'keyvalue.org'
p2633
tp2634
(ttp2635
((Vrubygems.org
p2636
F1.8680492428768945e-05
tp2637
(Vgithub.com
p2638
F3.475709217831192e-07
tp2639
tp2640
s((S'alibaba.com'
p2641
tp2642
(ttp2643
(ts((S'mobileread.com'
p2644
tp2645
(ttp2646
(ts((S'oracle-base.com'
p2647
tp2648
(ttp2649
(ts((S'caltech.edu'
p2650
tp2651
(ttp2652
(ts((S'sarasoueidan.com'
p2653
tp2654
(ttp2655
(ts((S'mozilla.org'
p2656
tp2657
(ttp2658
((Vtrovi.com
p2659
F0.003908185540139704
tp2660
(Vastromenda.com
p2661
F0.003661281447262505
tp2662
(Vdefault-search.net
p2663
F0.003546628603773007
tp2664
(Vyandex.ru
p2665
F0.003418356746361168
tp2666
(Vhome.tb.ask.com
p2667
F0.002485574080687845
tp2668
(Vmystartsearch.com
p2669
F0.002372836999030979
tp2670
(Vgroovorio.com
p2671
F0.0021940789678751077
tp2672
(Vcr4.gogorithm.com
p2673
F0.0014396275046440782
tp2674
(Vistartsurf.com
p2675
F0.001407008639371235
tp2676
(Vcr2.gogorithm.com
p2677
F0.0011775681487276746
tp2678
(Vvosteran.com
p2679
F0.0011286580230675245
tp2680
(Vupdatesoftnow.com
p2681
F0.0011115485450116163
tp2682
(Vsearch.yahoo.com
p2683
F0.0010762443747588434
tp2684
(Vsweet-page.com
p2685
F0.0009996025717427229
tp2686
(Vhd-plugin.com
p2687
F0.0009837360668146014
tp2688
(Vget.adobe.com
p2689
F0.0008646924779831686
tp2690
(Vcij.campaignism.com
p2691
F0.0007996086228882707
tp2692
(Vieonline.microsoft.com
p2693
F0.0007893274514678609
tp2694
(Vaz307127.vo.msecnd.net
p2695
F0.0007404118225709963
tp2696
tp2697
s((S'wolframalpha.com'
p2698
tp2699
(ttp2700
((Vwebassign.net
p2701
F0.006517849643425926
tp2702
(Vmathworld.wolfram.com
p2703
F0.003393997804121385
tp2704
(Vtutorial.math.lamar.edu
p2705
F0.0032305370516692486
tp2706
(Vmathxl.com
p2707
F0.002903553433297141
tp2708
(Vsymbolab.com
p2709
F0.0026494218523835946
tp2710
(Vpurplemath.com
p2711
F0.0023617804926934385
tp2712
(Vquest.cns.utexas.edu
p2713
F0.0022502976628350187
tp2714
(Vmath.stackexchange.com
p2715
F0.0021096126650983816
tp2716
(Vdesmos.com
p2717
F0.0016572406004577939
tp2718
(Vchegg.com
p2719
F0.0011195735650166758
tp2720
(Vmathway.com
p2721
F0.0008791764257050895
tp2722
tp2723
s((S'astralapp.com'
p2724
tp2725
(ttp2726
(ts((S'codinghorror.com'
p2727
tp2728
(ttp2729
(ts((S'lego.com'
p2730
tp2731
(ttp2732
(ts((S'shawarma-time.com'
p2733
tp2734
(ttp2735
(ts((S'practicingruby.com'
p2736
tp2737
(ttp2738
((Velmcitycraftworks.org
p2739
F0.023109641123805664
tp2740
(Vhartsem.edu
p2741
F0.01576023487552252
tp2742
(Vvdumoulin.github.io
p2743
F0.014616148715765574
tp2744
(Vblog.rubybestpractices.com
p2745
F0.014336265722118734
tp2746
(Vletter.ly
p2747
F0.009270472292980331
tp2748
(Vfabioanselmo.github.io
p2749
F0.007632800412583806
tp2750
(Vnas.int.stangl.co.za
p2751
F0.006892014145900156
tp2752
(Vpracticalruby.com
p2753
F0.006233190950798924
tp2754
(Vjamesfriend.com.au
p2755
F0.004684389272748566
tp2756
(Vdevblog.avdi.org
p2757
F0.0029803058169662632
tp2758
(Vrubytechlist.com
p2759
F0.0027833693680260445
tp2760
(Vstats.fanjas.com
p2761
F0.002452099050482813
tp2762
(Vcodon.com
p2763
F0.002302760390183461
tp2764
(Vtestingeducation.org
p2765
F0.0022754087308275747
tp2766
(Vherdt.de
p2767
F0.0022693966419629025
tp2768
(Vrubyoffrails.com
p2769
F0.0021707508112341948
tp2770
(Vcodecoreyvr.slack.com
p2771
F0.001842643106583627
tp2772
(Vdaniel.haxx.se
p2773
F0.0017404757300328755
tp2774
(Vschibsted.service-now.com
p2775
F0.0012539919721074684
tp2776
(Vallin.qiita.com
p2777
F0.0011750421056754533
tp2778
tp2779
s((S'localhost.'
p2780
tp2781
(ttp2782
(ts((S'ureddit.com'
p2783
tp2784
(ttp2785
((Vbeginnerscpp.com
p2786
F0.006572671888598781
tp2787
(Vfatsecret.com.au
p2788
F0.004678948612723494
tp2789
(V3pod.com.au
p2790
F0.004578399016372226
tp2791
(Vdev.solita.fi
p2792
F0.00436173082109968
tp2793
(Vwebcourseworks.com
p2794
F0.003127216921718232
tp2795
(Vthehybridathlete.com
p2796
F0.0023514834745883392
tp2797
(Vtelecommuterjobs.net
p2798
F0.002200164380097364
tp2799
(Vlocal.brookings.k12.sd.us
p2800
F0.002117690013996227
tp2801
(Vevasdigital.co
p2802
F0.0018805682450380422
tp2803
(Vuniversityofreddit.com
p2804
F0.0013201869970415694
tp2805
(Vludosoul.wordpress.com
p2806
F0.0012700212020068434
tp2807
(Vmole-reads.tumblr.com
p2808
F0.0012221340955459448
tp2809
(Vwipp.energy.gov
p2810
F0.001025010250102501
tp2811
(Vmail.yoox.biz
p2812
F0.0010156743254000932
tp2813
(Vapexbookcompany.com
p2814
F0.0010100822701702092
tp2815
(Vcodeception.com
p2816
F0.0009424400667020082
tp2817
(Vincidentalcomplexity.com
p2818
F0.0009344921035417251
tp2819
(Vdogfalo.github.io
p2820
F0.0009123859517560306
tp2821
(Vacsf.com.au
p2822
F0.0008911864087341653
tp2823
(Vwindenergyfoundation.org
p2824
F0.0008400938928468477
tp2825
tp2826
s((S'paulund.co.uk'
p2827
tp2828
(ttp2829
((Vdesignfloat.com
p2830
F0.014682317874154185
tp2831
(Vtikslus.com
p2832
F0.009972109256922046
tp2833
(Vtuflow.com
p2834
F0.00941413071944854
tp2835
(Vthemeswordpressfree.com
p2836
F0.0064874181764638375
tp2837
(V1dex.ch
p2838
F0.005137631363583222
tp2839
(Vcodingfusion.com
p2840
F0.005027579500723988
tp2841
(Vwp-tips.net
p2842
F0.004666974061316192
tp2843
(Vdanangsmartphone.vn
p2844
F0.004652234916816997
tp2845
(Vtak.ee
p2846
F0.004626630229509653
tp2847
(Venjoycss.com
p2848
F0.004177601750527054
tp2849
(Ve-kitap.org
p2850
F0.004108657082764539
tp2851
(Vpurecssmenu.com
p2852
F0.0039179659775167705
tp2853
(Vccs.seemysite.us
p2854
F0.003615513921040149
tp2855
(Vpro.agence-hybrid.com
p2856
F0.003342605497371602
tp2857
(Vhobium.com
p2858
F0.003266090976893467
tp2859
(Vwplift.com
p2860
F0.0028646937118022783
tp2861
(Vsimplemediacode.info
p2862
F0.002693832260479542
tp2863
(Vcubic-bezier.com
p2864
F0.002685931857532827
tp2865
(Vleagueoflegends-wiki.com
p2866
F0.00265266660471949
tp2867
(Vgmgcongress.com
p2868
F0.0025931240388389495
tp2869
tp2870
s((S'docks.qc.ca'
p2871
tp2872
(ttp2873
((Vgoogle.com
p2874
F1.8234564997169045e-08
tp2875
tp2876
s((S'.'
p2877
tp2878
(ttp2879
(ts((S'collegehumor.com'
p2880
tp2881
(ttp2882
((Vdorkly.com
p2883
F0.008021933011457285
tp2884
(Vepicfail.com
p2885
F0.0012799687830245953
tp2886
(Vcracked.com
p2887
F0.0010912017310832412
tp2888
(Vwebmail.iac.com
p2889
F0.0010835730286289731
tp2890
(Vfunnyordie.com
p2891
F0.0008083489140107018
tp2892
(Vbitboard.com
p2893
F0.0007468065544100305
tp2894
(Vjakeandamir.com
p2895
F0.000684379580816286
tp2896
(Vsmosh.com
p2897
F0.0005418167439286141
tp2898
(Votaku-streamers.com
p2899
F0.0004226580805814449
tp2900
(Vescapistmagazine.com
p2901
F0.00037066058045890797
tp2902
(Vkillsometime.com
p2903
F0.0003187066730836541
tp2904
(Vexplosm.net
p2905
F0.00020320890175623739
tp2906
(Vslowrobot.com
p2907
F0.00019192407440080052
tp2908
(Vbreak.com
p2909
F0.00014199769895208476
tp2910
(Vcockenblog.tumblr.com
p2911
F0.00013743128785720813
tp2912
tp2913
s((S'thoughtbot.com'
p2914
tp2915
(ttp2916
((Vupcase.com
p2917
F0.024989667086915485
tp2918
(Vformkeep.com
p2919
F0.014646203355550037
tp2920
(Vjameschambers.co
p2921
F0.008357425242515544
tp2922
(Vtammersaleh.com
p2923
F0.004943316112993391
tp2924
(Vhoundci.com
p2925
F0.004806836698868746
tp2926
(Vsiyelo.com
p2927
F0.002945051927677963
tp2928
(Vgiantrobots.fm
p2929
F0.00211715962498671
tp2930
(Vmapsdesign.tumblr.com
p2931
F0.002099795643319399
tp2932
(Vapeth.com
p2933
F0.0019577595682550466
tp2934
(Vdevblog.avdi.org
p2935
F0.0019100218616960073
tp2936
(Vacademicwork.se
p2937
F0.0017322341701425485
tp2938
(Vrinse.io
p2939
F0.001560292892647523
tp2940
(Vatomic.io
p2941
F0.0014838520150369518
tp2942
(Vmartialcodex.com
p2943
F0.0014348262119961987
tp2944
(Vlvh.me
p2945
F0.0013953332488518147
tp2946
(Vbrightnewt.com
p2947
F0.0013170589638774016
tp2948
(Vsetentaydos.com
p2949
F0.0012088216882618495
tp2950
(Vryanterry.net
p2951
F0.0011578899857040137
tp2952
(Vdrp.io
p2953
F0.0011536686663590216
tp2954
(Vlaurium.nusii.com
p2955
F0.001150569134284429
tp2956
tp2957
s((S'oranlooney.com'
p2958
tp2959
(ttp2960
((Vnpmjs.org
p2961
F9.37878187396508e-06
tp2962
(Vsearch.disconnect.me
p2963
F2.222519934059104e-06
tp2964
(Vgithub.com
p2965
F1.2404606312831473e-07
tp2966
(Vgoogle.com.ua
p2967
F1.1512227389007056e-07
tp2968
(Vbing.com
p2969
F4.6492935284599696e-08
tp2970
tp2971
s((S'theoldreader.com'
p2972
tp2973
(ttp2974
((Vcluborlov.blogspot.com.br
p2975
F0.001629483712195623
tp2976
(Vhome.nielskim.nl
p2977
F0.001583765973314186
tp2978
(Vboards.cruisecritic.com
p2979
F0.001485453300561661
tp2980
(Vdtmpower.net
p2981
F0.0014122945690184302
tp2982
(Vmail.luetzen.dk
p2983
F0.0011100585027773505
tp2984
(Vportal.filadelfia.br
p2985
F0.0008692568306636837
tp2986
(Vgigabitescafe.com
p2987
F0.0007618165206089385
tp2988
(Vdelphifeeds.com
p2989
F0.0005999661440565003
tp2990
(Vbrusselnieuws.be
p2991
F0.0005860492509324877
tp2992
(Vtheaquilareport.com
p2993
F0.0005821878023734192
tp2994
(Vradionacional.com.ar
p2995
F0.0005543664620062667
tp2996
(Vvott.ru
p2997
F0.0004978213381410596
tp2998
(Vunz.com
p2999
F0.0004920895591088345
tp3000
(Vone.npr.org
p3001
F0.0004875921931996698
tp3002
(Vforum.pdnk.org
p3003
F0.00046894424078728703
tp3004
(Vwebmail.wmich.edu
p3005
F0.0004127460638011333
tp3006
(Vylilauta.org
p3007
F0.0003986461030724298
tp3008
(Vivorytower.com
p3009
F0.0003872626065568982
tp3010
(Vhomebrewchatter.com
p3011
F0.0003844828465516838
tp3012
(Vs126-pl.ogame.gameforge.com
p3013
F0.0003813682539531203
tp3014
tp3015
s((S'9gag.com'
p3016
tp3017
(ttp3018
((Vhugelol.com
p3019
F0.003233730888247263
tp3020
(Vmemecenter.com
p3021
F0.0025017981164674975
tp3022
(Vkwejk.pl
p3023
F0.0021561817990461748
tp3024
(Vmangareader.net
p3025
F0.001933358652853593
tp3026
(Vdumpert.nl
p3027
F0.0015286863776028295
tp3028
(Veksisozluk.com
p3029
F0.001271977269860276
tp3030
(Vtwitch.tv
p3031
F0.0012509446636704555
tp3032
(Vhiddenlol.com
p3033
F0.0010730062228643238
tp3034
(Vmangafox.me
p3035
F0.0006855088296482892
tp3036
(Vjeuxvideo.com
p3037
F0.0005999945477223184
tp3038
(Vhaivl.com
p3039
F0.0004240296668315654
tp3040
(Vmangahere.co
p3041
F0.0003718523999781129
tp3042
tp3043
s((S'pow.cx'
p3044
tp3045
(ttp3046
(ts((S'github.com'
p3047
tp3048
(ttp3049
((Vcode.google.com
p3050
F0.00407012608671127
tp3051
(Vrubygems.org
p3052
F0.0035773462484789457
tp3053
(Vraw.githubusercontent.com
p3054
F0.0034577717855745157
tp3055
(Vstackoverflow.com
p3056
F0.003441503954031439
tp3057
(Vbitbucket.org
p3058
F0.003385212782873444
tp3059
(Vnpmjs.org
p3060
F0.002854017136546961
tp3061
(Vpypi.python.org
p3062
F0.002706602897481004
tp3063
(Vnews.ycombinator.com
p3064
F0.0019993154488276
tp3065
(Vgit-scm.com
p3066
F0.0019871032599025357
tp3067
(Vdocs.angularjs.org
p3068
F0.0012442907118560913
tp3069
(Vhaxiomic.github.io
p3070
F0.0006659055953985048
tp3071
(Vpivotaltracker.com
p3072
F0.0005625324970995607
tp3073
tp3074
s((S'runnable.com'
p3075
tp3076
(ttp3077
(ts((S'youtube.com'
p3078
tp3079
(ttp3080
(ts((S'speakerdeck.com'
p3081
tp3082
(ttp3083
((Vdemo.coffee-themes.com
p3084
F0.0039671592074744305
tp3085
(Vspeakerd.s3.amazonaws.com
p3086
F0.0031840326414409345
tp3087
(Vstartupsmart.com.au
p3088
F0.0024248497613811744
tp3089
(Vmaddisondesigns.com
p3090
F0.0023298317533521225
tp3091
(Vthemes-lab.com
p3092
F0.0022676382593878877
tp3093
(Vfontstruct.com
p3094
F0.0022317005850366494
tp3095
(Vreadability.com
p3096
F0.002135284711928032
tp3097
(Vadmin.smartphone.userlocal.jp
p3098
F0.002003364625203868
tp3099
(Vbagtheweb.com
p3100
F0.001999111954713731
tp3101
(Vclickwork7network.com
p3102
F0.0017965561747034368
tp3103
(Vinteractly.com
p3104
F0.0017284060116690148
tp3105
(Vtest.proxistore.com
p3106
F0.001579048509965591
tp3107
(Vrajhimself.com
p3108
F0.0013000119296729658
tp3109
(Vcodecondo.com
p3110
F0.001220573693455316
tp3111
(Vcss-happylife.com
p3112
F0.0011575611844464764
tp3113
(Vaneventapart.com
p3114
F0.0011068669516008853
tp3115
(Vmaketea.co.uk
p3116
F0.0009992090820833237
tp3117
(V960.gs
p3118
F0.0009955768862741556
tp3119
(Vgrapplemobile.atlassian.net
p3120
F0.000977010403519926
tp3121
(Vadmin.taggedpdf.com.au
p3122
F0.0008888000838847269
tp3123
tp3124
s((S'javascriptkit.com'
p3125
tp3126
(ttp3127
(ts((S'quirksmode.org'
p3128
tp3129
(ttp3130
(ts((S'stackexchange.com'
p3131
tp3132
(ttp3133
((Vdrupal.org
p3134
F0.0018087338073138374
tp3135
(Vsuperuser.com
p3136
F0.0017565770216195539
tp3137
(Vstackoverflow.com
p3138
F0.0017298447513904261
tp3139
(Vexchange.jacobs-university.de
p3140
F0.0017227839744996746
tp3141
(Vencrypted.google.com
p3142
F0.0016974100217127502
tp3143
(Vstartpage.com
p3144
F0.0011022911608110297
tp3145
(Vknightsandmerchants.net
p3146
F0.0010559136442041205
tp3147
(Vcourses.edx.org
p3148
F0.0009489679492966093
tp3149
(Vwen.lu
p3150
F0.0007011318157478892
tp3151
(Vdev53.mainlinemenswear.co.uk
p3152
F0.0004911855144103377
tp3153
(Vbodytonicmusic.com
p3154
F0.0004665108146013598
tp3155
(Vwpsites.net
p3156
F0.00045658378453616134
tp3157
(Vmathoverflow.net
p3158
F0.00038500259922329095
tp3159
(Vbuildwithcraft.com
p3160
F0.00036671354486146547
tp3161
(Vshkspr.mobi
p3162
F0.00034314590131385466
tp3163
tp3164
s((S'rubyonrails.org'
p3165
tp3166
(ttp3167
((Vapidock.com
p3168
F0.011397494420702052
tp3169
(Vrubygems.org
p3170
F0.008203633250278028
tp3171
(Vgotealeaf.com
p3172
F0.005455874526601032
tp3173
(Vrailstutorial.org
p3174
F0.004871535033275358
tp3175
(Vruby-doc.org
p3176
F0.004805262911288739
tp3177
(Vruby-forum.com
p3178
F0.004490223826882239
tp3179
(Vruby-lang.org
p3180
F0.0032113084093923576
tp3181
(Vbloc.io
p3182
F0.00318059571273871
tp3183
(Vreinteractive.net
p3184
F0.001720967333430777
tp3185
(Vrelishapp.com
p3186
F0.0013700371245817546
tp3187
(Vjira.greenmile.com
p3188
F0.0012420964931221224
tp3189
(Vamberbit.com
p3190
F0.0011787522780099952
tp3191
(Vruby-china.org
p3192
F0.000915150624069657
tp3193
(Vrails.org
p3194
F0.0008464418997255876
tp3195
(Vrailsforzombies.org
p3196
F0.0007531036531073972
tp3197
tp3198
s((S'linuxjournal.com'
p3199
tp3200
(ttp3201
((Vplay0ad.com
p3202
F0.007972660221054225
tp3203
(Vgrc.com
p3204
F0.00647141761691918
tp3205
(Vislametinfo.fr
p3206
F0.003816693772624731
tp3207
(Vmfrtech.com
p3208
F0.003299980133259979
tp3209
(Vstaceypageonline.com
p3210
F0.002611479327291582
tp3211
(Vweb.tiscali.it
p3212
F0.002206592194180113
tp3213
(Vvuenosairez.com
p3214
F0.002110189065787111
tp3215
(Vgoogleblog.blogspot.ca
p3216
F0.0021021366248038047
tp3217
(Viso.linuxquestions.org
p3218
F0.00205698044304996
tp3219
(Vapp.flowkey.com
p3220
F0.002010494615044506
tp3221
(Vlxer.com
p3222
F0.0017342140696928467
tp3223
(Vpubservice.com
p3224
F0.0016237614530817824
tp3225
(Vswtch.com
p3226
F0.0016066199103156131
tp3227
(Vlinuxformat.co.uk.hypestat.com
p3228
F0.0015858338656718014
tp3229
(Vthemukt.com
p3230
F0.0015653612543401665
tp3231
(Vandroidlista.com
p3232
F0.0015486774962675757
tp3233
(Vmakerzone.mathworks.com
p3234
F0.0014968938741111305
tp3235
(Vlinuxstory.org
p3236
F0.001406172434392643
tp3237
(Vlinuxine.com
p3238
F0.0014034815981275438
tp3239
(Vchili-tv.it
p3240
F0.0013159468347682625
tp3241
tp3242
s((S'ruby-lang.org'
p3243
tp3244
(ttp3245
((Vcas-01.uni.ad.sunderland.ac.uk
p3246
F0.012872928541706572
tp3247
(Vref.xaio.jp
p3248
F0.004998883713543663
tp3249
(Vrubyforge.org
p3250
F0.003566180092713265
tp3251
(Vguides.ruby.tw
p3252
F0.0033659435810147755
tp3253
(Vopenshift.com
p3254
F0.003261580787297741
tp3255
(Vjemmywalker.pixnet.net
p3256
F0.0028971000803575207
tp3257
(Vblade.nagaokaut.ac.jp
p3258
F0.0024790205130732737
tp3259
(Vruby-auf-schienen.de
p3260
F0.0022711603195847024
tp3261
(Vrubyclub.blogspot.com
p3262
F0.0021561004694637754
tp3263
(Vhelp.rallydev.com
p3264
F0.002068458282306121
tp3265
(Vruby-doc.com
p3266
F0.0019892545575918353
tp3267
(Vrailsdoc.com
p3268
F0.0019050279129559802
tp3269
(Vtheadmin.org
p3270
F0.0019036383809625046
tp3271
(Vbebo.com
p3272
F0.0018038020923432463
tp3273
(Vpine.fm
p3274
F0.001572538640588942
tp3275
(Vsldn.softlayer.com
p3276
F0.0015296219648572567
tp3277
(Vrubyinstaller.org
p3278
F0.0015030799755354062
tp3279
(Vfoad.simplon.co
p3280
F0.0014549651702471815
tp3281
(Vrusrails.ru
p3282
F0.001415963079495097
tp3283
(Vcharliewaite.me
p3284
F0.001348086772597759
tp3285
tp3286
s.