(dp0
((S'pocketworx.com'
p1
tp2
(ttp3
(ts((S'mojotech.com'
p4
tp5
(ttp6
(ts((S'railsenvy.com'
p7
tp8
(ttp9
((Vproxylala.pw
p10
F0.07315634218289085
tp11
(Vafreshcup.wordpress.com
p12
F0.061630218687872766
tp13
(Vtheodinproject.com
p14
F0.000533130952642291
tp15
(Vforum.rubyonrails.pl
p16
F6.492624968274674e-05
tp17
(Vrailscasts.com
p18
F5.9049096962160154e-05
tp19
(Vkora-online.tv
p20
F5.540333318764308e-06
tp21
(Vyoutube.com
p22
F8.756484556477331e-10
tp23
tp24
s((S'python.org'
p25
tp26
(ttp27
((Vdjangopackages.com
p28
F0.028235770318671527
tp29
(Vdocs.djangoproject.com
p30
F0.011797606215775544
tp31
(Vpythonhosted.org
p32
F0.0072327330062755026
tp33
(Vwikidocs.net
p34
F0.00331444475734783
tp35
(Vnetworkx.github.io
p36
F0.0025721363577256035
tp37
(Vpython3wos.appspot.com
p38
F0.0017378741652830621
tp39
(Vconfluence.atlassian.com
p40
F0.001071124946390917
tp41
(Vpure-forum.org
p42
F0.0008837824192407215
tp43
(Vmoodle.macalester.edu
p44
F0.0007187880924060596
tp45
(Vdeveloper.foursquare.com
p46
F0.000605093370590939
tp47
(Vprogrammeerimine.cs.ut.ee
p48
F0.00043730836141456323
tp49
(Vtrailtiger.com
p50
F0.0004264912335899067
tp51
(Vvirtualenv.pypa.io
p52
F0.0004119807334448899
tp53
(Vliaoxuefeng.com
p54
F0.00039731681140257646
tp55
(Vpagekite.net
p56
F0.00038970019874352943
tp57
(Vh.yandex-team.ru
p58
F0.00032120697262060226
tp59
(Vreplicat.org
p60
F0.00030196437819484144
tp61
tp62
s((S'rydia.net'
p63
tp64
(ttp65
((Vsincomics.com
p66
F0.021359696539829148
tp67
(Vhalflightcomics.com
p68
F0.012060105220756076
tp69
(Vstoryofthedoor.com
p70
F0.012027073087597992
tp71
(Valexanderthekid.tumblr.com
p72
F0.01121503814021068
tp73
(Vdcisgoingtohell.com
p74
F0.010699820225692566
tp75
(Vdubiouscompany.com
p76
F0.008778554737132042
tp77
(Vushala.smackjeeves.com
p78
F0.007147921459680803
tp79
(Vtrue-magic.com
p80
F0.006756772051863651
tp81
(Veqcomics.com
p82
F0.004581133879620812
tp83
(Vteamheartgold.deviantart.com
p84
F0.0041985387859174265
tp85
(Veverblue-comic.com
p86
F0.004143634823308365
tp87
(Vforgottenordercomic.com
p88
F0.003456092237085129
tp89
(Vamyachronicles.com
p90
F0.0028932456769697056
tp91
(Vblackbird.ashen-ray.com
p92
F0.002813647717287217
tp93
(Vhttydireth-vespera.smackjeeves.com
p94
F0.0020531153005398485
tp95
(Vdigitalextremes.slack.com
p96
F0.0016468962340205
tp97
(Vblindsprings.com
p98
F0.001613013680589577
tp99
(Vteahousecomic.com
p100
F0.0013120810467020735
tp101
(Vgiginuzlocke.smackjeeves.com
p102
F0.0011640229070923036
tp103
(Vegscomics.com
p104
F0.0010893065517749412
tp105
tp106
s((S'nuclearsquid.com'
p107
tp108
(ttp109
((Vmolotang.com
p110
F0.025083419629501783
tp111
(Vcrucible.corp.appnexus.com
p112
F0.0014309814038058852
tp113
(Vanswers.perforce.com
p114
F0.000850176451716394
tp115
(Vruby-forum.com
p116
F0.00012045186657374666
tp117
(Vx.sankuai.com
p118
F7.04903956835881e-05
tp119
(Vpinboard.in
p120
F7.1203116432007166e-06
tp121
(Vtheverge.com
p122
F2.8217985580072086e-06
tp123
(Vsuperuser.com
p124
F1.8128071291828394e-06
tp125
(Vstackoverflow.com
p126
F7.170873291331439e-07
tp127
(V8tracks.com
p128
F4.5838400205375003e-07
tp129
(Vgoogle.com.ph
p130
F6.325116749043523e-08
tp131
(Vgithub.com
p132
F2.4893524466823384e-08
tp133
(Vgoogle.com
p134
F2.4395329918893198e-08
tp135
(Vmail.google.com
p136
F9.62054693148217e-09
tp137
(Vfacebook.com
p138
F3.2707786008337474e-10
tp139
tp140
s((S'penny-arcade.com'
p141
tp142
(ttp143
(ts((S'nasa.gov'
p144
tp145
(ttp146
((Vnasa.jerusalem.com
p147
F0.0034835518377293096
tp148
(Vspaceweather.com
p149
F0.0033475442840786474
tp150
(Vspace.com
p151
F0.002945265177369104
tp152
(Vswpc.noaa.gov
p153
F0.002494603391767854
tp154
(Vesa.int
p155
F0.001361835042951779
tp156
(Vwhat-if.xkcd.com
p157
F0.0012732149429607702
tp158
(Vciclops.org
p159
F0.0012026940365659103
tp160
(Vcoasttocoastam.com
p161
F0.0011265697014438598
tp162
(Vmarssociety.de
p163
F0.00112391909362521
tp164
(Vweb.taskcracker.com
p165
F0.001026107590113099
tp166
(Vbibobuzz.com
p167
F0.0009696968425407064
tp168
(Vnanowerk.com
p169
F0.0008919591961055805
tp170
(Vbarnstormers.com
p171
F0.000739077425229431
tp172
(Vepod.usra.edu
p173
F0.000649929188302291
tp174
(Vroshihogan.blogspot.com
p175
F0.0006483939270824397
tp176
(Vsolarham.net
p177
F0.0006229008473932558
tp178
(Vharztourist.de
p179
F0.0005347227582500918
tp180
(Vgoehren-ruegen.de
p181
F0.0004998782773573379
tp182
(Vstats.mutu.sivit.org
p183
F0.0004962087088050525
tp184
tp185
s((S'sivers.org'
p186
tp187
(ttp188
((Vexamine.com
p189
F0.007219883173093456
tp190
(Vuwitechnology.com
p191
F0.006839846558005141
tp192
(Vtruefilms.com
p193
F0.0034328335396701663
tp194
(Vsitebeam.net
p195
F0.0032794691752359648
tp196
(Vdocs.withdraft.com
p197
F0.0030549495715956874
tp198
(Vmynavigatorweb.nl
p199
F0.0028599137643591107
tp200
(Vsingapore.recruit.net
p201
F0.0025840897233237402
tp202
(Vmarketplaceleaders.org
p203
F0.0025240834176874162
tp204
(Vblog.placeit.net
p205
F0.0020766650167739096
tp206
(Vkairosbio.com
p207
F0.0019437477085309572
tp208
(Vcenteroftheweb.com
p209
F0.0019412848515847046
tp210
(Valytadros.com
p211
F0.001937933895566251
tp212
(Vfullstackacademy.slack.com
p213
F0.0018748035385513495
tp214
(Vrailstutorial.org
p215
F0.0018368225687322617
tp216
(Vlintool.github.io
p217
F0.0018285739313244568
tp218
(Vhiretheworld.com
p219
F0.0018284838365313551
tp220
(Vadvancedlifeskills.com
p221
F0.0017834354092023132
tp222
(Vballcharts.com
p223
F0.0017386913484488426
tp224
(Vci.appveyor.com
p225
F0.001590201798643241
tp226
(Vblog.zackshapiro.com
p227
F0.0014996575814189902
tp228
tp229
s((S'github.io'
p230
tp231
(ttp232
((Vlukecarbis.github.io
p233
F0.019639527656929768
tp234
(Vbuke.github.io
p235
F0.013217398454201612
tp236
(Vbriangordon.github.io
p237
F0.009287699283311393
tp238
(Vgpeyre.github.io
p239
F0.008611401092566274
tp240
(V6889692.github.io
p241
F0.008225091134009764
tp242
(Vmattsharpe.github.io
p243
F0.00815808798985246
tp244
(Vkalakuh.github.io
p245
F0.007584589614740369
tp246
(Vstevejwikeley.github.io
p247
F0.00743578488101414
tp248
(Vgovlab.github.io
p249
F0.005946039187036417
tp250
(Vlopezrj.github.io
p251
F0.005642699636979904
tp252
(Vrweather.github.io
p253
F0.005466472303206997
tp254
(Vharrydeluxe.github.io
p255
F0.005292730375055698
tp256
(Vfavoorr.github.io
p257
F0.004616774648508087
tp258
(Vthink2011.github.io
p259
F0.004302731567056891
tp260
(Vlxc-webpanel.github.io
p261
F0.00421468554494567
tp262
(Viamtrask.github.io
p263
F0.003928938799817474
tp264
(Vgit.github.io
p265
F0.0037792006892635455
tp266
(Vjakiestfu.github.io
p267
F0.0036454348083036284
tp268
(Vigorescobar.github.io
p269
F0.0036386593204775024
tp270
(Vwxfengyun.github.io
p271
F0.0036010132128431577
tp272
tp273
s((S'extracheese.org'
p274
tp275
(ttp276
(ts((S'ynet.co.il'
p277
tp278
(ttp279
(ts((S'dropbox.com'
p280
tp281
(ttp282
((Vapp.box.com
p283
F0.0013404739791132872
tp284
(Vonedrive.live.com
p285
F0.0013325521252906328
tp286
(Vmail.google.com
p287
F0.0012791638643396106
tp288
(Vwetransfer.com
p289
F0.0012718690578820595
tp290
(Vdl.dropboxusercontent.com
p291
F0.001113213379752746
tp292
(Vbasecamp.com
p293
F0.0009847477842498521
tp294
(Vevernote.com
p295
F0.000911169342945063
tp296
(Vtrello.com
p297
F0.0007707266331317271
tp298
(Vgoo.gl
p299
F0.0005643067133763446
tp300
(Vapp.asana.com
p301
F0.0003447113809095475
tp302
(Vpastebin.com
p303
F0.0002867605076989273
tp304
(Vbit.ly
p305
F0.00028238188059720985
tp306
(Vdb.tt
p307
F0.00024846578865390364
tp308
(Vodesk.com
p309
F0.00023057830681953457
tp310
tp311
s((S'cappuccino-project.org'
p312
tp313
(ttp314
(ts((S'w3schools.com'
p315
tp316
(ttp317
((Vw3school.com
p318
F0.011502063248230303
tp319
(Vinfo343.ischool.uw.edu
p320
F0.00222680914685972
tp321
(Vhackthissite.org
p322
F0.0020351576929919703
tp323
(Vw3.org
p324
F0.0016574297507289558
tp325
(Vkb.iu.edu
p326
F0.0013406884083077707
tp327
(Vspidermarks.com
p328
F0.0011385526915260464
tp329
(Vtutorialspoint.com
p330
F0.0009175821542880868
tp331
(Vpicoctf.com
p332
F0.0004549384568337717
tp333
(Vw3shools.com
p334
F0.00037857890125446626
tp335
(Vapi.jquery.com
p336
F0.0003059480826287719
tp337
(Vmarianocalvo.com
p338
F0.0002950192275021
tp339
(Vprofit.notice.nl
p340
F0.00028931787484113804
tp341
(Vinsight.ccsf.edu
p342
F0.00027594889236203874
tp343
(Vxps.pk4labs.com
p344
F0.0002748864938891834
tp345
(Vtoster.ru
p346
F0.00025806812375980776
tp347
(Vkarlstads.itslearning.com
p348
F0.00022547500963902747
tp349
(Vhtmlgoodies.com
p350
F0.00021626982800444284
tp351
tp352
s((S'surrey.ac.uk'
p353
tp354
(ttp355
((Vpod51031.outlook.com
p356
F0.0017963586262663706
tp357
(Vexchange.uml.edu
p358
F0.0016144286007902184
tp359
(Vproximity.instructure.com
p360
F0.0015774356511539845
tp361
(Vexchange.ict.usc.edu
p362
F0.0015382841826919614
tp363
(Vsavingcountrymusic.com
p364
F0.0014328752846817757
tp365
(Vkaggle.com
p366
F0.001367232926914554
tp367
(Vussu.co.uk
p368
F0.0012484564641502206
tp369
(Vsurrey.summon.serialssolutions.com
p370
F0.0012332027866896894
tp371
(Vthecompleteuniversityguide.co.uk
p372
F0.0009841707655122726
tp373
(Vuppmax.uu.se
p374
F0.0009450092846242944
tp375
(Vsurrey-uk.sona-systems.com
p376
F0.0008319067088646201
tp377
(Vukeas.com.tw
p378
F0.0007918761171179304
tp379
(Vlms.neumont.edu
p380
F0.0007807936079197472
tp381
(Vunitemps.com
p382
F0.0007186507649313663
tp383
(Vbda.uk.com
p384
F0.0007096719081631982
tp385
(Vcreativeplusonline.co.uk
p386
F0.0006779957155228734
tp387
(Vcancercentrelondon.co.uk
p388
F0.0006776894018489342
tp389
(Vgradintel.com
p390
F0.0006630566913471102
tp391
(Vprogramsinformationpeople.org
p392
F0.0005993082113115775
tp393
(Vemeraldinsight.com
p394
F0.0005816681288147595
tp395
tp396
s((S'iosreviews.net'
p397
tp398
(ttp399
((Vfilter.usd262.net
p400
F0.0006673834859664083
tp401
(Va3.mzstatic.com
p402
F7.803355442840422e-05
tp403
(Vappszoom.com
p404
F2.7909670351906058e-05
tp405
(Vvimeo.com
p406
F4.509971547090617e-07
tp407
(Vgoogle.com.my
p408
F1.679023567040801e-07
tp409
(Vencrypted.google.com
p410
F1.581442718563291e-07
tp411
(Vduckduckgo.com
p412
F1.2340433203180587e-07
tp413
(Vtwitch.tv
p414
F6.699834316704951e-08
tp415
(Vgoogle.com
p416
F1.7100833862031203e-08
tp417
tp418
s((S'regexper.com'
p419
tp420
(ttp421
((Vstats.wefra.de
p422
F0.01654884318766067
tp423
(Vservices.balihoo.com
p424
F0.011492809144005528
tp425
(Virchelp.org
p426
F0.009514896272032445
tp427
(Vbalihoo.wikispaces.com
p428
F0.008600634473034897
tp429
(Vconfig.whatsapp.net
p430
F0.008235261768587769
tp431
(Vope.comlocal.com
p432
F0.0054417942296446095
tp433
(Vex-parrot.com
p434
F0.005244206124024955
tp435
(Vscriptular.com
p436
F0.004299777068208656
tp437
(Vquovo.slack.com
p438
F0.004205529280171921
tp439
(Vslant.co
p440
F0.004089682490907161
tp441
(Vifconfig.me
p442
F0.003823109724905924
tp443
(Vjex.im
p444
F0.003593484437396034
tp445
(Vregexpal.com
p446
F0.003533949522620317
tp447
(Vredmine.nokaut.pl
p448
F0.003469110832330577
tp449
(Vmyezapp.com
p450
F0.0033483126266631424
tp451
(Vosslab.msopentech.cn
p452
F0.003287199672690848
tp453
(Vregexcrossword.com
p454
F0.0032797965438917417
tp455
(Vflockhart.virtualave.net
p456
F0.003141157502640796
tp457
(Vww1.regexp.com
p458
F0.0030955896640652257
tp459
(Vwisepilgrim.tk
p460
F0.0027548002769799186
tp461
tp462
s((S'foobar2000.org'
p463
tp464
(ttp465
((Vxiph.org
p466
F0.012560316380569403
tp467
(Vchromium.woolyss.com
p468
F0.00955818180112687
tp469
(Vnnc-board.com
p470
F0.008407273052412243
tp471
(Vseriosoft.org
p472
F0.00812328805121656
tp473
(Vifi-audio.com
p474
F0.00682673706152465
tp475
(Vthalassa.feralhosting.com
p476
F0.006206348719177406
tp477
(Vexactaudiocopy.de
p478
F0.0059219804079789435
tp479
(Vhydrogenaud.io
p480
F0.004881531371685709
tp481
(Vsrware.net
p482
F0.0038989963128243216
tp483
(Vopen-end-music.de
p484
F0.0028752770792993695
tp485
(Vforum.pskovonline.ru
p486
F0.002540252362730567
tp487
(Vforum.hdmovie.vn
p488
F0.0019178192491957236
tp489
(Vmassengeschmack.tv
p490
F0.0017078779488777472
tp491
(Vforums.ffshrine.org
p492
F0.001649445296546487
tp493
(Vsmsserver.itouchnet.co.za
p494
F0.0015547791300949707
tp495
(Vburrrn.net
p496
F0.0013273025950887873
tp497
(Vjenny317.pixnet.net
p498
F0.0010201545082112753
tp499
(V10file.com
p500
F0.0009778273268755075
tp501
tp502
s((S'netdna-ssl.com'
p503
tp504
(ttp505
((Vservermat.info
p506
F0.015230253887760331
tp507
(Vfinedininglovers.com
p508
F0.007828688392923909
tp509
(Vblog.myfitnesspal.com
p510
F0.006571678856628307
tp511
(Vvisual.ly
p512
F0.005523052877933682
tp513
(Vredrow.co.uk
p514
F0.0054794740749505135
tp515
(Vgrainandmortar.com
p516
F0.005173594116386273
tp517
(Vskillsera.com
p518
F0.004438460562360511
tp519
(Vblank-box.net
p520
F0.003202477829561559
tp521
(Vkls-ukraine.com.ua
p522
F0.0026298015359082477
tp523
(Vfinerthings.in
p524
F0.002208584819772735
tp525
(Vhostedcloudy.com
p526
F0.001929990552717578
tp527
(Vzino.im
p528
F0.0017095925364803445
tp529
(Vsram.com
p530
F0.0015705995916889095
tp531
(Vs1magnettvcom.maynemyltf.netdna-cdn.com
p532
F0.0013414146062946583
tp533
(Vhomepath.com
p534
F0.0010985648416592306
tp535
(Vagents.equator.com
p536
F0.000992105542015471
tp537
(Vnewhdplugin.net
p538
F0.0006650805674776797
tp539
(Virvsluggage.com
p540
F0.0006295881279719576
tp541
(Vcool-tv.net
p542
F0.0006268836631248746
tp543
(Vbettielou.blogspot.com
p544
F0.0005037569778605635
tp545
tp546
s((S'linuxjournal.com'
p547
tp548
(ttp549
((Vplay0ad.com
p550
F0.007972660221054225
tp551
(Vgrc.com
p552
F0.00647141761691918
tp553
(Vislametinfo.fr
p554
F0.003816693772624731
tp555
(Vmfrtech.com
p556
F0.003299980133259979
tp557
(Vstaceypageonline.com
p558
F0.002611479327291582
tp559
(Vweb.tiscali.it
p560
F0.002206592194180113
tp561
(Vvuenosairez.com
p562
F0.002110189065787111
tp563
(Vgoogleblog.blogspot.ca
p564
F0.0021021366248038047
tp565
(Viso.linuxquestions.org
p566
F0.00205698044304996
tp567
(Vapp.flowkey.com
p568
F0.002010494615044506
tp569
(Vlxer.com
p570
F0.0017342140696928467
tp571
(Vpubservice.com
p572
F0.0016237614530817824
tp573
(Vswtch.com
p574
F0.0016066199103156131
tp575
(Vlinuxformat.co.uk.hypestat.com
p576
F0.0015858338656718014
tp577
(Vthemukt.com
p578
F0.0015653612543401665
tp579
(Vandroidlista.com
p580
F0.0015486774962675757
tp581
(Vmakerzone.mathworks.com
p582
F0.0014968938741111305
tp583
(Vlinuxstory.org
p584
F0.001406172434392643
tp585
(Vlinuxine.com
p586
F0.0014034815981275438
tp587
(Vchili-tv.it
p588
F0.0013159468347682625
tp589
tp590
s((S'theenchanter.com'
p591
tp592
(ttp593
(ts((S'mashable.com'
p594
tp595
(ttp596
((Vtechcrunch.com
p597
F0.003269554441150279
tp598
(Vthenextweb.com
p599
F0.0020893059576553882
tp600
(Vtheverge.com
p601
F0.0011964644051488723
tp602
(Vengadget.com
p603
F0.0011541180149668715
tp604
(Vwired.com
p605
F0.0010062199169788152
tp606
(Vt.co
p607
F0.001000532665223137
tp608
(Vgizmodo.com
p609
F0.0008873288390789227
tp610
(Vbusinessinsider.com
p611
F0.0007152040206950399
tp612
(Vdigg.com
p613
F0.0005093257403694798
tp614
(Vmacrumors.com
p615
F0.00048813763950878304
tp616
(Vfastcompany.com
p617
F0.0004186323234047929
tp618
(Varstechnica.com
p619
F0.00036950639928100704
tp620
(Vfeedly.com
p621
F0.000247658170357474
tp622
tp623
s((S'jasonseifer.com'
p624
tp625
(ttp626
((Vauto.pubtest.internal.33across.com
p627
F0.01332036660478001
tp628
(Vjuanpabloprado.com
p629
F0.007676274719129683
tp630
(Vpichost.me
p631
F0.00024074733939569222
tp632
(Vteamtreehouse.com
p633
F0.00023630208318629474
tp634
(Vmartinfowler.com
p635
F8.655217132744378e-05
tp636
(Vraindrop.io
p637
F2.303324849420138e-05
tp638
(Vdigitalocean.com
p639
F5.704592440587661e-06
tp640
(Vencrypted.google.com
p641
F2.6578255453102915e-06
tp642
(Vpivotaltracker.com
p643
F8.601690807198737e-07
tp644
(Vstackoverflow.com
p645
F7.90829840897358e-07
tp646
(Vb.hatena.ne.jp
p647
F3.9690572298361973e-07
tp648
(Vgithub.com
p649
F8.47725944524667e-08
tp650
tp651
s((S'stakeventures.com'
p652
tp653
(ttp654
(ts((S'overapi.com'
p655
tp656
(ttp657
((Vapis.pw
p658
F0.007200668343131401
tp659
(Vtroy.labs.daum.net
p660
F0.00701409345452805
tp661
(V121down.com
p662
F0.005797076194085878
tp663
(Vbullium.com
p664
F0.005647792665666607
tp665
(Vpittalis.hostings.co.uk
p666
F0.005007780530559443
tp667
(Vwebmail.garmin.com
p668
F0.004804957073805288
tp669
(Vbumpsdocumentarily.squarespace.com
p670
F0.004158373405198481
tp671
(Vorays.wd-works.com
p672
F0.004110381077529567
tp673
(Vbootgraph.net
p674
F0.004030362627239939
tp675
(Vredmine.infogene.fr
p676
F0.0034291946192749156
tp677
(Vmitarbeiter.hs-heilbronn.de
p678
F0.003285460978893482
tp679
(Vnote-pad.net
p680
F0.0032399080437864043
tp681
(Vupsideos.com
p682
F0.0032079887740138428
tp683
(Vscm.ulster.ac.uk
p684
F0.002922858853657464
tp685
(Vibmwebsphereportalserver.blogspot.pt
p686
F0.0026748188381356852
tp687
(Vytub3.com
p688
F0.0026007381348067253
tp689
(Vvertical3w.teamwork.com
p690
F0.002595337661272785
tp691
(Vfindpatent.ru
p692
F0.0025676768503163972
tp693
(Vcheat-sheets.org
p694
F0.0022810455972986374
tp695
(Vlocaltest.me
p696
F0.002195967292517345
tp697
tp698
s((S'meditation.com'
p699
tp700
(ttp701
((Vmedication.com
p702
F0.015265354800238521
tp703
(Vhoroscopedays.com
p704
F0.0001161929383741703
tp705
(Vbrilliant.org
p706
F6.724553867879327e-05
tp707
(Vamharicmovies.com
p708
F5.362787984026289e-05
tp709
(Vlequipe.fr
p710
F7.816310148203357e-07
tp711
(Ven.wikipedia.org
p712
F5.252421832353988e-08
tp713
(Vsearch.ask.com
p714
F3.7740381291546105e-08
tp715
(Vgoogle.ca
p716
F3.648383286054617e-08
tp717
(Vreddit.com
p718
F1.058890587253285e-08
tp719
(Vgoogle.co.in
p720
F3.669238772897556e-09
tp721
(Vfacebook.com
p722
F1.5397755423834308e-09
tp723
tp724
s((S'ureddit.com'
p725
tp726
(ttp727
((Vbeginnerscpp.com
p728
F0.006572671888598781
tp729
(Vfatsecret.com.au
p730
F0.004678948612723494
tp731
(V3pod.com.au
p732
F0.004578399016372226
tp733
(Vdev.solita.fi
p734
F0.00436173082109968
tp735
(Vwebcourseworks.com
p736
F0.003127216921718232
tp737
(Vthehybridathlete.com
p738
F0.0023514834745883392
tp739
(Vtelecommuterjobs.net
p740
F0.002200164380097364
tp741
(Vlocal.brookings.k12.sd.us
p742
F0.002117690013996227
tp743
(Vevasdigital.co
p744
F0.0018805682450380422
tp745
(Vuniversityofreddit.com
p746
F0.0013201869970415694
tp747
(Vludosoul.wordpress.com
p748
F0.0012700212020068434
tp749
(Vmole-reads.tumblr.com
p750
F0.0012221340955459448
tp751
(Vwipp.energy.gov
p752
F0.001025010250102501
tp753
(Vmail.yoox.biz
p754
F0.0010156743254000932
tp755
(Vapexbookcompany.com
p756
F0.0010100822701702092
tp757
(Vcodeception.com
p758
F0.0009424400667020082
tp759
(Vincidentalcomplexity.com
p760
F0.0009344921035417251
tp761
(Vdogfalo.github.io
p762
F0.0009123859517560306
tp763
(Vacsf.com.au
p764
F0.0008911864087341653
tp765
(Vwindenergyfoundation.org
p766
F0.0008400938928468477
tp767
tp768
s((S'usenet.org'
p769
tp770
(ttp771
(ts((S'youtu.be'
p772
tp773
(ttp774
((Vyoutube.be
p775
F0.002327771504181619
tp776
(Vuses.myherbalife.com
p777
F0.0022052491406921487
tp778
(Vbahrammoshiri.com
p779
F0.00120513846529179
tp780
(Vsteerbiddersales.com
p781
F0.0010856524094649729
tp782
(Vexams.evinrude.com
p783
F0.0009387105668307909
tp784
(Vwww2.memehk.com
p785
F0.000840664053480079
tp786
(Vmemehk.com
p787
F0.0006322798687984735
tp788
(Vmissyusa.com
p789
F0.0006279402146092168
tp790
(Vfollovvme.com
p791
F0.0004785133661676418
tp792
(Vtubetamil.com
p793
F0.0004547101225723085
tp794
(Vfirstlegoleague.org
p795
F0.0004278581860366056
tp796
(Vk8mer.com
p797
F0.00038935924897389785
tp798
(Vblaulichtreporter.de
p799
F0.0003442025800306291
tp800
(Veasykart.it
p801
F0.00034177048920407956
tp802
(Vnerdapproved.com
p803
F0.00033383098580019383
tp804
(Vwieboldtv.de
p805
F0.0003332203017659258
tp806
(Vphumidrama.com
p807
F0.00032757148580445696
tp808
(Vkilroynews.net
p809
F0.0003270797996804544
tp810
(Vhelpdesk.tankionline.com
p811
F0.0002683043007451439
tp812
(Vsaintsfc.co.uk
p813
F0.0002499477358238586
tp814
tp815
s((S'localhost.'
p816
tp817
(ttp818
(ts((S'tutorialspoint.com'
p819
tp820
(ttp821
((Vwiki.python.org
p822
F0.005812159708003393
tp823
(Vtutorialpoint.com
p824
F0.0021775165351430943
tp825
(Vjavatpoint.com
p826
F0.001968934012532698
tp827
(Vhexvolt.blogspot.ru
p828
F0.0015654524915361316
tp829
(Verhvervsakademisydvest.sharepoint.com
p830
F0.0010571098842477162
tp831
(Vrallydev.com
p832
F0.0007445860040062963
tp833
(Vcprogramming.com
p834
F0.0006934952073382222
tp835
(Vebooks-it.org
p836
F0.0006203165820055927
tp837
(Vmkyong.com
p838
F0.0005062963910686054
tp839
(Vlardoors.ru
p840
F0.00048065709207179333
tp841
(Vstudytonight.com
p842
F0.00044009319580119765
tp843
(Vhomeandlearn.co.uk
p844
F0.00042920870144858323
tp845
(Vhub.attask.com
p846
F0.00041461175045723575
tp847
(Vfhict.nl
p848
F0.0003724732036863049
tp849
(Vbatman.jamk.fi
p850
F0.00035189190319527444
tp851
(Vservices.brics.dk
p852
F0.00034668114031273604
tp853
(Vjava2s.com
p854
F0.0003430930183514621
tp855
(Vncvps.blackboard.com
p856
F0.00033488728945250517
tp857
(Vforum-alsacetech.org
p858
F0.00031760909843814436
tp859
(Vvogella.com
p860
F0.0003130399033593343
tp861
tp862
s((S'cappuccino.org'
p863
tp864
(ttp865
(ts((S'verou.me'
p866
tp867
(ttp868
(ts((S'sqlite.org'
p869
tp870
(ttp871
(ts((S'amazon.com'
p872
tp873
(ttp874
((Vebay.com
p875
F0.006738821250621747
tp876
(Vslickdeals.net
p877
F0.004120650473717563
tp878
(Vbestbuy.com
p879
F0.0030788964220882925
tp880
(Vwalmart.com
p881
F0.003050477312560511
tp882
(Vnewegg.com
p883
F0.002798296769576636
tp884
(Vnetflix.com
p885
F0.0024294274563549496
tp886
(Vreddit.com
p887
F0.002175753691217573
tp888
(Vgoogle.com
p889
F0.001391784985509667
tp890
(Vhulu.com
p891
F0.0011102072873126314
tp892
(Vblackfriday.com
p893
F0.0008052288786513178
tp894
(Vus-mg6.mail.yahoo.com
p895
F0.000766715618933907
tp896
(Vtarget.com
p897
F0.0007593360528991675
tp898
(Ven.wikipedia.org
p899
F0.0005814582312035169
tp900
(Vgoodreads.com
p901
F0.000495839687204871
tp902
tp903
s((S'brentozar.com'
p904
tp905
(ttp906
(ts((S'rubybestpractices.com'
p907
tp908
(ttp909
(ts((S'adobe.com'
p910
tp911
(ttp912
((Vmozilla.org
p913
F0.015111450175616077
tp914
(Vapps.facebook.com
p915
F0.0059619678680743506
tp916
(Vfilehippo.com
p917
F0.004900062455243954
tp918
(Vacrobat.com
p919
F0.004836207731470023
tp920
(Vshell.windows.com
p921
F0.004715263584245032
tp922
(Vfb1.farm2.zynga.com
p923
F0.004637787853163249
tp924
(Vsupport.google.com
p925
F0.0037578816140994334
tp926
(Vthanks.freesoftstore.com
p927
F0.002328482156562959
tp928
(Vupdate1024.com
p929
F0.0013898408960056395
tp930
(Vthanks.freesoftstore2.com
p931
F0.0013255858152199373
tp932
(Vowl.english.purdue.edu
p933
F0.0013105499640232714
tp934
(Veasyjet.com
p935
F0.0007198307701079823
tp936
(Vmacromedia.com
p937
F0.0006869022921899767
tp938
(Vsecure.sarsefiling.co.za
p939
F0.0006844256605296551
tp940
tp941
s((S'wikipedia.org'
p942
tp943
(ttp944
((Vencrypted.google.com
p945
F0.00771525505585607
tp946
(Vbing.com
p947
F0.004811910265206266
tp948
(Vanswers.yahoo.com
p949
F0.003100154798136046
tp950
(Vsearch.disconnect.me
p951
F0.0027486073979923428
tp952
(Vprinceton.edu
p953
F0.002546492596888385
tp954
(Vimdb.com
p955
F0.0020199007621722297
tp956
(Vboards.4chan.org
p957
F0.0011714401370427696
tp958
(Veksisozluk.com
p959
F0.001109914847106986
tp960
(Vduckduckgo.com
p961
F0.0010408949383171428
tp962
(Vreddit.com
p963
F0.000775024669043505
tp964
(Vwen.lu
p965
F0.0007574262961416565
tp966
(Vraterhub.com
p967
F0.00044425107955377627
tp968
(Vbaike.baidu.com
p969
F0.00035421615396662187
tp970
tp971
s((S'twitter.com'
p972
tp973
(ttp974
((Vinstagram.com
p975
F0.009640668836346135
tp976
(Vfacebook.com
p977
F0.005754900727130478
tp978
(Vtumblr.com
p979
F0.005717088994814716
tp980
(Vtwitch.tv
p981
F0.005152529468333346
tp982
(Vreddit.com
p983
F0.004914842497878588
tp984
(Vask.fm
p985
F0.004444513960399476
tp986
(Vlinkedin.com
p987
F0.003428389609628508
tp988
(Vyoutube.com
p989
F0.0033467710833313545
tp990
(Vgoogle.co.jp
p991
F0.0017641893086358437
tp992
(Vespn.go.com
p993
F0.001334680555584708
tp994
(Vvk.com
p995
F0.0008567391042836494
tp996
(Vgoogle.com.tr
p997
F0.0008184359701507858
tp998
tp999
s((S'google.com'
p1000
tp1001
(ttp1002
(ts((S'coursera.org'
p1003
tp1004
(ttp1005
((Vcourses.edx.org
p1006
F0.005682409218958396
tp1007
(Vudacity.com
p1008
F0.0032743153315409304
tp1009
(Vcodeskulptor.org
p1010
F0.002716798767326224
tp1011
(Vedx.org
p1012
F0.002345213620656822
tp1013
(Vmooc.guokr.com
p1014
F0.001304445694573597
tp1015
(Vudemy.com
p1016
F0.0012989515229204602
tp1017
(Vcodecademy.com
p1018
F0.001094793903822028
tp1019
(Vfuturelearn.com
p1020
F0.001069718425067974
tp1021
(Vd396qusza40orc.cloudfront.net
p1022
F0.0009671142040794794
tp1023
(Vmysliderule.com
p1024
F0.0006418503366131907
tp1025
(Vmiriadax.net
p1026
F0.0006400923571775631
tp1027
(Vocw.mit.edu
p1028
F0.0005196729488418822
tp1029
(Vonline.stanford.edu
p1030
F0.0004266295741752318
tp1031
(V1point3acres.com
p1032
F0.00034809050272295626
tp1033
tp1034
s((S'puzzlescript.net'
p1035
tp1036
(ttp1037
(ts((S'padolsey.com'
p1038
tp1039
(ttp1040
((Vpapagoarchery.com
p1041
F0.010473375849017473
tp1042
(Vvintagephotoboothnyc.com
p1043
F0.00996644957568581
tp1044
(Vwebmail.digitalgear.com
p1045
F0.007198731312699346
tp1046
(Vgod.richard.dev.xen.lan.expert-shops.com
p1047
F0.005221312448083541
tp1048
(Vfoaas.com
p1049
F0.005002293011606166
tp1050
(Vcnfeat.com
p1051
F0.00401750239583653
tp1052
(Vwifi.weixin.qq.com
p1053
F0.003792761744407321
tp1054
(Vfrontend.richard.dev.xen.lan.expert-shops.com
p1055
F0.0036325652028917203
tp1056
(Vjira.foryouandyourteam.com
p1057
F0.003233026610295946
tp1058
(Vicescrum.i-dalgo2.com
p1059
F0.003064895530648955
tp1060
(Vabgmanagementlimited.quickbase.com
p1061
F0.002340158796489762
tp1062
(Vsave-dep-mukku.blogspot.jp
p1063
F0.0023262142399424154
tp1064
(Vzero11.com.br
p1065
F0.0023032042085126734
tp1066
(Vwiki.s00.jp
p1067
F0.002212426322029087
tp1068
(Vozekisms.com
p1069
F0.0018377987713592483
tp1070
(Vzhangxinxu.com
p1071
F0.0016898954023123237
tp1072
(Vcvmlrobotics.blogspot.com
p1073
F0.0016786257882148291
tp1074
(Vredwoods.com
p1075
F0.0016160499719493919
tp1076
(Vrandomsnippets.com
p1077
F0.0013289677088390124
tp1078
(Vejohn.org
p1079
F0.0012231300524343327
tp1080
tp1081
s((S'blogspot.com'
p1082
tp1083
(ttp1084
((Vassemblagemagazine.blogspot.co.uk
p1085
F0.006541988631317168
tp1086
(Vm5newsroom.blogspot.com
p1087
F0.004036872954197155
tp1088
(Vynotdownload.blogspot.fr
p1089
F0.0022117442599623263
tp1090
(Vmthplay.blogspot.com
p1091
F0.0020413221935465056
tp1092
(Vhamidrezashaabani.blogspot.com
p1093
F0.0019204729711661645
tp1094
(Vaufannada.blogspot.com
p1095
F0.0017903645833333333
tp1096
(Vbpi.fr
p1097
F0.0017869947498546654
tp1098
(Vesmor.blogspots.com
p1099
F0.00178335979137614
tp1100
(Vnasirabdulsattar.blogspot.com
p1101
F0.0015214354157980588
tp1102
(Vblogdauyeu.blogspot.com
p1103
F0.0015159288469955333
tp1104
(Vnetnam.vn
p1105
F0.0015090202188512115
tp1106
(Vncngame.blogspot.com
p1107
F0.0015063179670179727
tp1108
(Vm88vn.com
p1109
F0.001409084418436105
tp1110
(Vmncshop.co.id
p1111
F0.001362530038324371
tp1112
(Vmywardrobesl.blogspot.com
p1113
F0.0011306262301520825
tp1114
(Vshishology.blogspot.com
p1115
F0.0010837903091795939
tp1116
(Vkaka1951989.blogspot.com
p1117
F0.0010813764505062807
tp1118
(Vblogspots.com
p1119
F0.0010752472369247685
tp1120
(Vapp-vn.blogspot.com
p1121
F0.0010721612178382198
tp1122
(Vchoukngok.blogspot.com
p1123
F0.0010719783990852125
tp1124
tp1125
s((S'lifehacker.com'
p1126
tp1127
(ttp1128
(ts((S'similarweb.com'
p1129
tp1130
(ttp1131
(ts((S'labnol.org'
p1132
tp1133
(ttp1134
((Vdictation.io
p1135
F0.053638048227418224
tp1136
(Vshoutmeloud.com
p1137
F0.006330967493765026
tp1138
(Vchandigarh.craigslist.co.in
p1139
F0.005956020018352308
tp1140
(Vctrlq.org
p1141
F0.003126295253718603
tp1142
(Vsoftwarerecs.stackexchange.com
p1143
F0.0024987468507650713
tp1144
(Vwarriorbreak.com
p1145
F0.0018003759225045986
tp1146
(Vdavidwalsh.name
p1147
F0.0017453391136774254
tp1148
(Vchillingeffects.org
p1149
F0.0010805928441890496
tp1150
(Vbocktherobber.com
p1151
F0.0010176242920439393
tp1152
(Vdeadurl.com
p1153
F0.0009012318677442234
tp1154
(Vcrack-net.com
p1155
F0.0008675788308667134
tp1156
(Vacessotop.semanatopenem.com
p1157
F0.0008457425669831452
tp1158
(Vplaytool.com
p1159
F0.000833971133323157
tp1160
(Vblog.teamtreehouse.com
p1161
F0.0007845697379048289
tp1162
(Vscript.google.com
p1163
F0.000775616447790688
tp1164
(Vcurso.aspasl.com
p1165
F0.0007295140509111274
tp1166
(Vmuro.sk
p1167
F0.0007203143020910928
tp1168
(Vdigitalhubinc.com
p1169
F0.0006249173569437375
tp1170
(Vmeteoalarm.eu
p1171
F0.0006155205087474934
tp1172
(Vbazqux.com
p1173
F0.0006142111911626334
tp1174
tp1175
s((S'microsoft.com'
p1176
tp1177
(ttp1178
((Vaccount.live.com
p1179
F0.03392699089457
tp1180
(Vsupport.skype.com
p1181
F0.0035348837961288793
tp1182
(Vsupport.google.com
p1183
F0.0034552858349033064
tp1184
(Vaz307127.vo.msecnd.net
p1185
F0.0022238317607300075
tp1186
(Vbing.com
p1187
F0.0021814967174457966
tp1188
(Vinsider.windows.com
p1189
F0.0020978542030613587
tp1190
(Vsupport.mozilla.org
p1191
F0.0014405952463219156
tp1192
(Vshell.windows.com
p1193
F0.0009299673249284091
tp1194
(Vwunderlist.com
p1195
F0.000919005584821735
tp1196
(Vsupport.office.com
p1197
F0.0008910745265042753
tp1198
(Vmozilla.org
p1199
F0.0008072399269828862
tp1200
(Voffice.com
p1201
F0.0007969000993079764
tp1202
(Vportal.office.com
p1203
F0.0005823095407318863
tp1204
(Vjava.com
p1205
F0.0005101489984820142
tp1206
(Vmystartsearch.com
p1207
F0.0004853991371988819
tp1208
(Vmicrosoftstore.com
p1209
F0.0004429218660199628
tp1210
(Viegallery.com
p1211
F0.00043285860820947095
tp1212
tp1213
s((S'sitepoint.com'
p1214
tp1215
(ttp1216
((Vlearnable.com
p1217
F0.003775512545387916
tp1218
(Vtutsplus.com
p1219
F0.0018674564890191878
tp1220
(Vjquery4u.com
p1221
F0.0015746334577439493
tp1222
(Vsmashingmagazine.com
p1223
F0.0015285013069617425
tp1224
(Vphpdeveloper.org
p1225
F0.0009926448925364107
tp1226
(Vaskleo.com
p1227
F0.0007617632740019425
tp1228
(Vrockettheme.com
p1229
F0.0006841783339726206
tp1230
(Vohio.edu
p1231
F0.0006826065234712008
tp1232
(Vbaymard.com
p1233
F0.0005839645071941564
tp1234
(Vwfvrj.petrobras.com.br
p1235
F0.000577655622686037
tp1236
(Vflukeout.github.io
p1237
F0.0005158523372684569
tp1238
(Vcodeguide.hu
p1239
F0.0005057804575627206
tp1240
(Vdocs.angularjs.org
p1241
F0.0005039753917788309
tp1242
(Vrubyflow.com
p1243
F0.00047607335651278954
tp1244
(Vsocial.tesisquare.com
p1245
F0.0004735965093608097
tp1246
(Vmobility.synovus.com
p1247
F0.00046856522119488223
tp1248
(Vorder.sitepointmedia.com
p1249
F0.0004548368673123083
tp1250
(Vmanagewp.org
p1251
F0.00035966640079505813
tp1252
(Vapp.emailmeform.com
p1253
F0.0002865970293783667
tp1254
(Vhealthclubsystems.com
p1255
F0.0002705686531720551
tp1256
tp1257
s((S'history.com'
p1258
tp1259
(ttp1260
((Vaetv.com
p1261
F0.00798236133012671
tp1262
(Vthisdayinrock.com
p1263
F0.0037971496161920237
tp1264
(Vhistorynet.com
p1265
F0.0030760712668171076
tp1266
(Vdiscovery.com
p1267
F0.0021861770845481867
tp1268
(Von-this-day.com
p1269
F0.001472630734754977
tp1270
(Vtravelchannel.com
p1271
F0.001415992886466294
tp1272
(Vbiography.com
p1273
F0.0013597998334544566
tp1274
(Vunileverpc.com
p1275
F0.0012406136238727436
tp1276
(Voptimum.net
p1277
F0.0010563923348507547
tp1278
(Vdailyupliftingquotes.com
p1279
F0.000970086295744522
tp1280
(Vtodayinliterature.com
p1281
F0.0007611890843539773
tp1282
(Vmylifetime.com
p1283
F0.0007440318299485829
tp1284
(Vactivate.fox.com
p1285
F0.000740355482017051
tp1286
(Vwatchtveverywhere.com
p1287
F0.0007079766794187768
tp1288
(Vhistoryorb.com
p1289
F0.0006006680921527825
tp1290
(Vnationaldaycalendar.com
p1291
F0.0005802684968778012
tp1292
(Vushistory.org
p1293
F0.000472393245433172
tp1294
(Vmail.colton.k12.ca.us
p1295
F0.00046702853469422615
tp1296
(Vmyhatchets.haikulearning.com
p1297
F0.00035607368402211693
tp1298
tp1299
s((S'andismith.com'
p1300
tp1301
(ttp1302
(ts((S'facebook.com'
p1303
tp1304
(ttp1305
(ts((S'voormedia.com'
p1306
tp1307
(ttp1308
(ts((S'google.co.uk'
p1309
tp1310
(ttp1311
((Vbbc.co.uk
p1312
F0.015803661828799845
tp1313
(Vuk.search.yahoo.com
p1314
F0.015624271888821255
tp1315
(Vamazon.co.uk
p1316
F0.009254315963283003
tp1317
(Vebay.co.uk
p1318
F0.008528257560579584
tp1319
(Ven.wikipedia.org
p1320
F0.004255091317020974
tp1321
(Vreddit.com
p1322
F0.003980648583379911
tp1323
(Vdailymail.co.uk
p1324
F0.0038733698459187693
tp1325
(Vsearch.safefinder.com
p1326
F0.0028345322202820732
tp1327
(Vyoutube.com
p1328
F0.00276943281382409
tp1329
(Vtwitter.com
p1330
F0.002499320864991151
tp1331
(Vuk.msn.com
p1332
F0.0014519535531925948
tp1333
(Vaccounts.youtube.com
p1334
F0.0014106376960693401
tp1335
(Vtheguardian.com
p1336
F0.0012393448640209122
tp1337
(Vcr2.gogorithm.com
p1338
F0.001229652212371702
tp1339
tp1340
s((S'reddit.com'
p1341
tp1342
(ttp1343
(ts((S'technion.ac.il'
p1344
tp1345
(ttp1346
(ts((S'apple.com'
p1347
tp1348
(ttp1349
(ts((S'scirra.com'
p1350
tp1351
(ttp1352
((Vc2community.ru
p1353
F0.007406235634299808
tp1354
(Vforums.tigsource.com
p1355
F0.006516674763500749
tp1356
(Vschwer-muta.blogspot.com
p1357
F0.0023252657005772242
tp1358
(Vwayofthepixel.net
p1359
F0.001771588111111012
tp1360
(Vblog.rubukkit.org
p1361
F0.001722506455389649
tp1362
(Vgamedev.ru
p1363
F0.00155671710308373
tp1364
(Velm-lang.org
p1365
F0.001454633678371806
tp1366
(Vkaamelott.co
p1367
F0.0014379499425883405
tp1368
(Vapp.mopub.com
p1369
F0.0013974901440273661
tp1370
(Vgame.9128.com
p1371
F0.001325856745272391
tp1372
(Vbases-hacking.org
p1373
F0.0012120643217503788
tp1374
(Va710594.byethost24.com
p1375
F0.0011639507815098104
tp1376
(Vyoyogames.com
p1377
F0.0010952749740584789
tp1378
(Vforums.wasabistudio.ca
p1379
F0.0010359152424912791
tp1380
(Velbitcoin.org
p1381
F0.0010213289204327799
tp1382
(Vstencyl.com
p1383
F0.0009509958272804534
tp1384
(Vfilmin.es
p1385
F0.000825167958358985
tp1386
(Vwowgame.jp
p1387
F0.0007702468672979726
tp1388
(Vcollaboration.swisscom.com
p1389
F0.0007476651600406859
tp1390
(Vfpl78.free.fr
p1391
F0.000719450980093071
tp1392
tp1393
s((S'chromium.org'
p1394
tp1395
(ttp1396
((Vdeveloper.chrome.com
p1397
F0.022100752027343448
tp1398
(Vjohnlewis.ie
p1399
F0.008052545533720222
tp1400
(Vimperialviolet.org
p1401
F0.004177426369874129
tp1402
(Vdownload-chromium.appspot.com
p1403
F0.004009500944262519
tp1404
(Vscotthelme.co.uk
p1405
F0.003532999099854658
tp1406
(Vcode.google.com
p1407
F0.002697460919000486
tp1408
(Vchromium.googlesource.com
p1409
F0.0020873460363834335
tp1410
(Vproductforums.google.com
p1411
F0.001335644399033382
tp1412
(Vwiki.archlinux.org
p1413
F0.0012934590063155952
tp1414
(Vkb.sitecore.net
p1415
F0.001156154586531049
tp1416
(Vblogmicrosoftbrasil.com.br
p1417
F0.0010548510155260927
tp1418
(Vexample.com
p1419
F0.0003803379258623619
tp1420
(Vdownloads.yahoo.com
p1421
F0.00034267692060830046
tp1422
(Vjava.com
p1423
F0.00031751464182818584
tp1424
(Vminutoms.com.br
p1425
F0.00029505951595761227
tp1426
(Vmattcutts.com
p1427
F0.0002391419420138638
tp1428
(Vgigaom.com
p1429
F0.00023660680057301445
tp1430
(Vcorom.vn
p1431
F0.00023047213023705282
tp1432
(Vvpnhelp.homeawaycorp.com
p1433
F0.0002284515048063452
tp1434
tp1435
s((S'ebay.com'
p1436
tp1437
(ttp1438
((Vamazon.com
p1439
F0.010715418955713561
tp1440
(Vpaypal.com
p1441
F0.004491756406860376
tp1442
(Vetsy.com
p1443
F0.003662715716951191
tp1444
(Vslickdeals.net
p1445
F0.003069012319460808
tp1446
(Valiexpress.com
p1447
F0.0028328755606823754
tp1448
(Vus-mg6.mail.yahoo.com
p1449
F0.0019084091674699396
tp1450
(Vwalmart.com
p1451
F0.0017906265490819154
tp1452
(Ve.mail.ru
p1453
F0.0016764064461063679
tp1454
(Vgoogle.com
p1455
F0.0010756325212520402
tp1456
(Vautobia.com
p1457
F0.0008751469412171619
tp1458
(Vbestbuy.com
p1459
F0.0006417003644546833
tp1460
(Vnewegg.com
p1461
F0.0005644308027097123
tp1462
(Vmail.aol.com
p1463
F0.0004919381996496611
tp1464
tp1465
s((S'sixrevisions.com'
p1466
tp1467
(ttp1468
((Vforum.hangarnet.com.br
p1469
F0.004522612841241663
tp1470
(Viconpaper.org
p1471
F0.004388601429190374
tp1472
(Vpanosfx.com
p1473
F0.003981522100667729
tp1474
(Vliptonicetea.com
p1475
F0.0039197345769073555
tp1476
(Vtiny.cc
p1477
F0.003371601640395747
tp1478
(Vbohemian.curated.co
p1479
F0.003326202922179347
tp1480
(Vnoupe.com
p1481
F0.002781459432749324
tp1482
(Vvle-project.org
p1483
F0.002767415707556039
tp1484
(Vsixrevision.com
p1485
F0.0022085172602788606
tp1486
(Vbusiness.tutsplus.com
p1487
F0.0017757417437201713
tp1488
(Vforum.weavertheme.com
p1489
F0.0015203455783372938
tp1490
(Vtvgratishd.blogspot.com
p1491
F0.0015013110572595332
tp1492
(Vinflexwetrust.com
p1493
F0.0012838767727523452
tp1494
(Vsixminutes.dlugan.com
p1495
F0.001239579333077317
tp1496
(Vtricias-captions.tumblr.com
p1497
F0.0012110202845897668
tp1498
(Vsiteexplorer.info
p1499
F0.0010857132729947228
tp1500
(Vcommonplaces.com
p1501
F0.0010758741477450429
tp1502
(Vmongodbspain.com
p1503
F0.0010698474333738655
tp1504
(Vlanzateya.com
p1505
F0.0010386067653343092
tp1506
(Vfleischlust.com
p1507
F0.0009746657118920917
tp1508
tp1509
s((S'walmart.com'
p1510
tp1511
(ttp1512
((Vtarget.com
p1513
F0.016191472243672674
tp1514
(Vwww2.onlinecreditcenter6.com
p1515
F0.01191700934366368
tp1516
(Vblackfriday.com
p1517
F0.008828973008072028
tp1518
(Vbestbuy.com
p1519
F0.007051185413925967
tp1520
(Vkmart.com
p1521
F0.004302594970420979
tp1522
(Vtoysrus.com
p1523
F0.004132935890938453
tp1524
(Vsamsclub.com
p1525
F0.003398453827899621
tp1526
(Vhiringcenter.walmartstores.com
p1527
F0.002464230730206549
tp1528
(Vr.befrugal.com
p1529
F0.002102698555986174
tp1530
(Vwalgreens.com
p1531
F0.0018930996132344058
tp1532
(Vshopping.paypal.com
p1533
F0.0012793019201361572
tp1534
(Vkohls.com
p1535
F0.001067534574161307
tp1536
(Vgamestop.com
p1537
F0.00098459925813377
tp1538
(Vamazon.com
p1539
F0.0009239514095817645
tp1540
tp1541
s((S'infosecisland.com'
p1542
tp1543
(ttp1544
(ts((S'zetalab.de'
p1545
tp1546
(ttp1547
(ts((S'taskrabbit.com'
p1548
tp1549
(ttp1550
(ts((S'92.195'
p1551
tp1552
(ttp1553
(ts((S'.hdokiejnpimakedhajhdlcegeplioahd'
p1554
tp1555
(ttp1556
(ts((S'railscasts.com'
p1557
tp1558
(ttp1559
(ts((S'runnable.com'
p1560
tp1561
(ttp1562
(ts((S'ycombinator.com'
p1563
tp1564
(ttp1565
((Vhackerne.ws
p1566
F0.002258449013607999
tp1567
(Vtechmeme.com
p1568
F0.0012691820221576143
tp1569
(Vnews.layervault.com
p1570
F0.0009917455368117767
tp1571
(Vproducthunt.com
p1572
F0.0006783600822242837
tp1573
(Vspacerogue.net
p1574
F0.0006178246123912907
tp1575
(Vxcortex.com
p1576
F0.0005490919247667366
tp1577
(Vblog.samaltman.com
p1578
F0.00045371434238055064
tp1579
(Vnautil.us
p1580
F0.0004510529032547637
tp1581
(Vnews.dbanotes.net
p1582
F0.0003639712839933979
tp1583
(Vlesswrong.com
p1584
F0.00029064409138113845
tp1585
(Vnikcub.com
p1586
F0.00023565540621483204
tp1587
(Vlobste.rs
p1588
F0.00016749410462020464
tp1589
(Vgwucolumbian.service-now.com
p1590
F0.00015106314765607595
tp1591
(Vdatatau.com
p1592
F0.0001409348825942487
tp1593
(Vnet-benefits.net
p1594
F0.00013016942453237583
tp1595
tp1596
s((S'fetchapp.com'
p1597
tp1598
(ttp1599
((Vcheckout.shopify.com
p1600
F0.03289034869667742
tp1601
(Vpixelunion.net
p1602
F0.014754481133273599
tp1603
(Vvfbpro.com
p1604
F0.006749764676306224
tp1605
(Vmovimus-wrestling.myshopify.com
p1606
F0.004611150121474517
tp1607
(Vsiteorigin.uservoice.com
p1608
F0.0013398333270103824
tp1609
(Vnivel7.zendesk.com
p1610
F0.0010256196709226026
tp1611
(Vlocalinternettraffic.basecamphq.com
p1612
F0.0007945726175017724
tp1613
(Vfindacaravan.co.uk
p1614
F0.000773582354640265
tp1615
(Vmygedlive.com
p1616
F0.0006667648984276862
tp1617
(Vsupergiantgames.com
p1618
F0.0006353591339866412
tp1619
(Vrubinmuseum.mooclients.com
p1620
F0.0005533319807440471
tp1621
(Vstore-ugs15e.mybigcommerce.com
p1622
F0.0005459376175282371
tp1623
(Vdowntownhq.com
p1624
F0.0005201510438608135
tp1625
(Vwebmail1.cogeco.ca
p1626
F0.0005121806493696923
tp1627
(Vccparkboard.com
p1628
F0.0005069670278806741
tp1629
(Vmy-cubby-house-rocks.myshopify.com
p1630
F0.000469641480868186
tp1631
(Vpredictablesuccess.com
p1632
F0.00046456904822288767
tp1633
(Vabookapart.com
p1634
F0.000443290002711978
tp1635
(Vjoridweb.com
p1636
F0.00037026980326331123
tp1637
(Vevanabrams.com
p1638
F0.00036538634981349104
tp1639
tp1640
s((S'imgur.com'
p1641
tp1642
(ttp1643
((Veksisozluk.com
p1644
F0.007959158123693156
tp1645
(Vsteamcommunity.com
p1646
F0.005482409223054582
tp1647
(Vl.moapi.net
p1648
F0.0042747932543380305
tp1649
(Vptt.cc
p1650
F0.004205827649589891
tp1651
(Vreddit.com
p1652
F0.002423451953582919
tp1653
(Vus.battle.net
p1654
F0.0023017082856949867
tp1655
(Vprntscr.com
p1656
F0.002184980056042118
tp1657
(Viamchucky.github.io
p1658
F0.002029496111172061
tp1659
(Vplurk.com
p1660
F0.0012164439471213228
tp1661
(Vgamefaqs.com
p1662
F0.0011121531273015387
tp1663
(Vflashback.org
p1664
F0.0010824160224589597
tp1665
(Vtwitch.tv
p1666
F0.0008429300641815612
tp1667
(Vboards.4chan.org
p1668
F0.0008128220671250406
tp1669
tp1670
s((S'google.co.il'
p1671
tp1672
(ttp1673
((Vynet.co.il
p1674
F0.02090290556127998
tp1675
(Vwalla.co.il
p1676
F0.010178080865357519
tp1677
(Vmako.co.il
p1678
F0.009531641570181064
tp1679
(Vhe.wikipedia.org
p1680
F0.005168147982441724
tp1681
(Vone.co.il
p1682
F0.004797051193030695
tp1683
(Vsport5.co.il
p1684
F0.004629557192589989
tp1685
(Vpanet.co.il
p1686
F0.004466318634153449
tp1687
(Vyad2.co.il
p1688
F0.004239283102327047
tp1689
(Vfxp.co.il
p1690
F0.004224135214989242
tp1691
(Vil.msn.com
p1692
F0.0025525166492135123
tp1693
(Vjewishjournal.com
p1694
F0.0016738899904644618
tp1695
(Vhaaretz.co.il
p1696
F0.0011658029360413589
tp1697
tp1698
s((S'foobar2000.com'
p1699
tp1700
(ttp1701
((Vmorbo.org
p1702
F0.031915159700857905
tp1703
(Vjdk8.java.net
p1704
F0.0036444231186665292
tp1705
(Vforum.powerampapp.com
p1706
F0.0026170710255915223
tp1707
(Vdbpoweramp.com
p1708
F0.0008974646623289207
tp1709
(Vjriver.com
p1710
F0.00033570030497519226
tp1711
(Vpodsvojostreho.net
p1712
F0.00014945816684828672
tp1713
(Vteksyndicate.com
p1714
F1.1823333348362995e-05
tp1715
(Vtrojmiasto.pl
p1716
F5.731231896333478e-06
tp1717
(Vricardo.ch
p1718
F3.7479474663832534e-06
tp1719
(Vus-mg204.mail.yahoo.com
p1720
F1.5779104558357893e-06
tp1721
(Vboards.4chan.org
p1722
F1.1310967365085483e-06
tp1723
(Vnetvibes.com
p1724
F1.0671421974257503e-06
tp1725
(Vtheguardian.com
p1726
F7.685661734505484e-07
tp1727
(Varstechnica.com
p1728
F6.992041308980053e-07
tp1729
(Vsearch.yahoo.co.jp
p1730
F6.754668573135203e-07
tp1731
(Ven.eazel.com
p1732
F5.318138091329666e-07
tp1733
(Vandroidpolice.com
p1734
F3.6786215539942405e-07
tp1735
(Vkickstarter.com
p1736
F2.241460998950497e-07
tp1737
(Vgoogle.com.tw
p1738
F1.301859356429909e-07
tp1739
(Vgoogle.lv
p1740
F1.037835278431857e-07
tp1741
tp1742
s((S'chrome.com'
p1743
tp1744
(ttp1745
(ts((S'goldsteintech.com'
p1746
tp1747
(ttp1748
(ts((S'techonthenet.com'
p1749
tp1750
(ttp1751
(ts((S'guru99.com'
p1752
tp1753
(ttp1754
((Vtoolsqa.com
p1755
F0.005719466566131465
tp1756
(Vabap101.com
p1757
F0.003011493349875067
tp1758
(Vregistria.app.box.com
p1759
F0.0026405273456051367
tp1760
(Vhanelsoft.vn
p1761
F0.002062561850334693
tp1762
(Vassertselenium.com
p1763
F0.00195169518565124
tp1764
(Vseleniummadeeasy.blogspot.co.uk
p1765
F0.0017882739008798492
tp1766
(Vsaptraininghub.com
p1767
F0.0017882409332036706
tp1768
(Vqtpfaq.wordpress.com
p1769
F0.0017873677324844871
tp1770
(Vcodeodor.com
p1771
F0.0016453585640558656
tp1772
(Vmanage.hivelocity.net
p1773
F0.001623640201331385
tp1774
(Vsoftwaretestinggenius.com
p1775
F0.001583393157862956
tp1776
(Vcommunity.stresstimulus.com
p1777
F0.001557093159406643
tp1778
(Vtennisworlditalia.com
p1779
F0.0012915493611922993
tp1780
(Vroqit.sharepoint.com
p1781
F0.0010722141775454032
tp1782
(Vsyrinx.catsone.com
p1783
F0.0009775579010200494
tp1784
(Vculverlabs.co
p1785
F0.0009439906846807562
tp1786
(Vwebmail.trigma.co.in
p1787
F0.0008988027832973669
tp1788
(Vnewtours.demoaut.com
p1789
F0.0008537480868080438
tp1790
(Vajmadison.com
p1791
F0.0008427717137978187
tp1792
(Vin.playstation.com
p1793
F0.0008242438736899647
tp1794
tp1795
s((S'blogspot.co.uk'
p1796
tp1797
(ttp1798
((Vsoccersportthai.blogspot.co.uk
p1799
F0.0707374040707374
tp1800
(Vproofreadmyfile.blogspot.com
p1801
F0.030689329556185082
tp1802
(Vibrahimyamanabdullahi.blogspot.co.uk
p1803
F0.017033585087578337
tp1804
(Vsapbasissociety.blogspot.co.uk
p1805
F0.015119098559406645
tp1806
(Vpersianbooks2.blogspot.co.uk
p1807
F0.01447080599024062
tp1808
(Vblogsofnote.blogspot.co.uk
p1809
F0.014427657547298217
tp1810
(Vkizomba-zouk.blogspot.co.uk
p1811
F0.012347802817439838
tp1812
(Vbmackie.blogspot.co.uk
p1813
F0.01162535643781531
tp1814
(Vsherrysbeautyandfashion.blogspot.co.uk
p1815
F0.011378935939196526
tp1816
(Vmwholt.blogspot.co.uk
p1817
F0.011096992799661162
tp1818
(Vhongleili.blogspot.co.uk
p1819
F0.010588425476883283
tp1820
(Vportableappz.blogspot.co.uk
p1821
F0.008682119747727087
tp1822
(Vjandjalpacas.blogspot.co.uk
p1823
F0.006606792608650769
tp1824
(Vsuitcaseboy.blogspot.co.uk
p1825
F0.0065030737184372306
tp1826
(Vsliekje.blogspot.co.uk
p1827
F0.006483803155788567
tp1828
(Vyourcreativefuel.blogspot.co.uk
p1829
F0.006483803155788567
tp1830
(Vmonica-or.blogspot.co.uk
p1831
F0.006322861094645326
tp1832
(Vsleazybeats.blogspot.co.uk
p1833
F0.0062287104622871054
tp1834
(Vquickshout.blogspot.co.uk
p1835
F0.005905511811023622
tp1836
(Vblogger.co.uk
p1837
F0.00456841015757446
tp1838
tp1839
s((S'lwn.net'
p1840
tp1841
(ttp1842
((Vsuccessfulsoftware.net
p1843
F0.005252112500049234
tp1844
(Vlinuxfr.org
p1845
F0.004822843418206723
tp1846
(Vghzl.co
p1847
F0.0034472746606284085
tp1848
(Vphoronix.com
p1849
F0.002768949835679411
tp1850
(Vlinux-bg.org
p1851
F0.0026851094101852297
tp1852
(Vbugs.freedesktop.org
p1853
F0.002523399741763606
tp1854
(Vrt.wiki.kernel.org
p1855
F0.002237663304438635
tp1856
(Vrajalanetti.com
p1857
F0.002206267253682163
tp1858
(Vsimepar.br
p1859
F0.0018997695554617766
tp1860
(Vlxer.com
p1861
F0.0016418547532840177
tp1862
(Vplanet.postgresql.org
p1863
F0.0016138535921117138
tp1864
(Vnorrod.nl
p1865
F0.0014726421294774892
tp1866
(Vwebmail.delaval.com
p1867
F0.001380474439094912
tp1868
(Velementarynow.com
p1869
F0.0012930064543167485
tp1870
(Vusers.csc.calpoly.edu
p1871
F0.001283081096542379
tp1872
(Vbeyond3d.com
p1873
F0.0012644611077741394
tp1874
(V100ask.org
p1875
F0.0012163660952326189
tp1876
(Vanandtech.com
p1877
F0.001147878137408774
tp1878
(Vohjelmointiputka.net
p1879
F0.00110908323285851
tp1880
(Vwebmail.alltele.net
p1881
F0.0010886146327560872
tp1882
tp1883
s((S'keyvalue.org'
p1884
tp1885
(ttp1886
((Vrubygems.org
p1887
F1.8680492428768945e-05
tp1888
(Vgithub.com
p1889
F3.475709217831192e-07
tp1890
tp1891
s((S'alibaba.com'
p1892
tp1893
(ttp1894
(ts((S'mobileread.com'
p1895
tp1896
(ttp1897
(ts((S'oracle-base.com'
p1898
tp1899
(ttp1900
(ts((S'caltech.edu'
p1901
tp1902
(ttp1903
(ts((S'sarasoueidan.com'
p1904
tp1905
(ttp1906
(ts((S'mozilla.org'
p1907
tp1908
(ttp1909
((Vtrovi.com
p1910
F0.003908185540139704
tp1911
(Vastromenda.com
p1912
F0.003661281447262505
tp1913
(Vdefault-search.net
p1914
F0.003546628603773007
tp1915
(Vyandex.ru
p1916
F0.003418356746361168
tp1917
(Vhome.tb.ask.com
p1918
F0.002485574080687845
tp1919
(Vmystartsearch.com
p1920
F0.002372836999030979
tp1921
(Vgroovorio.com
p1922
F0.0021940789678751077
tp1923
(Vcr4.gogorithm.com
p1924
F0.0014396275046440782
tp1925
(Vistartsurf.com
p1926
F0.001407008639371235
tp1927
(Vcr2.gogorithm.com
p1928
F0.0011775681487276746
tp1929
(Vvosteran.com
p1930
F0.0011286580230675245
tp1931
(Vupdatesoftnow.com
p1932
F0.0011115485450116163
tp1933
(Vsearch.yahoo.com
p1934
F0.0010762443747588434
tp1935
(Vsweet-page.com
p1936
F0.0009996025717427229
tp1937
(Vhd-plugin.com
p1938
F0.0009837360668146014
tp1939
(Vget.adobe.com
p1940
F0.0008646924779831686
tp1941
(Vcij.campaignism.com
p1942
F0.0007996086228882707
tp1943
(Vieonline.microsoft.com
p1944
F0.0007893274514678609
tp1945
(Vaz307127.vo.msecnd.net
p1946
F0.0007404118225709963
tp1947
tp1948
s((S'wolframalpha.com'
p1949
tp1950
(ttp1951
((Vwebassign.net
p1952
F0.006517849643425926
tp1953
(Vmathworld.wolfram.com
p1954
F0.003393997804121385
tp1955
(Vtutorial.math.lamar.edu
p1956
F0.0032305370516692486
tp1957
(Vmathxl.com
p1958
F0.002903553433297141
tp1959
(Vsymbolab.com
p1960
F0.0026494218523835946
tp1961
(Vpurplemath.com
p1962
F0.0023617804926934385
tp1963
(Vquest.cns.utexas.edu
p1964
F0.0022502976628350187
tp1965
(Vmath.stackexchange.com
p1966
F0.0021096126650983816
tp1967
(Vdesmos.com
p1968
F0.0016572406004577939
tp1969
(Vchegg.com
p1970
F0.0011195735650166758
tp1971
(Vmathway.com
p1972
F0.0008791764257050895
tp1973
tp1974
s((S'astralapp.com'
p1975
tp1976
(ttp1977
(ts((S'codinghorror.com'
p1978
tp1979
(ttp1980
(ts((S'lego.com'
p1981
tp1982
(ttp1983
(ts((S'shawarma-time.com'
p1984
tp1985
(ttp1986
(ts((S'practicingruby.com'
p1987
tp1988
(ttp1989
((Velmcitycraftworks.org
p1990
F0.023109641123805664
tp1991
(Vhartsem.edu
p1992
F0.01576023487552252
tp1993
(Vvdumoulin.github.io
p1994
F0.014616148715765574
tp1995
(Vblog.rubybestpractices.com
p1996
F0.014336265722118734
tp1997
(Vletter.ly
p1998
F0.009270472292980331
tp1999
(Vfabioanselmo.github.io
p2000
F0.007632800412583806
tp2001
(Vnas.int.stangl.co.za
p2002
F0.006892014145900156
tp2003
(Vpracticalruby.com
p2004
F0.006233190950798924
tp2005
(Vjamesfriend.com.au
p2006
F0.004684389272748566
tp2007
(Vdevblog.avdi.org
p2008
F0.0029803058169662632
tp2009
(Vrubytechlist.com
p2010
F0.0027833693680260445
tp2011
(Vstats.fanjas.com
p2012
F0.002452099050482813
tp2013
(Vcodon.com
p2014
F0.002302760390183461
tp2015
(Vtestingeducation.org
p2016
F0.0022754087308275747
tp2017
(Vherdt.de
p2018
F0.0022693966419629025
tp2019
(Vrubyoffrails.com
p2020
F0.0021707508112341948
tp2021
(Vcodecoreyvr.slack.com
p2022
F0.001842643106583627
tp2023
(Vdaniel.haxx.se
p2024
F0.0017404757300328755
tp2025
(Vschibsted.service-now.com
p2026
F0.0012539919721074684
tp2027
(Vallin.qiita.com
p2028
F0.0011750421056754533
tp2029
tp2030
s((S'metaskills.net'
p2031
tp2032
(ttp2033
((Vctshryock.com
p2034
F0.016547468798205022
tp2035
(Vredmine.bikecityguide.org
p2036
F0.0021527305687740767
tp2037
(Vatendesign.atlassian.net
p2038
F0.0003169074849782714
tp2039
(Vcoderwall.com
p2040
F0.00021703084325282697
tp2041
(Vphantomjs.org
p2042
F0.00013313754282917278
tp2043
(Vhttpd.apache.org
p2044
F1.5940797752535055e-05
tp2045
(Vgithub.com
p2046
F3.3243081757242964e-06
tp2047
(Vduckduckgo.com
p2048
F1.0081056908941716e-06
tp2049
(Vtrello.com
p2050
F9.761391994511724e-07
tp2051
(Vstartpage.com
p2052
F6.875454166190843e-07
tp2053
(Vstackoverflow.com
p2054
F3.0192988684047274e-07
tp2055
(Vtweetdeck.twitter.com
p2056
F1.599518661211605e-07
tp2057
(Vbing.com
p2058
F9.369324416725723e-08
tp2059
(Vgoogle.com.sg
p2060
F5.183408317133579e-08
tp2061
tp2062
s((S'stackexchange.com'
p2063
tp2064
(ttp2065
((Vdrupal.org
p2066
F0.0018087338073138374
tp2067
(Vsuperuser.com
p2068
F0.0017565770216195539
tp2069
(Vstackoverflow.com
p2070
F0.0017298447513904261
tp2071
(Vexchange.jacobs-university.de
p2072
F0.0017227839744996746
tp2073
(Vencrypted.google.com
p2074
F0.0016974100217127502
tp2075
(Vstartpage.com
p2076
F0.0011022911608110297
tp2077
(Vknightsandmerchants.net
p2078
F0.0010559136442041205
tp2079
(Vcourses.edx.org
p2080
F0.0009489679492966093
tp2081
(Vwen.lu
p2082
F0.0007011318157478892
tp2083
(Vdev53.mainlinemenswear.co.uk
p2084
F0.0004911855144103377
tp2085
(Vbodytonicmusic.com
p2086
F0.0004665108146013598
tp2087
(Vwpsites.net
p2088
F0.00045658378453616134
tp2089
(Vmathoverflow.net
p2090
F0.00038500259922329095
tp2091
(Vbuildwithcraft.com
p2092
F0.00036671354486146547
tp2093
(Vshkspr.mobi
p2094
F0.00034314590131385466
tp2095
tp2096
s((S'paulund.co.uk'
p2097
tp2098
(ttp2099
((Vdesignfloat.com
p2100
F0.014682317874154185
tp2101
(Vtikslus.com
p2102
F0.009972109256922046
tp2103
(Vtuflow.com
p2104
F0.00941413071944854
tp2105
(Vthemeswordpressfree.com
p2106
F0.0064874181764638375
tp2107
(V1dex.ch
p2108
F0.005137631363583222
tp2109
(Vcodingfusion.com
p2110
F0.005027579500723988
tp2111
(Vwp-tips.net
p2112
F0.004666974061316192
tp2113
(Vdanangsmartphone.vn
p2114
F0.004652234916816997
tp2115
(Vtak.ee
p2116
F0.004626630229509653
tp2117
(Venjoycss.com
p2118
F0.004177601750527054
tp2119
(Ve-kitap.org
p2120
F0.004108657082764539
tp2121
(Vpurecssmenu.com
p2122
F0.0039179659775167705
tp2123
(Vccs.seemysite.us
p2124
F0.003615513921040149
tp2125
(Vpro.agence-hybrid.com
p2126
F0.003342605497371602
tp2127
(Vhobium.com
p2128
F0.003266090976893467
tp2129
(Vwplift.com
p2130
F0.0028646937118022783
tp2131
(Vsimplemediacode.info
p2132
F0.002693832260479542
tp2133
(Vcubic-bezier.com
p2134
F0.002685931857532827
tp2135
(Vleagueoflegends-wiki.com
p2136
F0.00265266660471949
tp2137
(Vgmgcongress.com
p2138
F0.0025931240388389495
tp2139
tp2140
s((S'.'
p2141
tp2142
(ttp2143
(ts((S'somethingpositive.com'
p2144
tp2145
(ttp2146
((Vsomethingpostive.net
p2147
F0.05551369002763124
tp2148
(Vjezebel.com
p2149
F4.424084024843979e-06
tp2150
(Vsmbc-comics.com
p2151
F3.576337317918497e-06
tp2152
(Vamazon.co.uk
p2153
F2.8458752349683427e-07
tp2154
(Vtwitter.com
p2155
F1.9658182515494668e-08
tp2156
(Vreddit.com
p2157
F1.4299505429861048e-08
tp2158
tp2159
s((S'thoughtbot.com'
p2160
tp2161
(ttp2162
((Vupcase.com
p2163
F0.024989667086915485
tp2164
(Vformkeep.com
p2165
F0.014646203355550037
tp2166
(Vjameschambers.co
p2167
F0.008357425242515544
tp2168
(Vtammersaleh.com
p2169
F0.004943316112993391
tp2170
(Vhoundci.com
p2171
F0.004806836698868746
tp2172
(Vsiyelo.com
p2173
F0.002945051927677963
tp2174
(Vgiantrobots.fm
p2175
F0.00211715962498671
tp2176
(Vmapsdesign.tumblr.com
p2177
F0.002099795643319399
tp2178
(Vapeth.com
p2179
F0.0019577595682550466
tp2180
(Vdevblog.avdi.org
p2181
F0.0019100218616960073
tp2182
(Vacademicwork.se
p2183
F0.0017322341701425485
tp2184
(Vrinse.io
p2185
F0.001560292892647523
tp2186
(Vatomic.io
p2187
F0.0014838520150369518
tp2188
(Vmartialcodex.com
p2189
F0.0014348262119961987
tp2190
(Vlvh.me
p2191
F0.0013953332488518147
tp2192
(Vbrightnewt.com
p2193
F0.0013170589638774016
tp2194
(Vsetentaydos.com
p2195
F0.0012088216882618495
tp2196
(Vryanterry.net
p2197
F0.0011578899857040137
tp2198
(Vdrp.io
p2199
F0.0011536686663590216
tp2200
(Vlaurium.nusii.com
p2201
F0.001150569134284429
tp2202
tp2203
s((S'theoldreader.com'
p2204
tp2205
(ttp2206
((Vcluborlov.blogspot.com.br
p2207
F0.001629483712195623
tp2208
(Vhome.nielskim.nl
p2209
F0.001583765973314186
tp2210
(Vboards.cruisecritic.com
p2211
F0.001485453300561661
tp2212
(Vdtmpower.net
p2213
F0.0014122945690184302
tp2214
(Vmail.luetzen.dk
p2215
F0.0011100585027773505
tp2216
(Vportal.filadelfia.br
p2217
F0.0008692568306636837
tp2218
(Vgigabitescafe.com
p2219
F0.0007618165206089385
tp2220
(Vdelphifeeds.com
p2221
F0.0005999661440565003
tp2222
(Vbrusselnieuws.be
p2223
F0.0005860492509324877
tp2224
(Vtheaquilareport.com
p2225
F0.0005821878023734192
tp2226
(Vradionacional.com.ar
p2227
F0.0005543664620062667
tp2228
(Vvott.ru
p2229
F0.0004978213381410596
tp2230
(Vunz.com
p2231
F0.0004920895591088345
tp2232
(Vone.npr.org
p2233
F0.0004875921931996698
tp2234
(Vforum.pdnk.org
p2235
F0.00046894424078728703
tp2236
(Vwebmail.wmich.edu
p2237
F0.0004127460638011333
tp2238
(Vylilauta.org
p2239
F0.0003986461030724298
tp2240
(Vivorytower.com
p2241
F0.0003872626065568982
tp2242
(Vhomebrewchatter.com
p2243
F0.0003844828465516838
tp2244
(Vs126-pl.ogame.gameforge.com
p2245
F0.0003813682539531203
tp2246
tp2247
s((S'pow.cx'
p2248
tp2249
(ttp2250
(ts((S'github.com'
p2251
tp2252
(ttp2253
((Vcode.google.com
p2254
F0.00407012608671127
tp2255
(Vrubygems.org
p2256
F0.0035773462484789457
tp2257
(Vraw.githubusercontent.com
p2258
F0.0034577717855745157
tp2259
(Vstackoverflow.com
p2260
F0.003441503954031439
tp2261
(Vbitbucket.org
p2262
F0.003385212782873444
tp2263
(Vnpmjs.org
p2264
F0.002854017136546961
tp2265
(Vpypi.python.org
p2266
F0.002706602897481004
tp2267
(Vnews.ycombinator.com
p2268
F0.0019993154488276
tp2269
(Vgit-scm.com
p2270
F0.0019871032599025357
tp2271
(Vdocs.angularjs.org
p2272
F0.0012442907118560913
tp2273
(Vhaxiomic.github.io
p2274
F0.0006659055953985048
tp2275
(Vpivotaltracker.com
p2276
F0.0005625324970995607
tp2277
tp2278
s((S'stackoverflow.com'
p2279
tp2280
(ttp2281
(ts((S'youtube.com'
p2282
tp2283
(ttp2284
(ts((S'speakerdeck.com'
p2285
tp2286
(ttp2287
((Vdemo.coffee-themes.com
p2288
F0.0039671592074744305
tp2289
(Vspeakerd.s3.amazonaws.com
p2290
F0.0031840326414409345
tp2291
(Vstartupsmart.com.au
p2292
F0.0024248497613811744
tp2293
(Vmaddisondesigns.com
p2294
F0.0023298317533521225
tp2295
(Vthemes-lab.com
p2296
F0.0022676382593878877
tp2297
(Vfontstruct.com
p2298
F0.0022317005850366494
tp2299
(Vreadability.com
p2300
F0.002135284711928032
tp2301
(Vadmin.smartphone.userlocal.jp
p2302
F0.002003364625203868
tp2303
(Vbagtheweb.com
p2304
F0.001999111954713731
tp2305
(Vclickwork7network.com
p2306
F0.0017965561747034368
tp2307
(Vinteractly.com
p2308
F0.0017284060116690148
tp2309
(Vtest.proxistore.com
p2310
F0.001579048509965591
tp2311
(Vrajhimself.com
p2312
F0.0013000119296729658
tp2313
(Vcodecondo.com
p2314
F0.001220573693455316
tp2315
(Vcss-happylife.com
p2316
F0.0011575611844464764
tp2317
(Vaneventapart.com
p2318
F0.0011068669516008853
tp2319
(Vmaketea.co.uk
p2320
F0.0009992090820833237
tp2321
(V960.gs
p2322
F0.0009955768862741556
tp2323
(Vgrapplemobile.atlassian.net
p2324
F0.000977010403519926
tp2325
(Vadmin.taggedpdf.com.au
p2326
F0.0008888000838847269
tp2327
tp2328
s((S'javascriptkit.com'
p2329
tp2330
(ttp2331
(ts((S'quirksmode.org'
p2332
tp2333
(ttp2334
(ts((S'fabiensanglard.net'
p2335
tp2336
(ttp2337
((Vnom.com
p2338
F0.016733385481372414
tp2339
(Vmeet.emulex.com
p2340
F0.009327642729015897
tp2341
(Vemulex.my.salesforce.com
p2342
F0.009142718564326422
tp2343
(Vasicweb.emulex.com
p2344
F0.007491289198606272
tp2345
(Vopenhighschoolcourses.org
p2346
F0.006642895061989392
tp2347
(Vneilblevins.com
p2348
F0.004470560344097675
tp2349
(Vlinor.fr
p2350
F0.0038202984095753404
tp2351
(Vhmsconfluence.activision.com
p2352
F0.003148796306750467
tp2353
(Vdevinsmith.net
p2354
F0.002372270790317621
tp2355
(Vhobbygamedev.com
p2356
F0.0022267112008906844
tp2357
(Vthink-like-a-git.net
p2358
F0.002052212874160923
tp2359
(Vgamedev.stackexchange.com
p2360
F0.0019690283982804094
tp2361
(Vgp32spain.com
p2362
F0.0015787369595053969
tp2363
(Vsda.se
p2364
F0.0014976407646989833
tp2365
(Vbenefitsmedical.com
p2366
F0.0014063662602922299
tp2367
(Vengineering.zenpayroll.com
p2368
F0.0013555184723144803
tp2369
(Vblog.yourkarma.com
p2370
F0.0011144507108844686
tp2371
(Vshoutem.slack.com
p2372
F0.0007275420982314113
tp2373
(Vwiki.mcselec.com
p2374
F0.0004583651642475172
tp2375
(Vopengl.org
p2376
F0.000321510536147959
tp2377
tp2378
s((S'batsov.com'
p2379
tp2380
(ttp2381
((Vblog.rust-lang.org
p2382
F0.0025602059117481963
tp2383
(Vskanev.com
p2384
F0.0022080608194980154
tp2385
(Vbarisyuksel.com
p2386
F0.0017846249100858622
tp2387
(Vclever-cloud.com
p2388
F0.0017729664335737266
tp2389
(Vbotnets.fr
p2390
F0.0017378253485524707
tp2391
(Vemacs.sexy
p2392
F0.0017151187719749593
tp2393
(Vohtatblog.wordpress.com
p2394
F0.0014208184846155637
tp2395
(Vthatthinginswift.com
p2396
F0.0005549820740790072
tp2397
(Vemacswiki.org
p2398
F0.000361288776960209
tp2399
(Vgamasutra.com
p2400
F7.182796042938065e-05
tp2401
(Vcreditkarma.com
p2402
F4.846935431658113e-05
tp2403
(Vde.reddit.com
p2404
F2.1918490506820317e-05
tp2405
(Vgithub.com
p2406
F9.564137939050661e-06
tp2407
(Vpluralsight.com
p2408
F7.698149584786948e-06
tp2409
(Vencrypted.google.com
p2410
F3.904554290440822e-06
tp2411
(Vstackoverflow.com
p2412
F2.7530196598198716e-06
tp2413
(Vsearch.disconnect.me
p2414
F1.452201017759609e-06
tp2415
(Vstartpage.com
p2416
F4.5705844497747614e-07
tp2417
(Vgoogle.com.br
p2418
F2.7313056986275865e-08
tp2419
tp2420
s.