(dp0
((S'alpha21.com'
p1
tp2
(ttp3
((Vnaver.com
p4
F1.1258501626907744e-07
tp5
tp6
s((S'gogorithm.com'
p7
tp8
(ttp9
(ts((S'ruby-toolbox.com'
p10
tp11
(ttp12
((Vrubytoolbox.com
p13
F0.0028217657755593615
tp14
(Vankane.github.io
p15
F0.0027867450266258315
tp16
(Vsimonecarletti.com
p17
F0.0022570789309152967
tp18
(Vgoogle.chn.im
p19
F0.0019127274010551762
tp20
(Vrubygems.org
p21
F0.0017247897487160796
tp22
(Vrubydev.ru
p23
F0.0017242912428428383
tp24
(Vruby-china.org
p25
F0.0016945777982200333
tp26
(Vintertwingly.net
p27
F0.0013847288490194014
tp28
(V3987.com
p29
F0.0012524451481177904
tp30
(Vprototypejs.org
p31
F0.0012326215985673007
tp32
(Vin-media.ru
p33
F0.0012279170722429207
tp34
(Vapotomo.de
p35
F0.0011713520749665328
tp36
(Vihower.tw
p37
F0.0011146665129195615
tp38
(Vforums.raml.org
p39
F0.0010388978058591572
tp40
(Vlibgosu.org
p41
F0.0010298288535778202
tp42
(Vfabricationgem.org
p43
F0.0010267945823296206
tp44
(Vryanfunduk.com
p45
F0.000990572769322465
tp46
(Vrubyjunky.com
p47
F0.00097829916886024
tp48
(Vsvyatov.ru
p49
F0.0008794594405349579
tp50
(Vadp.eease.com
p51
F0.0008370281860143508
tp52
tp53
s((S'alpha40.com'
p54
tp55
(ttp56
(ts((S'pocketworx.com'
p57
tp58
(ttp59
(ts((S'mojotech.com'
p60
tp61
(ttp62
(ts((S'alpha29.com'
p63
tp64
(ttp65
(ts((S'verou.me'
p66
tp67
(ttp68
(ts((S'alpha34.com'
p69
tp70
(ttp71
((Vlivingsocial.com
p72
F9.079445109447686e-06
tp73
tp74
s((S'djangopackages.com'
p75
tp76
(ttp77
((Vapreche.net
p78
F0.020882769022286102
tp79
(Vdjango-avatar.readthedocs.org
p80
F0.009746893775378008
tp81
(Vdjangoproject.com
p82
F0.005727475751994577
tp83
(Vhackerluddite.wordpress.com
p84
F0.004126278944534195
tp85
(Vgit.wogon.eu
p86
F0.004072171407091843
tp87
(Vlocal.packer.streetvoice.com
p88
F0.0027112516945323093
tp89
(Vmezzanine.jupo.org
p90
F0.0024973213885595793
tp91
(Vdarwinconstruction.ca
p92
F0.0024349002367264117
tp93
(Vpanel.djangoeurope.com
p94
F0.0023059510461401764
tp95
(Vapibrowser.dev.rexsoftware.com
p96
F0.0018059605913599529
tp97
(Vralphminderhoud.com
p98
F0.001767590375185312
tp99
(Vlamia1026.tmweb.ru
p100
F0.0017604633993980351
tp101
(Vpinaxproject.com
p102
F0.0016632909015304959
tp103
(Vforums.pligg.com
p104
F0.0016274674506509869
tp105
(Vjeffknupp.com
p106
F0.001544138608216401
tp107
(Vwpj.cz
p108
F0.001265909401943342
tp109
(Vkristall-shatura.ru
p110
F0.0010253657596652765
tp111
(Vboard.shaturka.ru
p112
F0.001018887019789658
tp113
(Vdjango-report-builder.readthedocs.org
p114
F0.0009767865688568975
tp115
(Vhexvolt.blogspot.ru
p116
F0.0009338297045588438
tp117
tp118
s((S'alpha5.com'
p119
tp120
(ttp121
((Valliedhealthworld.com
p122
F0.019944027102666077
tp123
(Vkempsvilleruritanclub.org
p124
F0.002170740268617562
tp125
(Vmsgboard.alphasoftware.com
p126
F0.001026299469818061
tp127
(Vwhois.com
p128
F1.4852977486330757e-05
tp129
tp130
s((S'alpha24.com'
p131
tp132
(ttp133
(ts((S'railsenvy.com'
p134
tp135
(ttp136
((Vproxylala.pw
p137
F0.07315634218289085
tp138
(Vafreshcup.wordpress.com
p139
F0.061630218687872766
tp140
(Vtheodinproject.com
p141
F0.000533130952642291
tp142
(Vforum.rubyonrails.pl
p143
F6.492624968274674e-05
tp144
(Vrailscasts.com
p145
F5.9049096962160154e-05
tp146
(Vkora-online.tv
p147
F5.540333318764308e-06
tp148
(Vyoutube.com
p149
F8.756484556477331e-10
tp150
tp151
s((S'python.org'
p152
tp153
(ttp154
((Vdjangopackages.com
p155
F0.028235770318671527
tp156
(Vdocs.djangoproject.com
p157
F0.011797606215775544
tp158
(Vpythonhosted.org
p159
F0.0072327330062755026
tp160
(Vwikidocs.net
p161
F0.00331444475734783
tp162
(Vnetworkx.github.io
p163
F0.0025721363577256035
tp164
(Vpython3wos.appspot.com
p165
F0.0017378741652830621
tp166
(Vconfluence.atlassian.com
p167
F0.001071124946390917
tp168
(Vpure-forum.org
p169
F0.0008837824192407215
tp170
(Vmoodle.macalester.edu
p171
F0.0007187880924060596
tp172
(Vdeveloper.foursquare.com
p173
F0.000605093370590939
tp174
(Vprogrammeerimine.cs.ut.ee
p175
F0.00043730836141456323
tp176
(Vtrailtiger.com
p177
F0.0004264912335899067
tp178
(Vvirtualenv.pypa.io
p179
F0.0004119807334448899
tp180
(Vliaoxuefeng.com
p181
F0.00039731681140257646
tp182
(Vpagekite.net
p183
F0.00038970019874352943
tp184
(Vh.yandex-team.ru
p185
F0.00032120697262060226
tp186
(Vreplicat.org
p187
F0.00030196437819484144
tp188
tp189
s((S'alpha35.com'
p190
tp191
(ttp192
(ts((S'rydia.net'
p193
tp194
(ttp195
((Vsincomics.com
p196
F0.021359696539829148
tp197
(Vhalflightcomics.com
p198
F0.012060105220756076
tp199
(Vstoryofthedoor.com
p200
F0.012027073087597992
tp201
(Valexanderthekid.tumblr.com
p202
F0.01121503814021068
tp203
(Vdcisgoingtohell.com
p204
F0.010699820225692566
tp205
(Vdubiouscompany.com
p206
F0.008778554737132042
tp207
(Vushala.smackjeeves.com
p208
F0.007147921459680803
tp209
(Vtrue-magic.com
p210
F0.006756772051863651
tp211
(Veqcomics.com
p212
F0.004581133879620812
tp213
(Vteamheartgold.deviantart.com
p214
F0.0041985387859174265
tp215
(Veverblue-comic.com
p216
F0.004143634823308365
tp217
(Vforgottenordercomic.com
p218
F0.003456092237085129
tp219
(Vamyachronicles.com
p220
F0.0028932456769697056
tp221
(Vblackbird.ashen-ray.com
p222
F0.002813647717287217
tp223
(Vhttydireth-vespera.smackjeeves.com
p224
F0.0020531153005398485
tp225
(Vdigitalextremes.slack.com
p226
F0.0016468962340205
tp227
(Vblindsprings.com
p228
F0.001613013680589577
tp229
(Vteahousecomic.com
p230
F0.0013120810467020735
tp231
(Vgiginuzlocke.smackjeeves.com
p232
F0.0011640229070923036
tp233
(Vegscomics.com
p234
F0.0010893065517749412
tp235
tp236
s((S'msn.com'
p237
tp238
(ttp239
((Vsignout.live.com
p240
F0.15308963021388675
tp241
(Vbing.com
p242
F0.004617366223358805
tp243
(Vsearch.safefinder.com
p244
F0.0021814650029844426
tp245
(Vapps.facebook.com
p246
F0.0020435143826556114
tp247
(Vtrovi.com
p248
F0.0016986842333237284
tp249
(Vsearch.ask.com
p250
F0.0016746763184673106
tp251
(Vastromenda.com
p252
F0.0015774510251515713
tp253
(Vcr2.gogorithm.com
p254
F0.0011036373266521172
tp255
(Vfoxsports.com
p256
F0.0010602432824249944
tp257
(Vyahoo.com
p258
F0.0009974446200310605
tp259
(Vgroovorio.com
p260
F0.0009212692482627997
tp261
(Valh.gogorithm.com
p262
F0.0007715535537510396
tp263
(Vyahoo.co.jp
p264
F0.0006108892755620947
tp265
(Vgoogle.com
p266
F0.00046769580803432013
tp267
tp268
s((S'alpha27.com'
p269
tp270
(ttp271
(ts((S'beta7.com'
p272
tp273
(ttp274
(ts((S'nuclearsquid.com'
p275
tp276
(ttp277
((Vmolotang.com
p278
F0.025083419629501783
tp279
(Vcrucible.corp.appnexus.com
p280
F0.0014309814038058852
tp281
(Vanswers.perforce.com
p282
F0.000850176451716394
tp283
(Vruby-forum.com
p284
F0.00012045186657374666
tp285
(Vx.sankuai.com
p286
F7.04903956835881e-05
tp287
(Vpinboard.in
p288
F7.1203116432007166e-06
tp289
(Vtheverge.com
p290
F2.8217985580072086e-06
tp291
(Vsuperuser.com
p292
F1.8128071291828394e-06
tp293
(Vstackoverflow.com
p294
F7.170873291331439e-07
tp295
(V8tracks.com
p296
F4.5838400205375003e-07
tp297
(Vgoogle.com.ph
p298
F6.325116749043523e-08
tp299
(Vgithub.com
p300
F2.4893524466823384e-08
tp301
(Vgoogle.com
p302
F2.4395329918893198e-08
tp303
(Vmail.google.com
p304
F9.62054693148217e-09
tp305
(Vfacebook.com
p306
F3.2707786008337474e-10
tp307
tp308
s((S'penny-arcade.com'
p309
tp310
(ttp311
(ts((S'thecodeplayer.com'
p312
tp313
(ttp314
((Vcodeplayer.com
p315
F0.006169198538037966
tp316
(Vdespreneur.com
p317
F0.004002593201770517
tp318
(Vblog.snowflake.ch
p319
F0.0034497095075786085
tp320
(Vmlens.musings.it
p321
F0.003154407312513716
tp322
(Vwebtoolsdepot.com
p323
F0.0030697803528614543
tp324
(Vlandor.com
p325
F0.0029902913281551484
tp326
(Vfluxbb.org
p327
F0.002989062148686003
tp328
(Vbigplans.megaplan.ru
p329
F0.002977363688220863
tp330
(Vflong.com
p331
F0.002873431528005646
tp332
(Vcolours.neilorangepeel.com
p333
F0.0025789769227982464
tp334
(Vpixellest.com
p335
F0.0023572234584632317
tp336
(Vdesigngeekz.com
p337
F0.002349597914892342
tp338
(Vcodeplay.lc
p339
F0.0022500570031144997
tp340
(Vtwittstrap.com
p341
F0.00200535501032168
tp342
(Vc3scustomsock.staging.wpengine.com
p343
F0.001962648430280709
tp344
(Vterrytsang.com
p345
F0.0019232375106991502
tp346
(Vcsssrstart.slack.com
p347
F0.0018884694245712224
tp348
(Vcjbarrymores.com
p349
F0.0018867538106282864
tp350
(Vraclette-suisse.ch
p351
F0.0018163026461781647
tp352
(Vissues.telephony.com
p353
F0.0018051181660850568
tp354
tp355
s((S'gmail.com'
p356
tp357
(ttp358
((Vgoogle.co.in
p359
F0.002160747949931791
tp360
(Vreddit.com
p361
F0.0019094229668676123
tp362
(Vnetflix.com
p363
F0.0015143636335367562
tp364
(Vamazon.com
p365
F0.001114998532370577
tp366
(Vdropbox.com
p367
F0.0008313813311958971
tp368
(Ven.wikipedia.org
p369
F0.0008247348851858367
tp370
(Vpandora.com
p371
F0.0008159585716037036
tp372
(Vaccount.live.com
p373
F0.0007445104894934813
tp374
(Vfacebook.com
p375
F0.0007035519930853775
tp376
(Vstartpagina.nl
p377
F0.0004478025187472418
tp378
(Vlinkedin.com
p379
F0.00038762191829156073
tp380
(Vsoundcloud.com
p381
F0.00035534929141919615
tp382
(Vstackoverflow.com
p383
F0.000352430535378393
tp384
(Vtrovi.com
p385
F0.0003270559567248911
tp386
(Vbing.com
p387
F0.0003186797288942869
tp388
(Vsearch.safefinder.com
p389
F0.0003181670220008833
tp390
(Vhome.tb.ask.com
p391
F0.000309598054277362
tp392
tp393
s((S'walla.co'
p394
tp395
(ttp396
((Vmspowerpack.com
p397
F0.00042286056172976963
tp398
(Vmslworld.egged.co.il
p399
F4.631610521254681e-05
tp400
(Vsimplestoolbar.com
p401
F4.4748032871714525e-05
tp402
(Vlink4u.co.il
p403
F8.555601488820286e-06
tp404
(Vpanet.co.il
p405
F2.0687343820870316e-06
tp406
(Vgoogle.co.il
p407
F1.3330927104853262e-06
tp408
(Vsearches.vi-view.com
p409
F1.4813106299849904e-07
tp410
(Vxnxx.com
p411
F9.644941531802667e-08
tp412
(Vmysearch.avg.com
p413
F3.890298355709239e-08
tp414
(Visearch.omiga-plus.com
p415
F3.272544785429898e-08
tp416
(Vistart.webssearches.com
p417
F2.1441877890798774e-08
tp418
(Vtrovi.com
p419
F1.6677189871460833e-08
tp420
(Vsweet-page.com
p421
F1.3795853007327792e-08
tp422
(Vmystartsearch.com
p423
F1.0474484448833913e-08
tp424
(Vvk.com
p425
F5.105423590911466e-09
tp426
(Vyoutube.com
p427
F5.776359629362245e-10
tp428
tp429
s((S'diasp.eu'
p430
tp431
(ttp432
((Vcybette.com
p433
F0.02790506560906111
tp434
(Vd.consumium.org
p435
F0.008538320796909941
tp436
(Vkolabsys.com
p437
F0.005063497897014986
tp438
(Vproverochka.businesscatalyst.com
p439
F0.00446202210729135
tp440
(Vawable.imgur.com
p441
F0.004351204351204351
tp442
(Vfantasylife.nintendo.com
p443
F0.004010262386895224
tp444
(Vpodupti.me
p445
F0.0020148652279036445
tp446
(Vforum.sportenter.co.il
p447
F0.001306915155467928
tp448
(Vfreefotohelp.ru
p449
F0.0008028673835125448
tp450
(Vfuckyouverymuch.dk
p451
F0.0004181940984847102
tp452
(Vredbox.com
p453
F4.213100135421364e-05
tp454
(Vnypost.com
p455
F1.7682904543184476e-05
tp456
(Vbeforeitsnews.com
p457
F1.6786280627496154e-05
tp458
(Vnaturalnews.com
p459
F1.2519575881711194e-05
tp460
(Vrus.postimees.ee
p461
F8.37074626064608e-06
tp462
(Vinfowars.com
p463
F8.345739769065305e-06
tp464
(Vya.ru
p465
F4.903540471922245e-06
tp466
(Vello.co
p467
F1.0571140123657e-06
tp468
(Vvimeo.com
p469
F7.446324075200837e-07
tp470
(Vwordpress.com
p471
F5.822044442670433e-07
tp472
tp473
s((S'nasa.gov'
p474
tp475
(ttp476
((Vnasa.jerusalem.com
p477
F0.0034835518377293096
tp478
(Vspaceweather.com
p479
F0.0033475442840786474
tp480
(Vspace.com
p481
F0.002945265177369104
tp482
(Vswpc.noaa.gov
p483
F0.002494603391767854
tp484
(Vesa.int
p485
F0.001361835042951779
tp486
(Vwhat-if.xkcd.com
p487
F0.0012732149429607702
tp488
(Vciclops.org
p489
F0.0012026940365659103
tp490
(Vcoasttocoastam.com
p491
F0.0011265697014438598
tp492
(Vmarssociety.de
p493
F0.00112391909362521
tp494
(Vweb.taskcracker.com
p495
F0.001026107590113099
tp496
(Vbibobuzz.com
p497
F0.0009696968425407064
tp498
(Vnanowerk.com
p499
F0.0008919591961055805
tp500
(Vbarnstormers.com
p501
F0.000739077425229431
tp502
(Vepod.usra.edu
p503
F0.000649929188302291
tp504
(Vroshihogan.blogspot.com
p505
F0.0006483939270824397
tp506
(Vsolarham.net
p507
F0.0006229008473932558
tp508
(Vharztourist.de
p509
F0.0005347227582500918
tp510
(Vgoehren-ruegen.de
p511
F0.0004998782773573379
tp512
(Vstats.mutu.sivit.org
p513
F0.0004962087088050525
tp514
tp515
s((S'sivers.org'
p516
tp517
(ttp518
((Vexamine.com
p519
F0.007219883173093456
tp520
(Vuwitechnology.com
p521
F0.006839846558005141
tp522
(Vtruefilms.com
p523
F0.0034328335396701663
tp524
(Vsitebeam.net
p525
F0.0032794691752359648
tp526
(Vdocs.withdraft.com
p527
F0.0030549495715956874
tp528
(Vmynavigatorweb.nl
p529
F0.0028599137643591107
tp530
(Vsingapore.recruit.net
p531
F0.0025840897233237402
tp532
(Vmarketplaceleaders.org
p533
F0.0025240834176874162
tp534
(Vblog.placeit.net
p535
F0.0020766650167739096
tp536
(Vkairosbio.com
p537
F0.0019437477085309572
tp538
(Vcenteroftheweb.com
p539
F0.0019412848515847046
tp540
(Valytadros.com
p541
F0.001937933895566251
tp542
(Vfullstackacademy.slack.com
p543
F0.0018748035385513495
tp544
(Vrailstutorial.org
p545
F0.0018368225687322617
tp546
(Vlintool.github.io
p547
F0.0018285739313244568
tp548
(Vhiretheworld.com
p549
F0.0018284838365313551
tp550
(Vadvancedlifeskills.com
p551
F0.0017834354092023132
tp552
(Vballcharts.com
p553
F0.0017386913484488426
tp554
(Vci.appveyor.com
p555
F0.001590201798643241
tp556
(Vblog.zackshapiro.com
p557
F0.0014996575814189902
tp558
tp559
s((S'mako.co.il'
p560
tp561
(ttp562
((Vynet.co.il
p563
F0.011501648380391862
tp564
(Vwalla.co.il
p565
F0.00755377749758904
tp566
(Vsport5.co.il
p567
F0.006583331507016732
tp568
(Vone.co.il
p569
F0.0059019222903439065
tp570
(Vnrg.co.il
p571
F0.005228495987774255
tp572
(V10tv.nana10.co.il
p573
F0.004148038854238269
tp574
(Vhaaretz.co.il
p575
F0.003253005553176228
tp576
(Vreshet.tv
p577
F0.002500336501581295
tp578
(Vnana10.co.il
p579
F0.0022548316724417413
tp580
(Vcalcalist.co.il
p581
F0.0018417326869460925
tp582
(Vrotter.net
p583
F0.0017081143185362219
tp584
(Vsdarot.tv
p585
F0.001147891993212563
tp586
(Vbeitar-jerusalem.net
p587
F0.0009314917537399742
tp588
(Vglobes.co.il
p589
F0.0008028600928230333
tp590
tp591
s((S'alpha6.com'
p592
tp593
(ttp594
(ts((S'apple.com'
p595
tp596
(ttp597
(ts((S'extracheese.org'
p598
tp599
(ttp600
(ts((S'alpha37.com'
p601
tp602
(ttp603
(ts((S'alpha10.com'
p604
tp605
(ttp606
(ts((S'weibo.com'
p607
tp608
(ttp609
((Vdouban.com
p610
F0.010033428455514418
tp611
(Vrenren.com
p612
F0.009045850353562254
tp613
(Vt.sina.com.cn
p614
F0.006880941836228743
tp615
(Vtw.yahoo.com
p616
F0.005802552902936697
tp617
(Vzhihu.com
p618
F0.005182165066233723
tp619
(Vuser.qzone.qq.com
p620
F0.0048495719265918185
tp621
(Vcnbeta.com
p622
F0.004668699257089632
tp623
(Vtieba.baidu.com
p624
F0.003849861965094919
tp625
(Vbilibili.com
p626
F0.003729730318029248
tp627
(Vbbs.hupu.com
p628
F0.00204170365397691
tp629
(Vxiami.com
p630
F0.0009027472940131179
tp631
tp632
s((S'alpha36.com'
p633
tp634
(ttp635
(ts((S'dropbox.com'
p636
tp637
(ttp638
((Vapp.box.com
p639
F0.0013404739791132872
tp640
(Vonedrive.live.com
p641
F0.0013325521252906328
tp642
(Vmail.google.com
p643
F0.0012791638643396106
tp644
(Vwetransfer.com
p645
F0.0012718690578820595
tp646
(Vdl.dropboxusercontent.com
p647
F0.001113213379752746
tp648
(Vbasecamp.com
p649
F0.0009847477842498521
tp650
(Vevernote.com
p651
F0.000911169342945063
tp652
(Vtrello.com
p653
F0.0007707266331317271
tp654
(Vgoo.gl
p655
F0.0005643067133763446
tp656
(Vapp.asana.com
p657
F0.0003447113809095475
tp658
(Vpastebin.com
p659
F0.0002867605076989273
tp660
(Vbit.ly
p661
F0.00028238188059720985
tp662
(Vdb.tt
p663
F0.00024846578865390364
tp664
(Vodesk.com
p665
F0.00023057830681953457
tp666
tp667
s((S'docks.com'
p668
tp669
(ttp670
((Vnew-startups.com
p671
F0.0011150896408172368
tp672
(Vimei.info
p673
F0.00013258549617717544
tp674
(Vdocs.com
p675
F0.00011210307582814303
tp676
tp677
s((S'cappuccino-project.org'
p678
tp679
(ttp680
(ts((S'astralapp.com'
p681
tp682
(ttp683
(ts((S'w3schools.com'
p684
tp685
(ttp686
((Vw3school.com
p687
F0.011502063248230303
tp688
(Vinfo343.ischool.uw.edu
p689
F0.00222680914685972
tp690
(Vhackthissite.org
p691
F0.0020351576929919703
tp692
(Vw3.org
p693
F0.0016574297507289558
tp694
(Vkb.iu.edu
p695
F0.0013406884083077707
tp696
(Vspidermarks.com
p697
F0.0011385526915260464
tp698
(Vtutorialspoint.com
p699
F0.0009175821542880868
tp700
(Vpicoctf.com
p701
F0.0004549384568337717
tp702
(Vw3shools.com
p703
F0.00037857890125446626
tp704
(Vapi.jquery.com
p705
F0.0003059480826287719
tp706
(Vmarianocalvo.com
p707
F0.0002950192275021
tp708
(Vprofit.notice.nl
p709
F0.00028931787484113804
tp710
(Vinsight.ccsf.edu
p711
F0.00027594889236203874
tp712
(Vxps.pk4labs.com
p713
F0.0002748864938891834
tp714
(Vtoster.ru
p715
F0.00025806812375980776
tp716
(Vkarlstads.itslearning.com
p717
F0.00022547500963902747
tp718
(Vhtmlgoodies.com
p719
F0.00021626982800444284
tp720
tp721
s((S'surrey.ac.uk'
p722
tp723
(ttp724
((Vpod51031.outlook.com
p725
F0.0017963586262663706
tp726
(Vexchange.uml.edu
p727
F0.0016144286007902184
tp728
(Vproximity.instructure.com
p729
F0.0015774356511539845
tp730
(Vexchange.ict.usc.edu
p731
F0.0015382841826919614
tp732
(Vsavingcountrymusic.com
p733
F0.0014328752846817757
tp734
(Vkaggle.com
p735
F0.001367232926914554
tp736
(Vussu.co.uk
p737
F0.0012484564641502206
tp738
(Vsurrey.summon.serialssolutions.com
p739
F0.0012332027866896894
tp740
(Vthecompleteuniversityguide.co.uk
p741
F0.0009841707655122726
tp742
(Vuppmax.uu.se
p743
F0.0009450092846242944
tp744
(Vsurrey-uk.sona-systems.com
p745
F0.0008319067088646201
tp746
(Vukeas.com.tw
p747
F0.0007918761171179304
tp748
(Vlms.neumont.edu
p749
F0.0007807936079197472
tp750
(Vunitemps.com
p751
F0.0007186507649313663
tp752
(Vbda.uk.com
p753
F0.0007096719081631982
tp754
(Vcreativeplusonline.co.uk
p755
F0.0006779957155228734
tp756
(Vcancercentrelondon.co.uk
p757
F0.0006776894018489342
tp758
(Vgradintel.com
p759
F0.0006630566913471102
tp760
(Vprogramsinformationpeople.org
p761
F0.0005993082113115775
tp762
(Vemeraldinsight.com
p763
F0.0005816681288147595
tp764
tp765
s((S'iosreviews.net'
p766
tp767
(ttp768
((Vfilter.usd262.net
p769
F0.0006673834859664083
tp770
(Va3.mzstatic.com
p771
F7.803355442840422e-05
tp772
(Vappszoom.com
p773
F2.7909670351906058e-05
tp774
(Vvimeo.com
p775
F4.509971547090617e-07
tp776
(Vgoogle.com.my
p777
F1.679023567040801e-07
tp778
(Vencrypted.google.com
p779
F1.581442718563291e-07
tp780
(Vduckduckgo.com
p781
F1.2340433203180587e-07
tp782
(Vtwitch.tv
p783
F6.699834316704951e-08
tp784
(Vgoogle.com
p785
F1.7100833862031203e-08
tp786
tp787
s((S'superuser.com'
p788
tp789
(ttp790
((Vstackexchange.com
p791
F0.004099459401758269
tp792
(Vlibc6.org
p793
F0.0030590372069599944
tp794
(Vencrypted.google.com
p795
F0.001023749016786298
tp796
(Vstartpage.com
p797
F0.0008201129671354862
tp798
(Vxie.lu
p799
F0.0007714776591323591
tp800
(Vforum.transmissionbt.com
p801
F0.0007119466006968179
tp802
(Vsmartredirect.de
p803
F0.00047585572816905144
tp804
(Vserverfault.com
p805
F0.00047570928055575365
tp806
(Vaskubuntu.com
p807
F0.0004297365953529304
tp808
(Vvirtualrouter.codeplex.com
p809
F0.00036603824366120835
tp810
(Ventiteinconnue.com
p811
F0.0002567725344910978
tp812
(Vservice.whiteclarke.com
p813
F0.0002535906271887286
tp814
(Vnetmechanic.dyndns.org
p815
F0.000249944877301956
tp816
(Vsocial.technet.microsoft.com
p817
F0.0002398143987486882
tp818
(Vcode5gaming.com
p819
F0.00022645517687985438
tp820
(Vmxc.ru
p821
F0.00021803652826213085
tp822
(Vwen.lu
p823
F0.00021779296914272678
tp824
(Vkldp.org
p825
F0.0001614334562921192
tp826
tp827
s((S'bycontext.com'
p828
tp829
(ttp830
(ts((S'regexper.com'
p831
tp832
(ttp833
((Vstats.wefra.de
p834
F0.01654884318766067
tp835
(Vservices.balihoo.com
p836
F0.011492809144005528
tp837
(Virchelp.org
p838
F0.009514896272032445
tp839
(Vbalihoo.wikispaces.com
p840
F0.008600634473034897
tp841
(Vconfig.whatsapp.net
p842
F0.008235261768587769
tp843
(Vope.comlocal.com
p844
F0.0054417942296446095
tp845
(Vex-parrot.com
p846
F0.005244206124024955
tp847
(Vscriptular.com
p848
F0.004299777068208656
tp849
(Vquovo.slack.com
p850
F0.004205529280171921
tp851
(Vslant.co
p852
F0.004089682490907161
tp853
(Vifconfig.me
p854
F0.003823109724905924
tp855
(Vjex.im
p856
F0.003593484437396034
tp857
(Vregexpal.com
p858
F0.003533949522620317
tp859
(Vredmine.nokaut.pl
p860
F0.003469110832330577
tp861
(Vmyezapp.com
p862
F0.0033483126266631424
tp863
(Vosslab.msopentech.cn
p864
F0.003287199672690848
tp865
(Vregexcrossword.com
p866
F0.0032797965438917417
tp867
(Vflockhart.virtualave.net
p868
F0.003141157502640796
tp869
(Vww1.regexp.com
p870
F0.0030955896640652257
tp871
(Vwisepilgrim.tk
p872
F0.0027548002769799186
tp873
tp874
s((S'welcometonightvale.com'
p875
tp876
(ttp877
((Vkaramicrabbit.tumblr.com
p878
F0.046660274848194315
tp879
(Vassbutt-inthetardis-withsherlock.tumblr.com
p880
F0.02699022905654333
tp881
(Vheard-comic.com
p882
F0.02576808721506442
tp883
(Vnightvale.libsyn.com
p884
F0.0030840219412858728
tp885
(Vnightvale.bandcamp.com
p886
F0.0029100392034955014
tp887
(Vforum.ianti-virus.com
p888
F0.0009595825158807621
tp889
(Vtopatoco.com
p890
F8.365148782536246e-05
tp891
(Vpodbay.fm
p892
F1.5005313972050512e-05
tp893
(Vnationstates.net
p894
F1.3306299935942108e-05
tp895
(Vkhanacademy.org
p896
F3.1321865143484366e-06
tp897
(Vitunes.apple.com
p898
F1.3008854342133617e-06
tp899
(Vp1.dntrck.com
p900
F5.811641924690855e-07
tp901
(Vamazon.co.uk
p902
F4.0711242932196677e-07
tp903
(Vetsy.com
p904
F2.412140427903423e-07
tp905
(Vtumblr.com
p906
F8.782749462968333e-08
tp907
(Vmail.google.com
p908
F2.9178958487822285e-08
tp909
(Vgoogle.com
p910
F1.0780567744388767e-08
tp911
(Vyoutube.com
p912
F4.510915729903013e-10
tp913
tp914
s((S'foobar2000.org'
p915
tp916
(ttp917
((Vxiph.org
p918
F0.012560316380569403
tp919
(Vchromium.woolyss.com
p920
F0.00955818180112687
tp921
(Vnnc-board.com
p922
F0.008407273052412243
tp923
(Vseriosoft.org
p924
F0.00812328805121656
tp925
(Vifi-audio.com
p926
F0.00682673706152465
tp927
(Vthalassa.feralhosting.com
p928
F0.006206348719177406
tp929
(Vexactaudiocopy.de
p930
F0.0059219804079789435
tp931
(Vhydrogenaud.io
p932
F0.004881531371685709
tp933
(Vsrware.net
p934
F0.0038989963128243216
tp935
(Vopen-end-music.de
p936
F0.0028752770792993695
tp937
(Vforum.pskovonline.ru
p938
F0.002540252362730567
tp939
(Vforum.hdmovie.vn
p940
F0.0019178192491957236
tp941
(Vmassengeschmack.tv
p942
F0.0017078779488777472
tp943
(Vforums.ffshrine.org
p944
F0.001649445296546487
tp945
(Vsmsserver.itouchnet.co.za
p946
F0.0015547791300949707
tp947
(Vburrrn.net
p948
F0.0013273025950887873
tp949
(Vjenny317.pixnet.net
p950
F0.0010201545082112753
tp951
(V10file.com
p952
F0.0009778273268755075
tp953
tp954
s((S't.co'
p955
tp956
(ttp957
((Vtwitter.com
p958
F0.01662514245459643
tp959
(Vnetshaker.co.uk
p960
F0.005702748047539814
tp961
(Vovermanforum.com
p962
F0.005168993771333038
tp963
(Vvidshaker.com
p964
F0.004333940142822799
tp965
(Vhootsuite.com
p966
F0.002525967849609657
tp967
(Vpravda.com.ua
p968
F0.0021821462081275064
tp969
(Vlinkonym.appspot.com
p970
F0.00116419829102206
tp971
(Vnirist.com
p972
F0.0007631574786724346
tp973
(Vshortp.com
p974
F0.0007615519848983666
tp975
(Vyoutoo.be
p976
F0.0004364089663812316
tp977
(Vru.4game.com
p978
F0.00023765488762786773
tp979
(Vdiym.ag
p980
F0.00022602564113454292
tp981
(Vdl.dropboxusercontent.com
p982
F0.00018622810739933932
tp983
tp984
s((S'netdna-ssl.com'
p985
tp986
(ttp987
((Vservermat.info
p988
F0.015230253887760331
tp989
(Vfinedininglovers.com
p990
F0.007828688392923909
tp991
(Vblog.myfitnesspal.com
p992
F0.006571678856628307
tp993
(Vvisual.ly
p994
F0.005523052877933682
tp995
(Vredrow.co.uk
p996
F0.0054794740749505135
tp997
(Vgrainandmortar.com
p998
F0.005173594116386273
tp999
(Vskillsera.com
p1000
F0.004438460562360511
tp1001
(Vblank-box.net
p1002
F0.003202477829561559
tp1003
(Vkls-ukraine.com.ua
p1004
F0.0026298015359082477
tp1005
(Vfinerthings.in
p1006
F0.002208584819772735
tp1007
(Vhostedcloudy.com
p1008
F0.001929990552717578
tp1009
(Vzino.im
p1010
F0.0017095925364803445
tp1011
(Vsram.com
p1012
F0.0015705995916889095
tp1013
(Vs1magnettvcom.maynemyltf.netdna-cdn.com
p1014
F0.0013414146062946583
tp1015
(Vhomepath.com
p1016
F0.0010985648416592306
tp1017
(Vagents.equator.com
p1018
F0.000992105542015471
tp1019
(Vnewhdplugin.net
p1020
F0.0006650805674776797
tp1021
(Virvsluggage.com
p1022
F0.0006295881279719576
tp1023
(Vcool-tv.net
p1024
F0.0006268836631248746
tp1025
(Vbettielou.blogspot.com
p1026
F0.0005037569778605635
tp1027
tp1028
s((S'alpha12.com'
p1029
tp1030
(ttp1031
(ts((S'theenchanter.com'
p1032
tp1033
(ttp1034
(ts((S'mashable.com'
p1035
tp1036
(ttp1037
((Vtechcrunch.com
p1038
F0.003269554441150279
tp1039
(Vthenextweb.com
p1040
F0.0020893059576553882
tp1041
(Vtheverge.com
p1042
F0.0011964644051488723
tp1043
(Vengadget.com
p1044
F0.0011541180149668715
tp1045
(Vwired.com
p1046
F0.0010062199169788152
tp1047
(Vt.co
p1048
F0.001000532665223137
tp1049
(Vgizmodo.com
p1050
F0.0008873288390789227
tp1051
(Vbusinessinsider.com
p1052
F0.0007152040206950399
tp1053
(Vdigg.com
p1054
F0.0005093257403694798
tp1055
(Vmacrumors.com
p1056
F0.00048813763950878304
tp1057
(Vfastcompany.com
p1058
F0.0004186323234047929
tp1059
(Varstechnica.com
p1060
F0.00036950639928100704
tp1061
(Vfeedly.com
p1062
F0.000247658170357474
tp1063
tp1064
s((S'alpha2.com'
p1065
tp1066
(ttp1067
((Valpharooms.com
p1068
F0.003697445800052664
tp1069
(Vsculpteo.com
p1070
F0.00044483632406326206
tp1071
(Vuk.pinterest.com
p1072
F1.5539860296655933e-05
tp1073
(Vimgur.com
p1074
F1.9443935627705352e-07
tp1075
(Vdrive.google.com
p1076
F2.224820992362993e-08
tp1077
tp1078
s((S'designtaxi.com'
p1079
tp1080
(ttp1081
((Vnaturpixel.com
p1082
F0.002525569674668886
tp1083
(Vresearch.facebook.com
p1084
F0.0024447558932316087
tp1085
(Vmrhyde.com
p1086
F0.002101027503719101
tp1087
(Vpurpleheart.org
p1088
F0.0015727754663803514
tp1089
(Vedpuzzle.com
p1090
F0.0014091455933541925
tp1091
(Vallenby-pratt.com
p1092
F0.0012811653560782217
tp1093
(Valiciavera.com
p1094
F0.0012265785229286553
tp1095
(Vtheinspiration.com
p1096
F0.0011984722954081271
tp1097
(Vmodernhousemagazine.com
p1098
F0.0011556103820603895
tp1099
(Vhaebc.com
p1100
F0.0011554678439678909
tp1101
(Vhep.eiz.jp
p1102
F0.0011284011989747447
tp1103
(Vsomethingcomics.tumblr.com
p1104
F0.001076472847460011
tp1105
(Vmensstyleadvice.com
p1106
F0.0010069390317375387
tp1107
(Vjobisjob.de
p1108
F0.0009852059176329467
tp1109
(Vassets.gecapital.com.au
p1110
F0.0009332437835811571
tp1111
(Vcreativereview.co.uk
p1112
F0.000928881838058707
tp1113
(Vzombiesamurai.pl
p1114
F0.0009227463467303423
tp1115
(Vecsediekszer.hu
p1116
F0.0008745579998976046
tp1117
(Vkarne.pl
p1118
F0.0008697854085080444
tp1119
(Vilghirlandaio.com
p1120
F0.000848768909519732
tp1121
tp1122
s((S'alpha41.com'
p1123
tp1124
(ttp1125
(ts((S'mortgagecalculator.org'
p1126
tp1127
(ttp1128
((Vmlstoledo.com
p1129
F0.002289881028527568
tp1130
(Vecf.ganb.uscourts.gov
p1131
F0.002150350332913875
tp1132
(Vsef.fusionmls.com
p1133
F0.0017126636580814146
tp1134
(Vnom.fusionmls.com
p1135
F0.0012663389234897188
tp1136
(Vmoneychimp.com
p1137
F0.0010296039907220602
tp1138
(Vnexusthemes.com
p1139
F0.0009361985436735829
tp1140
(Vluminouswm.com
p1141
F0.0007395303318144178
tp1142
(Vtn-murfreesboro.civicplus.com
p1143
F0.0007395303318144178
tp1144
(Vturquoisekosherfish.com
p1145
F0.0007395303318144178
tp1146
(Vtour.nneren.previsite.com
p1147
F0.0007377367825841108
tp1148
(Vpopville.wpengine.netdna-cdn.com
p1149
F0.0007369530082134957
tp1150
(Vstjosephcountyindiana.com
p1151
F0.0007309605565805052
tp1152
(Vbestplaces.coldwellbanker.com
p1153
F0.0007305960044710725
tp1154
(Vloftplace.com
p1155
F0.0007303300151423214
tp1156
(Vmyutahnest.com
p1157
F0.0007207697129977007
tp1158
(Vmatrix.carolinamls.com
p1159
F0.0006728210371216791
tp1160
(Vatproperties.com
p1161
F0.0004691549728514806
tp1162
(Vmatrix.mlslistings.com
p1163
F0.00043129308413106487
tp1164
(Vbrighton-exchange.com
p1165
F0.0003896827677490704
tp1166
(Vmortgagcalculator.org
p1167
F0.0003896827677490704
tp1168
tp1169
s((S'alpha25.com'
p1170
tp1171
(ttp1172
(ts((S'diveintopython.net'
p1173
tp1174
(ttp1175
((Vluisartola.com
p1176
F0.01308713593306666
tp1177
(Vlearn.gramener.com
p1178
F0.0066802362512468775
tp1179
(Vdjango-chinese-docs-14.readthedocs.org
p1180
F0.006255710972095312
tp1181
(Vlignos.org
p1182
F0.003607044345427541
tp1183
(Vdocs.python.org
p1184
F0.0029514139252664086
tp1185
(Vdiveintopython3.net
p1186
F0.0024584698132149164
tp1187
(Vscipy.org
p1188
F0.00233695159956468
tp1189
(Vcalazan.com
p1190
F0.0018844901747393514
tp1191
(Vconnexus-jjm.appspot.com
p1192
F0.0016320116054158607
tp1193
(Vtour-sz.com
p1194
F0.0015841490518749704
tp1195
(Vsagemath.org
p1196
F0.0013459797709473023
tp1197
(Vapp.azendoo.com
p1198
F0.001330340715038685
tp1199
(Vgit.crl.vecna.com
p1200
F0.0011964902951342728
tp1201
(Vtechprom.ru
p1202
F0.0011357111225529769
tp1203
(Vmozgovipc.blogspot.co.il
p1204
F0.0008450978246330817
tp1205
(Vcforbeginners.com
p1206
F0.0006691024343003037
tp1207
(Vquality.mozilla.org
p1208
F0.0006626145240006626
tp1209
(Vvipod.ecommtools.com
p1210
F0.0006560723137483598
tp1211
(Vtrac.kit-xxi.com.ua
p1212
F0.0006007910415380251
tp1213
(Vwoodpecker.org.cn
p1214
F0.0005948740571413293
tp1215
tp1216
s((S'alpha26.com'
p1217
tp1218
(ttp1219
(ts((S'alpha49.com'
p1220
tp1221
(ttp1222
(ts((S'bleepingcomputer.com'
p1223
tp1224
(ttp1225
((Vforums.malwarebytes.org
p1226
F0.014133110558044844
tp1227
(Vtoolslib.net
p1228
F0.009604761097288106
tp1229
(Vforums.techguy.org
p1230
F0.005599808649726676
tp1231
(Veasylist.adblockplus.org
p1232
F0.005464288494238814
tp1233
(Vforum.avast.com
p1234
F0.0023284922428071543
tp1235
(Vcommunity.mcafee.com
p1236
F0.002115762450095909
tp1237
(Vsupportatalliance.zendesk.com
p1238
F0.0018201070593856425
tp1239
(Vcombofix.org
p1240
F0.0017738837446607918
tp1241
(Vcomment-supprimer.com
p1242
F0.0017606388173824258
tp1243
(Vsurfright.nl
p1244
F0.0010393969965511157
tp1245
(Vcome-eliminare.com
p1246
F0.0008058871889142518
tp1247
(Vsupport.bullguard.com
p1248
F0.0006765552464745129
tp1249
(Vanswers.avira.com
p1250
F0.0006701063889255314
tp1251
(Vnonags.com
p1252
F0.0006179254116133074
tp1253
(Vforum.eset.com
p1254
F0.0006131790797156976
tp1255
(Vbroker4.gotoassist.com
p1256
F0.0005442813345531518
tp1257
(Vspywarefri.dk
p1258
F0.0004931542110596758
tp1259
tp1260
s((S'alpha11.com'
p1261
tp1262
(ttp1263
(ts((S'metaskills.net'
p1264
tp1265
(ttp1266
((Vctshryock.com
p1267
F0.016547468798205022
tp1268
(Vredmine.bikecityguide.org
p1269
F0.0021527305687740767
tp1270
(Vatendesign.atlassian.net
p1271
F0.0003169074849782714
tp1272
(Vcoderwall.com
p1273
F0.00021703084325282697
tp1274
(Vphantomjs.org
p1275
F0.00013313754282917278
tp1276
(Vhttpd.apache.org
p1277
F1.5940797752535055e-05
tp1278
(Vgithub.com
p1279
F3.3243081757242964e-06
tp1280
(Vduckduckgo.com
p1281
F1.0081056908941716e-06
tp1282
(Vtrello.com
p1283
F9.761391994511724e-07
tp1284
(Vstartpage.com
p1285
F6.875454166190843e-07
tp1286
(Vstackoverflow.com
p1287
F3.0192988684047274e-07
tp1288
(Vtweetdeck.twitter.com
p1289
F1.599518661211605e-07
tp1290
(Vbing.com
p1291
F9.369324416725723e-08
tp1292
(Vgoogle.com.sg
p1293
F5.183408317133579e-08
tp1294
tp1295
s((S'overapi.com'
p1296
tp1297
(ttp1298
((Vapis.pw
p1299
F0.007200668343131401
tp1300
(Vtroy.labs.daum.net
p1301
F0.00701409345452805
tp1302
(V121down.com
p1303
F0.005797076194085878
tp1304
(Vbullium.com
p1305
F0.005647792665666607
tp1306
(Vpittalis.hostings.co.uk
p1307
F0.005007780530559443
tp1308
(Vwebmail.garmin.com
p1309
F0.004804957073805288
tp1310
(Vbumpsdocumentarily.squarespace.com
p1311
F0.004158373405198481
tp1312
(Vorays.wd-works.com
p1313
F0.004110381077529567
tp1314
(Vbootgraph.net
p1315
F0.004030362627239939
tp1316
(Vredmine.infogene.fr
p1317
F0.0034291946192749156
tp1318
(Vmitarbeiter.hs-heilbronn.de
p1319
F0.003285460978893482
tp1320
(Vnote-pad.net
p1321
F0.0032399080437864043
tp1322
(Vupsideos.com
p1323
F0.0032079887740138428
tp1324
(Vscm.ulster.ac.uk
p1325
F0.002922858853657464
tp1326
(Vibmwebsphereportalserver.blogspot.pt
p1327
F0.0026748188381356852
tp1328
(Vytub3.com
p1329
F0.0026007381348067253
tp1330
(Vvertical3w.teamwork.com
p1331
F0.002595337661272785
tp1332
(Vfindpatent.ru
p1333
F0.0025676768503163972
tp1334
(Vcheat-sheets.org
p1335
F0.0022810455972986374
tp1336
(Vlocaltest.me
p1337
F0.002195967292517345
tp1338
tp1339
s((S'meditation.com'
p1340
tp1341
(ttp1342
((Vmedication.com
p1343
F0.015265354800238521
tp1344
(Vhoroscopedays.com
p1345
F0.0001161929383741703
tp1346
(Vbrilliant.org
p1347
F6.724553867879327e-05
tp1348
(Vamharicmovies.com
p1349
F5.362787984026289e-05
tp1350
(Vlequipe.fr
p1351
F7.816310148203357e-07
tp1352
(Ven.wikipedia.org
p1353
F5.252421832353988e-08
tp1354
(Vsearch.ask.com
p1355
F3.7740381291546105e-08
tp1356
(Vgoogle.ca
p1357
F3.648383286054617e-08
tp1358
(Vreddit.com
p1359
F1.058890587253285e-08
tp1360
(Vgoogle.co.in
p1361
F3.669238772897556e-09
tp1362
(Vfacebook.com
p1363
F1.5397755423834308e-09
tp1364
tp1365
s((S'alpha48.com'
p1366
tp1367
(ttp1368
(ts((S'taskrabbit.com'
p1369
tp1370
(ttp1371
(ts((S'bing.com'
p1372
tp1373
(ttp1374
((Vmsn.com
p1375
F0.016635658217342388
tp1376
(Vtrovi.com
p1377
F0.016555075479974354
tp1378
(Vbaidu.com
p1379
F0.003273251804980637
tp1380
(Vyahoo.com
p1381
F0.0027715540810384367
tp1382
(Vapps.facebook.com
p1383
F0.001965248831657405
tp1384
(Vamazon.com
p1385
F0.001769528353985467
tp1386
(Vyoutube.com
p1387
F0.0016330581196150912
tp1388
(Vistart.webssearches.com
p1389
F0.0016193109759660585
tp1390
(Vwww-search.net
p1391
F0.0015684668097458295
tp1392
(Vgoogle.com
p1393
F0.0015435173690071886
tp1394
(Vsearch.safefinder.com
p1395
F0.0015014238507027663
tp1396
(Vwebsearch.calcitapp.info
p1397
F0.0010834036777905153
tp1398
(Vcr2.gogorithm.com
p1399
F0.0010569179030244548
tp1400
(Vistart123.com
p1401
F0.0009062105420444925
tp1402
(Vreddit.com
p1403
F0.0008460113039214405
tp1404
(Vmystartsearch.com
p1405
F0.0008281261084001494
tp1406
tp1407
s((S'fetchapp.com'
p1408
tp1409
(ttp1410
((Vcheckout.shopify.com
p1411
F0.03289034869667742
tp1412
(Vpixelunion.net
p1413
F0.014754481133273599
tp1414
(Vvfbpro.com
p1415
F0.006749764676306224
tp1416
(Vmovimus-wrestling.myshopify.com
p1417
F0.004611150121474517
tp1418
(Vsiteorigin.uservoice.com
p1419
F0.0013398333270103824
tp1420
(Vnivel7.zendesk.com
p1421
F0.0010256196709226026
tp1422
(Vlocalinternettraffic.basecamphq.com
p1423
F0.0007945726175017724
tp1424
(Vfindacaravan.co.uk
p1425
F0.000773582354640265
tp1426
(Vmygedlive.com
p1427
F0.0006667648984276862
tp1428
(Vsupergiantgames.com
p1429
F0.0006353591339866412
tp1430
(Vrubinmuseum.mooclients.com
p1431
F0.0005533319807440471
tp1432
(Vstore-ugs15e.mybigcommerce.com
p1433
F0.0005459376175282371
tp1434
(Vdowntownhq.com
p1435
F0.0005201510438608135
tp1436
(Vwebmail1.cogeco.ca
p1437
F0.0005121806493696923
tp1438
(Vccparkboard.com
p1439
F0.0005069670278806741
tp1440
(Vmy-cubby-house-rocks.myshopify.com
p1441
F0.000469641480868186
tp1442
(Vpredictablesuccess.com
p1443
F0.00046456904822288767
tp1444
(Vabookapart.com
p1445
F0.000443290002711978
tp1446
(Vjoridweb.com
p1447
F0.00037026980326331123
tp1448
(Vevanabrams.com
p1449
F0.00036538634981349104
tp1450
tp1451
s((S'apreche.net'
p1452
tp1453
(ttp1454
((Vtenprinthello.ca
p1455
F0.04867890147077964
tp1456
(Vblog.mathieu-leplatre.info
p1457
F0.014435324087178035
tp1458
(Vmichal.karzynski.pl
p1459
F0.005433674600008864
tp1460
(Vcafehayek.com
p1461
F0.0005601225679972324
tp1462
(Vmtgoacademy.com
p1463
F0.00023374712685823236
tp1464
(Vknowledge.rapidssl.com
p1465
F0.00020115021349352203
tp1466
(Vbitnami.com
p1467
F2.8252108521334497e-05
tp1468
(Vhelp.github.com
p1469
F1.3902984970873247e-05
tp1470
tp1471
s((S'youtu.be'
p1472
tp1473
(ttp1474
((Vyoutube.be
p1475
F0.002327771504181619
tp1476
(Vuses.myherbalife.com
p1477
F0.0022052491406921487
tp1478
(Vbahrammoshiri.com
p1479
F0.00120513846529179
tp1480
(Vsteerbiddersales.com
p1481
F0.0010856524094649729
tp1482
(Vexams.evinrude.com
p1483
F0.0009387105668307909
tp1484
(Vwww2.memehk.com
p1485
F0.000840664053480079
tp1486
(Vmemehk.com
p1487
F0.0006322798687984735
tp1488
(Vmissyusa.com
p1489
F0.0006279402146092168
tp1490
(Vfollovvme.com
p1491
F0.0004785133661676418
tp1492
(Vtubetamil.com
p1493
F0.0004547101225723085
tp1494
(Vfirstlegoleague.org
p1495
F0.0004278581860366056
tp1496
(Vk8mer.com
p1497
F0.00038935924897389785
tp1498
(Vblaulichtreporter.de
p1499
F0.0003442025800306291
tp1500
(Veasykart.it
p1501
F0.00034177048920407956
tp1502
(Vnerdapproved.com
p1503
F0.00033383098580019383
tp1504
(Vwieboldtv.de
p1505
F0.0003332203017659258
tp1506
(Vphumidrama.com
p1507
F0.00032757148580445696
tp1508
(Vkilroynews.net
p1509
F0.0003270797996804544
tp1510
(Vhelpdesk.tankionline.com
p1511
F0.0002683043007451439
tp1512
(Vsaintsfc.co.uk
p1513
F0.0002499477358238586
tp1514
tp1515
s((S'ynet.co.il'
p1516
tp1517
(ttp1518
(ts((S'alpha51.com'
p1519
tp1520
(ttp1521
(ts((S'alpha1.com'
p1522
tp1523
(ttp1524
((Vtheaudience.com
p1525
F0.009694201243497019
tp1526
tp1527
s((S'tutorialspoint.com'
p1528
tp1529
(ttp1530
((Vwiki.python.org
p1531
F0.005812159708003393
tp1532
(Vtutorialpoint.com
p1533
F0.0021775165351430943
tp1534
(Vjavatpoint.com
p1535
F0.001968934012532698
tp1536
(Vhexvolt.blogspot.ru
p1537
F0.0015654524915361316
tp1538
(Verhvervsakademisydvest.sharepoint.com
p1539
F0.0010571098842477162
tp1540
(Vrallydev.com
p1541
F0.0007445860040062963
tp1542
(Vcprogramming.com
p1543
F0.0006934952073382222
tp1544
(Vebooks-it.org
p1545
F0.0006203165820055927
tp1546
(Vmkyong.com
p1547
F0.0005062963910686054
tp1548
(Vlardoors.ru
p1549
F0.00048065709207179333
tp1550
(Vstudytonight.com
p1551
F0.00044009319580119765
tp1552
(Vhomeandlearn.co.uk
p1553
F0.00042920870144858323
tp1554
(Vhub.attask.com
p1555
F0.00041461175045723575
tp1556
(Vfhict.nl
p1557
F0.0003724732036863049
tp1558
(Vbatman.jamk.fi
p1559
F0.00035189190319527444
tp1560
(Vservices.brics.dk
p1561
F0.00034668114031273604
tp1562
(Vjava2s.com
p1563
F0.0003430930183514621
tp1564
(Vncvps.blackboard.com
p1565
F0.00033488728945250517
tp1566
(Vforum-alsacetech.org
p1567
F0.00031760909843814436
tp1568
(Vvogella.com
p1569
F0.0003130399033593343
tp1570
tp1571
s((S'ruby-doc.org'
p1572
tp1573
(ttp1574
((Vruby-lang.org
p1575
F0.013201199696001907
tp1576
(Vruby-forum.com
p1577
F0.008747609502763641
tp1578
(Vrubymonk.com
p1579
F0.0066763845359754164
tp1580
(Vapi.rubyonrails.org
p1581
F0.005878717500206361
tp1582
(Vpine.fm
p1583
F0.0024445864869402467
tp1584
(Vrubydoc.info
p1585
F0.0018924510596828913
tp1586
(Vpb.vanburg.ru
p1587
F0.0016634643017226075
tp1588
(Vcodewars.com
p1589
F0.0013226159920880281
tp1590
(Vfabricationgem.org
p1591
F0.0012286729167879811
tp1592
(Vrubydocs.org
p1593
F0.0012119574037700268
tp1594
(Vapidock.com
p1595
F0.0010269281121975656
tp1596
(Vmootools.net
p1597
F0.0009992932546863443
tp1598
(Vblog.remarkablelabs.com
p1599
F0.0008252490196022697
tp1600
(Valexa.bitmakerlabs.com
p1601
F0.0008213445688254505
tp1602
(Vbloc.io
p1603
F0.0008046723518956768
tp1604
(Vtlk.io
p1605
F0.0008028277194664875
tp1606
(Vit-ebooks-search.info
p1607
F0.0007187965547440323
tp1608
(Vrailstutorial.org
p1609
F0.0006903101397194037
tp1610
(Vget.wynk.in
p1611
F0.000643192538966548
tp1612
(Vhorizon.launchacademy.com
p1613
F0.0006275973357841288
tp1614
tp1615
s((S'cappuccino.org'
p1616
tp1617
(ttp1618
(ts((S'alpha18.com'
p1619
tp1620
(ttp1621
(ts((S'sqlite.org'
p1622
tp1623
(ttp1624
(ts((S'amazon.com'
p1625
tp1626
(ttp1627
((Vebay.com
p1628
F0.006738821250621747
tp1629
(Vslickdeals.net
p1630
F0.004120650473717563
tp1631
(Vbestbuy.com
p1632
F0.0030788964220882925
tp1633
(Vwalmart.com
p1634
F0.003050477312560511
tp1635
(Vnewegg.com
p1636
F0.002798296769576636
tp1637
(Vnetflix.com
p1638
F0.0024294274563549496
tp1639
(Vreddit.com
p1640
F0.002175753691217573
tp1641
(Vgoogle.com
p1642
F0.001391784985509667
tp1643
(Vhulu.com
p1644
F0.0011102072873126314
tp1645
(Vblackfriday.com
p1646
F0.0008052288786513178
tp1647
(Vus-mg6.mail.yahoo.com
p1648
F0.000766715618933907
tp1649
(Vtarget.com
p1650
F0.0007593360528991675
tp1651
(Ven.wikipedia.org
p1652
F0.0005814582312035169
tp1653
(Vgoodreads.com
p1654
F0.000495839687204871
tp1655
tp1656
s((S'ask.fm'
p1657
tp1658
(ttp1659
((Vapi.twitter.com
p1660
F0.0038719768085425585
tp1661
(Vinstagram.com
p1662
F0.0035201162759656564
tp1663
(Vsprashivai.ru
p1664
F0.0022410229396287156
tp1665
(Vdraugiem.lv
p1666
F0.0016981704734718584
tp1667
(Vosu.ppy.sh
p1668
F0.0011900555365722462
tp1669
(Vvk.com
p1670
F0.0010733686607157825
tp1671
(Vphotoblog.pl
p1672
F0.0009434860247498849
tp1673
(Vfacebook.com
p1674
F0.0007897221642810317
tp1675
(Voauth.vk.com
p1676
F0.0004924653958516431
tp1677
(Vm.vk.com
p1678
F0.000447875040448687
tp1679
(Vficbook.net
p1680
F0.0002781688076100809
tp1681
(Vgoogle.com.eg
p1682
F0.0002763304753074731
tp1683
(Vtumblr.com
p1684
F0.00026120886529040424
tp1685
(Vgoogle.pl
p1686
F0.00022167104852053066
tp1687
(Vplurk.com
p1688
F0.00020680246864649752
tp1689
(Vbezuzyteczna.pl
p1690
F0.00020554866267027548
tp1691
tp1692
s((S'alpha13.com'
p1693
tp1694
(ttp1695
(ts((S'brentozar.com'
p1696
tp1697
(ttp1698
(ts((S'rubybestpractices.com'
p1699
tp1700
(ttp1701
(ts((S'alpha52.com'
p1702
tp1703
(ttp1704
(ts((S'ycombinator.com'
p1705
tp1706
(ttp1707
((Vhackerne.ws
p1708
F0.002258449013607999
tp1709
(Vtechmeme.com
p1710
F0.0012691820221576143
tp1711
(Vnews.layervault.com
p1712
F0.0009917455368117767
tp1713
(Vproducthunt.com
p1714
F0.0006783600822242837
tp1715
(Vspacerogue.net
p1716
F0.0006178246123912907
tp1717
(Vxcortex.com
p1718
F0.0005490919247667366
tp1719
(Vblog.samaltman.com
p1720
F0.00045371434238055064
tp1721
(Vnautil.us
p1722
F0.0004510529032547637
tp1723
(Vnews.dbanotes.net
p1724
F0.0003639712839933979
tp1725
(Vlesswrong.com
p1726
F0.00029064409138113845
tp1727
(Vnikcub.com
p1728
F0.00023565540621483204
tp1729
(Vlobste.rs
p1730
F0.00016749410462020464
tp1731
(Vgwucolumbian.service-now.com
p1732
F0.00015106314765607595
tp1733
(Vdatatau.com
p1734
F0.0001409348825942487
tp1735
(Vnet-benefits.net
p1736
F0.00013016942453237583
tp1737
tp1738
s((S'adobe.com'
p1739
tp1740
(ttp1741
((Vmozilla.org
p1742
F0.015111450175616077
tp1743
(Vapps.facebook.com
p1744
F0.0059619678680743506
tp1745
(Vfilehippo.com
p1746
F0.004900062455243954
tp1747
(Vacrobat.com
p1748
F0.004836207731470023
tp1749
(Vshell.windows.com
p1750
F0.004715263584245032
tp1751
(Vfb1.farm2.zynga.com
p1752
F0.004637787853163249
tp1753
(Vsupport.google.com
p1754
F0.0037578816140994334
tp1755
(Vthanks.freesoftstore.com
p1756
F0.002328482156562959
tp1757
(Vupdate1024.com
p1758
F0.0013898408960056395
tp1759
(Vthanks.freesoftstore2.com
p1760
F0.0013255858152199373
tp1761
(Vowl.english.purdue.edu
p1762
F0.0013105499640232714
tp1763
(Veasyjet.com
p1764
F0.0007198307701079823
tp1765
(Vmacromedia.com
p1766
F0.0006869022921899767
tp1767
(Vsecure.sarsefiling.co.za
p1768
F0.0006844256605296551
tp1769
tp1770
s((S'wikipedia.org'
p1771
tp1772
(ttp1773
((Vencrypted.google.com
p1774
F0.00771525505585607
tp1775
(Vbing.com
p1776
F0.004811910265206266
tp1777
(Vanswers.yahoo.com
p1778
F0.003100154798136046
tp1779
(Vsearch.disconnect.me
p1780
F0.0027486073979923428
tp1781
(Vprinceton.edu
p1782
F0.002546492596888385
tp1783
(Vimdb.com
p1784
F0.0020199007621722297
tp1785
(Vboards.4chan.org
p1786
F0.0011714401370427696
tp1787
(Veksisozluk.com
p1788
F0.001109914847106986
tp1789
(Vduckduckgo.com
p1790
F0.0010408949383171428
tp1791
(Vreddit.com
p1792
F0.000775024669043505
tp1793
(Vwen.lu
p1794
F0.0007574262961416565
tp1795
(Vraterhub.com
p1796
F0.00044425107955377627
tp1797
(Vbaike.baidu.com
p1798
F0.00035421615396662187
tp1799
tp1800
s((S'twitter.com'
p1801
tp1802
(ttp1803
((Vinstagram.com
p1804
F0.009640668836346135
tp1805
(Vfacebook.com
p1806
F0.005754900727130478
tp1807
(Vtumblr.com
p1808
F0.005717088994814716
tp1809
(Vtwitch.tv
p1810
F0.005152529468333346
tp1811
(Vreddit.com
p1812
F0.004914842497878588
tp1813
(Vask.fm
p1814
F0.004444513960399476
tp1815
(Vlinkedin.com
p1816
F0.003428389609628508
tp1817
(Vyoutube.com
p1818
F0.0033467710833313545
tp1819
(Vgoogle.co.jp
p1820
F0.0017641893086358437
tp1821
(Vespn.go.com
p1822
F0.001334680555584708
tp1823
(Vvk.com
p1824
F0.0008567391042836494
tp1825
(Vgoogle.com.tr
p1826
F0.0008184359701507858
tp1827
tp1828
s((S'walmart.com'
p1829
tp1830
(ttp1831
((Vtarget.com
p1832
F0.016191472243672674
tp1833
(Vwww2.onlinecreditcenter6.com
p1834
F0.01191700934366368
tp1835
(Vblackfriday.com
p1836
F0.008828973008072028
tp1837
(Vbestbuy.com
p1838
F0.007051185413925967
tp1839
(Vkmart.com
p1840
F0.004302594970420979
tp1841
(Vtoysrus.com
p1842
F0.004132935890938453
tp1843
(Vsamsclub.com
p1844
F0.003398453827899621
tp1845
(Vhiringcenter.walmartstores.com
p1846
F0.002464230730206549
tp1847
(Vr.befrugal.com
p1848
F0.002102698555986174
tp1849
(Vwalgreens.com
p1850
F0.0018930996132344058
tp1851
(Vshopping.paypal.com
p1852
F0.0012793019201361572
tp1853
(Vkohls.com
p1854
F0.001067534574161307
tp1855
(Vgamestop.com
p1856
F0.00098459925813377
tp1857
(Vamazon.com
p1858
F0.0009239514095817645
tp1859
tp1860
s((S'alpha16.com'
p1861
tp1862
(ttp1863
(ts((S'google.com'
p1864
tp1865
(ttp1866
(ts((S'coursera.org'
p1867
tp1868
(ttp1869
((Vcourses.edx.org
p1870
F0.005682409218958396
tp1871
(Vudacity.com
p1872
F0.0032743153315409304
tp1873
(Vcodeskulptor.org
p1874
F0.002716798767326224
tp1875
(Vedx.org
p1876
F0.002345213620656822
tp1877
(Vmooc.guokr.com
p1878
F0.001304445694573597
tp1879
(Vudemy.com
p1880
F0.0012989515229204602
tp1881
(Vcodecademy.com
p1882
F0.001094793903822028
tp1883
(Vfuturelearn.com
p1884
F0.001069718425067974
tp1885
(Vd396qusza40orc.cloudfront.net
p1886
F0.0009671142040794794
tp1887
(Vmysliderule.com
p1888
F0.0006418503366131907
tp1889
(Vmiriadax.net
p1890
F0.0006400923571775631
tp1891
(Vocw.mit.edu
p1892
F0.0005196729488418822
tp1893
(Vonline.stanford.edu
p1894
F0.0004266295741752318
tp1895
(V1point3acres.com
p1896
F0.00034809050272295626
tp1897
tp1898
s((S'pcworld.com'
p1899
tp1900
(ttp1901
((Vpcmag.com
p1902
F0.0160570091461598
tp1903
(Vmaximumpc.com
p1904
F0.00604172486689136
tp1905
(Vovermanforum.com
p1906
F0.005006690152892461
tp1907
(Vliliputing.com
p1908
F0.003723307465314178
tp1909
(Vcnet.com
p1910
F0.0026935050431359524
tp1911
(Vzdnet.com
p1912
F0.0025231801921726843
tp1913
(Vfreewarefiles.com
p1914
F0.0022220346213923654
tp1915
(Vcomputerworld.com
p1916
F0.002161598910721406
tp1917
(Vtechlife.net
p1918
F0.0011621989063103498
tp1919
(Vextremetech.com
p1920
F0.0010303279710813453
tp1921
(Vsystweak.cleverbridge.com
p1922
F0.0009571076966246342
tp1923
(Vinfo.merrick.com
p1924
F0.0004782695306837402
tp1925
tp1926
s((S'somethingpositive.com'
p1927
tp1928
(ttp1929
((Vsomethingpostive.net
p1930
F0.05551369002763124
tp1931
(Vjezebel.com
p1932
F4.424084024843979e-06
tp1933
(Vsmbc-comics.com
p1934
F3.576337317918497e-06
tp1935
(Vamazon.co.uk
p1936
F2.8458752349683427e-07
tp1937
(Vtwitter.com
p1938
F1.9658182515494668e-08
tp1939
(Vreddit.com
p1940
F1.4299505429861048e-08
tp1941
tp1942
s((S'puzzlescript.net'
p1943
tp1944
(ttp1945
(ts((S'falsepositivecomic.com'
p1946
tp1947
(ttp1948
((Vshawntionary.com
p1949
F0.00950097050911996
tp1950
(Vplox-comic.com
p1951
F0.005055740324931485
tp1952
(Vthezombiehunters.com
p1953
F0.004297320866180845
tp1954
(Vscottystudios.wix.com
p1955
F0.0025771330119156205
tp1956
(Vseiyuucrush.net
p1957
F0.0017266131222597291
tp1958
(Vnucat.org
p1959
F0.0016811228741404173
tp1960
(Vjasoncomic.smackjeeves.com
p1961
F0.0013182548675450094
tp1962
(Vcotn.smackjeeves.com
p1963
F0.001298239001612329
tp1964
(Vbargainbooze.co.uk
p1965
F0.0010663136800691266
tp1966
(Valwaysraininghere.com
p1967
F0.0008211378906814985
tp1968
(V2tamburlaine.tumblr.com
p1969
F0.000757251035862266
tp1970
(Vimaginetheending.net
p1971
F0.0007409582127528695
tp1972
(Vwebhost.iu.edu
p1973
F0.0007157246557888859
tp1974
(Vmushamushcomic.com
p1975
F0.0006893031210474807
tp1976
(Vwebcomicoverlook.com
p1977
F0.0006864773672945343
tp1978
(Vkryzyswieku.blogspot.com
p1979
F0.0005957158940029584
tp1980
(Vemcarroll.com
p1981
F0.00044374567252334447
tp1982
(Vthreepanelsoul.com
p1983
F0.00041635285333750666
tp1984
(Vlimbero.org
p1985
F0.00012929973880895435
tp1986
(Vsmbc-comics.com
p1987
F5.923018782407604e-05
tp1988
tp1989
s((S'alpha22.com'
p1990
tp1991
(ttp1992
(ts((S'outlook.com'
p1993
tp1994
(ttp1995
((Vlogin.microsoftonline.com
p1996
F0.00902777041728998
tp1997
(Vmail.office365.com
p1998
F0.00900370815166812
tp1999
(Vlogin.wustl.edu
p2000
F0.004622911009971631
tp2001
(Vprodigy.msn.com
p2002
F0.004168393992927994
tp2003
(Vemail.osu.edu
p2004
F0.003624289186949393
tp2005
(Vt.prodigy.msn.com
p2006
F0.0034305096718851465
tp2007
(Vmy.jh.edu
p2008
F0.003292860959952708
tp2009
(Vqmail.qub.ac.uk
p2010
F0.0021183407644583385
tp2011
(Vmicrosoft.com
p2012
F0.001990757893535988
tp2013
(Vemail.uiowa.edu
p2014
F0.0015376630396296204
tp2015
(Vdur.ac.uk
p2016
F0.0014129783795088712
tp2017
(Vheelmail.unc.edu
p2018
F0.0013699234102888742
tp2019
tp2020
s((S'blogspot.com'
p2021
tp2022
(ttp2023
((Vassemblagemagazine.blogspot.co.uk
p2024
F0.006541988631317168
tp2025
(Vm5newsroom.blogspot.com
p2026
F0.004036872954197155
tp2027
(Vynotdownload.blogspot.fr
p2028
F0.0022117442599623263
tp2029
(Vmthplay.blogspot.com
p2030
F0.0020413221935465056
tp2031
(Vhamidrezashaabani.blogspot.com
p2032
F0.0019204729711661645
tp2033
(Vaufannada.blogspot.com
p2034
F0.0017903645833333333
tp2035
(Vbpi.fr
p2036
F0.0017869947498546654
tp2037
(Vesmor.blogspots.com
p2038
F0.00178335979137614
tp2039
(Vnasirabdulsattar.blogspot.com
p2040
F0.0015214354157980588
tp2041
(Vblogdauyeu.blogspot.com
p2042
F0.0015159288469955333
tp2043
(Vnetnam.vn
p2044
F0.0015090202188512115
tp2045
(Vncngame.blogspot.com
p2046
F0.0015063179670179727
tp2047
(Vm88vn.com
p2048
F0.001409084418436105
tp2049
(Vmncshop.co.id
p2050
F0.001362530038324371
tp2051
(Vmywardrobesl.blogspot.com
p2052
F0.0011306262301520825
tp2053
(Vshishology.blogspot.com
p2054
F0.0010837903091795939
tp2055
(Vkaka1951989.blogspot.com
p2056
F0.0010813764505062807
tp2057
(Vblogspots.com
p2058
F0.0010752472369247685
tp2059
(Vapp-vn.blogspot.com
p2060
F0.0010721612178382198
tp2061
(Vchoukngok.blogspot.com
p2062
F0.0010719783990852125
tp2063
tp2064
s((S'python-requests.org'
p2065
tp2066
(ttp2067
((Vzhidaow.com
p2068
F0.009551755746611724
tp2069
(Vfreepythontips.wordpress.com
p2070
F0.006459608747061535
tp2071
(Vcrsmithdev.com
p2072
F0.003916645744413759
tp2073
(Vpythonforbeginners.com
p2074
F0.00257766774217122
tp2075
(Vdjrill.readthedocs.org
p2076
F0.002012919776840218
tp2077
(Vpypi.python.org
p2078
F0.0017488807041015017
tp2079
(Vsqlserverradio.co.il
p2080
F0.0015344216654011643
tp2081
(Vlftp.yar.ru
p2082
F0.0014730447987851177
tp2083
(Vcommunity.idolondemand.com
p2084
F0.0014134444923578169
tp2085
(Vlupaworld.com
p2086
F0.0012363183378873667
tp2087
(Vapi-help.campaigncommander.com
p2088
F0.0012157320254775146
tp2089
(Vcms.int.avast.com
p2090
F0.00106509819085949
tp2091
(V101skidka.slack.com
p2092
F0.001045992198313829
tp2093
(Vmy.itron.com
p2094
F0.0009469974323677864
tp2095
(Vgitlab.labs.nic.cz
p2096
F0.000788003055522052
tp2097
(Vcoupadev.atlassian.net
p2098
F0.0007800650703031773
tp2099
(Vctf.sobug.com
p2100
F0.0007446869450650168
tp2101
(Vpydoc.net
p2102
F0.0007438618658704967
tp2103
(Vcrummy.com
p2104
F0.0005123460621771358
tp2105
(Vhazel01.dot8.va.us.attask.com
p2106
F0.0004937072558779491
tp2107
tp2108
s((S'lifehacker.com'
p2109
tp2110
(ttp2111
(ts((S'similarweb.com'
p2112
tp2113
(ttp2114
(ts((S'beta1.com'
p2115
tp2116
(ttp2117
(ts((S'bankrate.com'
p2118
tp2119
(ttp2120
((Vmortgagecalculator.org
p2121
F0.003674986761427938
tp2122
(Vbanrate.com
p2123
F0.0024237581029067125
tp2124
(Voptimalblue.com
p2125
F0.0014267289259495735
tp2126
(Vquickenloans.com
p2127
F0.0012738188802054122
tp2128
(Vw3.kubotalink.com
p2129
F0.001263829190928985
tp2130
(Vhsh.com
p2131
F0.0012327096241926128
tp2132
(Vfreddiemac.com
p2133
F0.0011495189740705278
tp2134
(Vmortgagenewsdaily.com
p2135
F0.00083906765896721
tp2136
(Vdealerdaily.toyota.com
p2137
F0.000807919706891282
tp2138
(Vbakrate.com
p2139
F0.000734880820206442
tp2140
(Vjobs.alpineaccess.com
p2141
F0.0006636771653698376
tp2142
(Vuiccu.mortgagewebcenter.com
p2143
F0.0005437095103291574
tp2144
(Vlendingtree.com
p2145
F0.0005310374295979765
tp2146
(Vcreditcards.com
p2147
F0.0005299372151525152
tp2148
(Vfranklinfirstfinancial.com
p2149
F0.0005052295897674785
tp2150
(Vfreemoneyfinance.com
p2151
F0.0004901845049979707
tp2152
(Vfoundationsu.com
p2153
F0.0004821683800864459
tp2154
(Vtrc.taboola.com
p2155
F0.00047723627944017615
tp2156
(Vcrm.studentloanhelp.info
p2157
F0.0004618004691505321
tp2158
(Vnerdwallet.com
p2159
F0.00043990024211160443
tp2160
tp2161
s((S'labnol.org'
p2162
tp2163
(ttp2164
((Vdictation.io
p2165
F0.053638048227418224
tp2166
(Vshoutmeloud.com
p2167
F0.006330967493765026
tp2168
(Vchandigarh.craigslist.co.in
p2169
F0.005956020018352308
tp2170
(Vctrlq.org
p2171
F0.003126295253718603
tp2172
(Vsoftwarerecs.stackexchange.com
p2173
F0.0024987468507650713
tp2174
(Vwarriorbreak.com
p2175
F0.0018003759225045986
tp2176
(Vdavidwalsh.name
p2177
F0.0017453391136774254
tp2178
(Vchillingeffects.org
p2179
F0.0010805928441890496
tp2180
(Vbocktherobber.com
p2181
F0.0010176242920439393
tp2182
(Vdeadurl.com
p2183
F0.0009012318677442234
tp2184
(Vcrack-net.com
p2185
F0.0008675788308667134
tp2186
(Vacessotop.semanatopenem.com
p2187
F0.0008457425669831452
tp2188
(Vplaytool.com
p2189
F0.000833971133323157
tp2190
(Vblog.teamtreehouse.com
p2191
F0.0007845697379048289
tp2192
(Vscript.google.com
p2193
F0.000775616447790688
tp2194
(Vcurso.aspasl.com
p2195
F0.0007295140509111274
tp2196
(Vmuro.sk
p2197
F0.0007203143020910928
tp2198
(Vdigitalhubinc.com
p2199
F0.0006249173569437375
tp2200
(Vmeteoalarm.eu
p2201
F0.0006155205087474934
tp2202
(Vbazqux.com
p2203
F0.0006142111911626334
tp2204
tp2205
s((S'microsoft.com'
p2206
tp2207
(ttp2208
((Vaccount.live.com
p2209
F0.03392699089457
tp2210
(Vsupport.skype.com
p2211
F0.0035348837961288793
tp2212
(Vsupport.google.com
p2213
F0.0034552858349033064
tp2214
(Vaz307127.vo.msecnd.net
p2215
F0.0022238317607300075
tp2216
(Vbing.com
p2217
F0.0021814967174457966
tp2218
(Vinsider.windows.com
p2219
F0.0020978542030613587
tp2220
(Vsupport.mozilla.org
p2221
F0.0014405952463219156
tp2222
(Vshell.windows.com
p2223
F0.0009299673249284091
tp2224
(Vwunderlist.com
p2225
F0.000919005584821735
tp2226
(Vsupport.office.com
p2227
F0.0008910745265042753
tp2228
(Vmozilla.org
p2229
F0.0008072399269828862
tp2230
(Voffice.com
p2231
F0.0007969000993079764
tp2232
(Vportal.office.com
p2233
F0.0005823095407318863
tp2234
(Vjava.com
p2235
F0.0005101489984820142
tp2236
(Vmystartsearch.com
p2237
F0.0004853991371988819
tp2238
(Vmicrosoftstore.com
p2239
F0.0004429218660199628
tp2240
(Viegallery.com
p2241
F0.00043285860820947095
tp2242
tp2243
s((S'sitepoint.com'
p2244
tp2245
(ttp2246
((Vlearnable.com
p2247
F0.003775512545387916
tp2248
(Vtutsplus.com
p2249
F0.0018674564890191878
tp2250
(Vjquery4u.com
p2251
F0.0015746334577439493
tp2252
(Vsmashingmagazine.com
p2253
F0.0015285013069617425
tp2254
(Vphpdeveloper.org
p2255
F0.0009926448925364107
tp2256
(Vaskleo.com
p2257
F0.0007617632740019425
tp2258
(Vrockettheme.com
p2259
F0.0006841783339726206
tp2260
(Vohio.edu
p2261
F0.0006826065234712008
tp2262
(Vbaymard.com
p2263
F0.0005839645071941564
tp2264
(Vwfvrj.petrobras.com.br
p2265
F0.000577655622686037
tp2266
(Vflukeout.github.io
p2267
F0.0005158523372684569
tp2268
(Vcodeguide.hu
p2269
F0.0005057804575627206
tp2270
(Vdocs.angularjs.org
p2271
F0.0005039753917788309
tp2272
(Vrubyflow.com
p2273
F0.00047607335651278954
tp2274
(Vsocial.tesisquare.com
p2275
F0.0004735965093608097
tp2276
(Vmobility.synovus.com
p2277
F0.00046856522119488223
tp2278
(Vorder.sitepointmedia.com
p2279
F0.0004548368673123083
tp2280
(Vmanagewp.org
p2281
F0.00035966640079505813
tp2282
(Vapp.emailmeform.com
p2283
F0.0002865970293783667
tp2284
(Vhealthclubsystems.com
p2285
F0.0002705686531720551
tp2286
tp2287
s((S'history.com'
p2288
tp2289
(ttp2290
((Vaetv.com
p2291
F0.00798236133012671
tp2292
(Vthisdayinrock.com
p2293
F0.0037971496161920237
tp2294
(Vhistorynet.com
p2295
F0.0030760712668171076
tp2296
(Vdiscovery.com
p2297
F0.0021861770845481867
tp2298
(Von-this-day.com
p2299
F0.001472630734754977
tp2300
(Vtravelchannel.com
p2301
F0.001415992886466294
tp2302
(Vbiography.com
p2303
F0.0013597998334544566
tp2304
(Vunileverpc.com
p2305
F0.0012406136238727436
tp2306
(Voptimum.net
p2307
F0.0010563923348507547
tp2308
(Vdailyupliftingquotes.com
p2309
F0.000970086295744522
tp2310
(Vtodayinliterature.com
p2311
F0.0007611890843539773
tp2312
(Vmylifetime.com
p2313
F0.0007440318299485829
tp2314
(Vactivate.fox.com
p2315
F0.000740355482017051
tp2316
(Vwatchtveverywhere.com
p2317
F0.0007079766794187768
tp2318
(Vhistoryorb.com
p2319
F0.0006006680921527825
tp2320
(Vnationaldaycalendar.com
p2321
F0.0005802684968778012
tp2322
(Vushistory.org
p2323
F0.000472393245433172
tp2324
(Vmail.colton.k12.ca.us
p2325
F0.00046702853469422615
tp2326
(Vmyhatchets.haikulearning.com
p2327
F0.00035607368402211693
tp2328
tp2329
s((S'collegehumor.com'
p2330
tp2331
(ttp2332
((Vdorkly.com
p2333
F0.008021933011457285
tp2334
(Vepicfail.com
p2335
F0.0012799687830245953
tp2336
(Vcracked.com
p2337
F0.0010912017310832412
tp2338
(Vwebmail.iac.com
p2339
F0.0010835730286289731
tp2340
(Vfunnyordie.com
p2341
F0.0008083489140107018
tp2342
(Vbitboard.com
p2343
F0.0007468065544100305
tp2344
(Vjakeandamir.com
p2345
F0.000684379580816286
tp2346
(Vsmosh.com
p2347
F0.0005418167439286141
tp2348
(Votaku-streamers.com
p2349
F0.0004226580805814449
tp2350
(Vescapistmagazine.com
p2351
F0.00037066058045890797
tp2352
(Vkillsometime.com
p2353
F0.0003187066730836541
tp2354
(Vexplosm.net
p2355
F0.00020320890175623739
tp2356
(Vslowrobot.com
p2357
F0.00019192407440080052
tp2358
(Vbreak.com
p2359
F0.00014199769895208476
tp2360
(Vcockenblog.tumblr.com
p2361
F0.00013743128785720813
tp2362
tp2363
s((S'alpha33.com'
p2364
tp2365
(ttp2366
(ts((S'andismith.com'
p2367
tp2368
(ttp2369
(ts((S'alpha20.com'
p2370
tp2371
(ttp2372
(ts((S'jasonseifer.com'
p2373
tp2374
(ttp2375
((Vauto.pubtest.internal.33across.com
p2376
F0.01332036660478001
tp2377
(Vjuanpabloprado.com
p2378
F0.007676274719129683
tp2379
(Vpichost.me
p2380
F0.00024074733939569222
tp2381
(Vteamtreehouse.com
p2382
F0.00023630208318629474
tp2383
(Vmartinfowler.com
p2384
F8.655217132744378e-05
tp2385
(Vraindrop.io
p2386
F2.303324849420138e-05
tp2387
(Vdigitalocean.com
p2388
F5.704592440587661e-06
tp2389
(Vencrypted.google.com
p2390
F2.6578255453102915e-06
tp2391
(Vpivotaltracker.com
p2392
F8.601690807198737e-07
tp2393
(Vstackoverflow.com
p2394
F7.90829840897358e-07
tp2395
(Vb.hatena.ne.jp
p2396
F3.9690572298361973e-07
tp2397
(Vgithub.com
p2398
F8.47725944524667e-08
tp2399
tp2400
s((S'facebook.com'
p2401
tp2402
(ttp2403
(ts((S'optimalblue.com'
p2404
tp2405
(ttp2406
((Vcitrix.primelending.com
p2407
F0.01983806998658364
tp2408
(Vmyhome.ephmc.com
p2409
F0.016720531392230547
tp2410
(Vfidelitypassport.com
p2411
F0.01087249587963097
tp2412
(Vfwprodweb1.firstam.com
p2413
F0.008999345804891831
tp2414
(Vmbshighway.com
p2415
F0.006312007531425715
tp2416
(Vapp.mbslive.net
p2417
F0.006148799715304694
tp2418
(Vloanbright.com
p2419
F0.005486635184313487
tp2420
(Vcertmail.com
p2421
F0.004539485775908838
tp2422
(Vadmin.icanbuy.com
p2423
F0.004302288065316919
tp2424
(Vawh1-standard-v1.loankatalyst3.net
p2425
F0.004188018819862747
tp2426
(Vadvertiser.bankrate.com
p2427
F0.0039302373731837726
tp2428
(Vvalutrust.com
p2429
F0.003728968651207271
tp2430
(Vbayeq.sharepoint.com
p2431
F0.0033966070386933695
tp2432
(Vbestrateusa.com
p2433
F0.002661144791224875
tp2434
(Vmlive.benchmarklogin.com
p2435
F0.002634990218954017
tp2436
(Vadmin.mortgagedashboard.com
p2437
F0.002564102564102564
tp2438
(Vmandalaybay.com
p2439
F0.002411923893121066
tp2440
(Vlm.velocify.com
p2441
F0.0022535245289155587
tp2442
(Vsharepoint.alpinemc.com
p2443
F0.001958819698411903
tp2444
(Vgwrs.com
p2445
F0.001636530069401655
tp2446
tp2447
s((S'voormedia.com'
p2448
tp2449
(ttp2450
(ts((S'rubygems.org'
p2451
tp2452
(ttp2453
((Vruby-toolbox.com
p2454
F0.01206055779836604
tp2455
(Vpages.github.com
p2456
F0.004997034254860121
tp2457
(Vrubyonrails.org
p2458
F0.00481526387462105
tp2459
(Vdevelopers.openshift.com
p2460
F0.0023178570882459487
tp2461
(Vbundler.io
p2462
F0.0017670028284599824
tp2463
(Vinstallationpage.com
p2464
F0.0016151346055828053
tp2465
(Vomniref.com
p2466
F0.0015108649549913557
tp2467
(Vgemcutter.org
p2468
F0.0014802196734265347
tp2469
(Vmiddlemanapp.com
p2470
F0.0012486029365913092
tp2471
(Vpooreffort.com
p2472
F0.0009912181331515474
tp2473
(V55f84d03.ngrok.com
p2474
F0.000945100112700561
tp2475
(Vrubygems.globoi.com
p2476
F0.0008163334867154081
tp2477
(Vrailstutorial.org
p2478
F0.0007530830774446386
tp2479
(Vrollbar.com
p2480
F0.0007483487605642157
tp2481
(Vpaularmstrong.github.io
p2482
F0.000741369433165859
tp2483
(Vweblog.rubyonrails.org
p2484
F0.0007152577482385617
tp2485
(Vapp.zencoder.com
p2486
F0.0006750962082566099
tp2487
(Vrubydoc.info
p2488
F0.0006634105078797862
tp2489
(Vrelishapp.com
p2490
F0.0005654509471303364
tp2491
(Vruby-china.org
p2492
F0.000540025247740669
tp2493
tp2494
s((S'google.co.uk'
p2495
tp2496
(ttp2497
((Vbbc.co.uk
p2498
F0.015803661828799845
tp2499
(Vuk.search.yahoo.com
p2500
F0.015624271888821255
tp2501
(Vamazon.co.uk
p2502
F0.009254315963283003
tp2503
(Vebay.co.uk
p2504
F0.008528257560579584
tp2505
(Ven.wikipedia.org
p2506
F0.004255091317020974
tp2507
(Vreddit.com
p2508
F0.003980648583379911
tp2509
(Vdailymail.co.uk
p2510
F0.0038733698459187693
tp2511
(Vsearch.safefinder.com
p2512
F0.0028345322202820732
tp2513
(Vyoutube.com
p2514
F0.00276943281382409
tp2515
(Vtwitter.com
p2516
F0.002499320864991151
tp2517
(Vuk.msn.com
p2518
F0.0014519535531925948
tp2519
(Vaccounts.youtube.com
p2520
F0.0014106376960693401
tp2521
(Vtheguardian.com
p2522
F0.0012393448640209122
tp2523
(Vcr2.gogorithm.com
p2524
F0.001229652212371702
tp2525
tp2526
s((S'padolsey.com'
p2527
tp2528
(ttp2529
((Vpapagoarchery.com
p2530
F0.010473375849017473
tp2531
(Vvintagephotoboothnyc.com
p2532
F0.00996644957568581
tp2533
(Vwebmail.digitalgear.com
p2534
F0.007198731312699346
tp2535
(Vgod.richard.dev.xen.lan.expert-shops.com
p2536
F0.005221312448083541
tp2537
(Vfoaas.com
p2538
F0.005002293011606166
tp2539
(Vcnfeat.com
p2540
F0.00401750239583653
tp2541
(Vwifi.weixin.qq.com
p2542
F0.003792761744407321
tp2543
(Vfrontend.richard.dev.xen.lan.expert-shops.com
p2544
F0.0036325652028917203
tp2545
(Vjira.foryouandyourteam.com
p2546
F0.003233026610295946
tp2547
(Vicescrum.i-dalgo2.com
p2548
F0.003064895530648955
tp2549
(Vabgmanagementlimited.quickbase.com
p2550
F0.002340158796489762
tp2551
(Vsave-dep-mukku.blogspot.jp
p2552
F0.0023262142399424154
tp2553
(Vzero11.com.br
p2554
F0.0023032042085126734
tp2555
(Vwiki.s00.jp
p2556
F0.002212426322029087
tp2557
(Vozekisms.com
p2558
F0.0018377987713592483
tp2559
(Vzhangxinxu.com
p2560
F0.0016898954023123237
tp2561
(Vcvmlrobotics.blogspot.com
p2562
F0.0016786257882148291
tp2563
(Vredwoods.com
p2564
F0.0016160499719493919
tp2565
(Vrandomsnippets.com
p2566
F0.0013289677088390124
tp2567
(Vejohn.org
p2568
F0.0012231300524343327
tp2569
tp2570
s((S'reddit.com'
p2571
tp2572
(ttp2573
(ts((S'apidoc.com'
p2574
tp2575
(ttp2576
((Vapi.doc.com
p2577
F0.1111111111111111
tp2578
(Vapi.gehealthcare.com
p2579
F0.009782125389061804
tp2580
(Vapidock.com
p2581
F3.2379614904614277e-05
tp2582
tp2583
s((S'alpha39.com'
p2584
tp2585
(ttp2586
(ts((S'tumblr.com'
p2587
tp2588
(ttp2589
((Vtwitter.com
p2590
F0.006112085907840489
tp2591
(Vinstagram.com
p2592
F0.004753110717257154
tp2593
(Vdeviantart.com
p2594
F0.003922446936560615
tp2595
(Vask.fm
p2596
F0.003470243156408712
tp2597
(Vpinterest.com
p2598
F0.002934967373398064
tp2599
(Varchiveofourown.org
p2600
F0.0028338961221619067
tp2601
(Vreddit.com
p2602
F0.002459523813375636
tp2603
(Vbuzzfeed.com
p2604
F0.0020751790462780494
tp2605
(Vboards.4chan.org
p2606
F0.0014313565391646883
tp2607
(Vnetflix.com
p2608
F0.001311766682809538
tp2609
(Vminecraft.net
p2610
F0.0010887049928781042
tp2611
(Vfanfiction.net
p2612
F0.0007048296964225392
tp2613
tp2614
s((S'beta4.com'
p2615
tp2616
(ttp2617
(ts((S'commonplacebooks.com'
p2618
tp2619
(ttp2620
((Vkramererik.deviantart.com
p2621
F0.015912611627483142
tp2622
(Vnightvale.libsyn.com
p2623
F0.004891842165512066
tp2624
(Vsickassbonedragon.tumblr.com
p2625
F0.004180983198229754
tp2626
(Vodpod.se
p2627
F0.003780363823003958
tp2628
(Vcommonplacebook.com
p2629
F0.002837868418316484
tp2630
(Vdisparition.info
p2631
F0.002731468399736272
tp2632
(Vsweetsweetlisteners.tumblr.com
p2633
F0.0027084135934344316
tp2634
(Vdiamond-wireless.com
p2635
F0.002443815934311913
tp2636
(Votterondeck.tumblr.com
p2637
F0.002334534271636531
tp2638
(Vtoplist.xyz
p2639
F0.0016374744497521202
tp2640
(Vhenrico.edmodo.com
p2641
F0.0014302764872409473
tp2642
(Vchinesedragons.sitedrop.com
p2643
F0.0014083237567317876
tp2644
(Vsteveandtony.co.vu
p2645
F0.0013530789544898894
tp2646
(Vjoinebookdownload.org
p2647
F0.001352967599131936
tp2648
(Vlib.westcler.org
p2649
F0.0012731587578044632
tp2650
(Vinnsmouthfreepress.com
p2651
F0.0012646249514863704
tp2652
(Vhun7ersgrove.blogspot.jp
p2653
F0.0010866510538641687
tp2654
(Vpodbay.fm
p2655
F0.0009363738590677165
tp2656
(Vdedicatedquill.blogspot.hu
p2657
F0.0009038352374496415
tp2658
(Vpaperalligator.com
p2659
F0.0008161978166708405
tp2660
tp2661
s((S'technion.ac.il'
p2662
tp2663
(ttp2664
(ts((S'alpha15.com'
p2665
tp2666
(ttp2667
((Vmail.midco.net
p2668
F9.645216776247045e-05
tp2669
(Vinvest.ameritrade.com
p2670
F2.2621790287289574e-05
tp2671
(Vnews.newsmax.com
p2672
F9.012522674943768e-06
tp2673
(Vgoogle.com
p2674
F2.344631383637394e-09
tp2675
tp2676
s((S'github.io'
p2677
tp2678
(ttp2679
((Vlukecarbis.github.io
p2680
F0.019639527656929768
tp2681
(Vbuke.github.io
p2682
F0.013217398454201612
tp2683
(Vbriangordon.github.io
p2684
F0.009287699283311393
tp2685
(Vgpeyre.github.io
p2686
F0.008611401092566274
tp2687
(V6889692.github.io
p2688
F0.008225091134009764
tp2689
(Vmattsharpe.github.io
p2690
F0.00815808798985246
tp2691
(Vkalakuh.github.io
p2692
F0.007584589614740369
tp2693
(Vstevejwikeley.github.io
p2694
F0.00743578488101414
tp2695
(Vgovlab.github.io
p2696
F0.005946039187036417
tp2697
(Vlopezrj.github.io
p2698
F0.005642699636979904
tp2699
(Vrweather.github.io
p2700
F0.005466472303206997
tp2701
(Vharrydeluxe.github.io
p2702
F0.005292730375055698
tp2703
(Vfavoorr.github.io
p2704
F0.004616774648508087
tp2705
(Vthink2011.github.io
p2706
F0.004302731567056891
tp2707
(Vlxc-webpanel.github.io
p2708
F0.00421468554494567
tp2709
(Viamtrask.github.io
p2710
F0.003928938799817474
tp2711
(Vgit.github.io
p2712
F0.0037792006892635455
tp2713
(Vjakiestfu.github.io
p2714
F0.0036454348083036284
tp2715
(Vigorescobar.github.io
p2716
F0.0036386593204775024
tp2717
(Vwxfengyun.github.io
p2718
F0.0036010132128431577
tp2719
tp2720
s((S'alpha.com'
p2721
tp2722
(ttp2723
((Vflashmusictracks.com
p2724
F0.03084234066343645
tp2725
(Vveexinc.com
p2726
F0.02566152206439976
tp2727
(Valphayouthfilmseries.com
p2728
F0.01272843204485028
tp2729
(Valphagame.com
p2730
F0.012381591705825314
tp2731
(Vbedsdirect-ardmore.com
p2732
F0.007470136665633929
tp2733
(Vkk-alpha.com
p2734
F0.007401414359343161
tp2735
(Valphagroup.com
p2736
F0.007136390264685519
tp2737
(Vwearealpha.ca
p2738
F0.005797101449275362
tp2739
(Valfa.com
p2740
F0.004664162782205082
tp2741
(Vteluguweb.in
p2742
F0.003982892274792836
tp2743
(Vnoram-eng.com
p2744
F0.00393360081818897
tp2745
(Veshre.eu
p2746
F0.0037174721189591076
tp2747
(Vnewsumontheweb.org
p2748
F0.0036302495318888766
tp2749
(Vcheck-alpha.com
p2750
F0.0031749589122964292
tp2751
(Valfa-chemistry.com
p2752
F0.002835487213043241
tp2753
(Vsolarpowerrocks.com
p2754
F0.002806772470347807
tp2755
(Vkerryexpress.com
p2756
F0.0027217594622241706
tp2757
(Vlkp.com
p2758
F0.002395657870110425
tp2759
(Vcroline.com
p2760
F0.0017521257407884566
tp2761
(Vaksci.com
p2762
F0.0016539834760689266
tp2763
tp2764
s((S'scirra.com'
p2765
tp2766
(ttp2767
((Vc2community.ru
p2768
F0.007406235634299808
tp2769
(Vforums.tigsource.com
p2770
F0.006516674763500749
tp2771
(Vschwer-muta.blogspot.com
p2772
F0.0023252657005772242
tp2773
(Vwayofthepixel.net
p2774
F0.001771588111111012
tp2775
(Vblog.rubukkit.org
p2776
F0.001722506455389649
tp2777
(Vgamedev.ru
p2778
F0.00155671710308373
tp2779
(Velm-lang.org
p2780
F0.001454633678371806
tp2781
(Vkaamelott.co
p2782
F0.0014379499425883405
tp2783
(Vapp.mopub.com
p2784
F0.0013974901440273661
tp2785
(Vgame.9128.com
p2786
F0.001325856745272391
tp2787
(Vbases-hacking.org
p2788
F0.0012120643217503788
tp2789
(Va710594.byethost24.com
p2790
F0.0011639507815098104
tp2791
(Vyoyogames.com
p2792
F0.0010952749740584789
tp2793
(Vforums.wasabistudio.ca
p2794
F0.0010359152424912791
tp2795
(Velbitcoin.org
p2796
F0.0010213289204327799
tp2797
(Vstencyl.com
p2798
F0.0009509958272804534
tp2799
(Vfilmin.es
p2800
F0.000825167958358985
tp2801
(Vwowgame.jp
p2802
F0.0007702468672979726
tp2803
(Vcollaboration.swisscom.com
p2804
F0.0007476651600406859
tp2805
(Vfpl78.free.fr
p2806
F0.000719450980093071
tp2807
tp2808
s((S'chromium.org'
p2809
tp2810
(ttp2811
((Vdeveloper.chrome.com
p2812
F0.022100752027343448
tp2813
(Vjohnlewis.ie
p2814
F0.008052545533720222
tp2815
(Vimperialviolet.org
p2816
F0.004177426369874129
tp2817
(Vdownload-chromium.appspot.com
p2818
F0.004009500944262519
tp2819
(Vscotthelme.co.uk
p2820
F0.003532999099854658
tp2821
(Vcode.google.com
p2822
F0.002697460919000486
tp2823
(Vchromium.googlesource.com
p2824
F0.0020873460363834335
tp2825
(Vproductforums.google.com
p2826
F0.001335644399033382
tp2827
(Vwiki.archlinux.org
p2828
F0.0012934590063155952
tp2829
(Vkb.sitecore.net
p2830
F0.001156154586531049
tp2831
(Vblogmicrosoftbrasil.com.br
p2832
F0.0010548510155260927
tp2833
(Vexample.com
p2834
F0.0003803379258623619
tp2835
(Vdownloads.yahoo.com
p2836
F0.00034267692060830046
tp2837
(Vjava.com
p2838
F0.00031751464182818584
tp2839
(Vminutoms.com.br
p2840
F0.00029505951595761227
tp2841
(Vmattcutts.com
p2842
F0.0002391419420138638
tp2843
(Vgigaom.com
p2844
F0.00023660680057301445
tp2845
(Vcorom.vn
p2846
F0.00023047213023705282
tp2847
(Vvpnhelp.homeawaycorp.com
p2848
F0.0002284515048063452
tp2849
tp2850
s((S'spacerogue.net'
p2851
tp2852
(ttp2853
((Vhackernews.net
p2854
F0.024155455904334825
tp2855
(Vinfosyssec.com
p2856
F0.004150334332487894
tp2857
(Vhackernews.com
p2858
F0.0014944332361951729
tp2859
(Vcryptome.org
p2860
F0.00023388730759197143
tp2861
(Vthehackernews.com
p2862
F0.000122848694061342
tp2863
(Vveooz.com
p2864
F9.796456354560474e-05
tp2865
(Vfilterbypass.me
p2866
F7.876594125299797e-05
tp2867
(Vfiles.t-square.gatech.edu
p2868
F3.667372426806653e-05
tp2869
(Vassembla.com
p2870
F5.356854781678878e-06
tp2871
(Vtechcrunch.com
p2872
F2.394271525133206e-06
tp2873
(Vt.co
p2874
F4.0062931302635475e-07
tp2875
(Vstackoverflow.com
p2876
F3.5988874690424153e-07
tp2877
(Vnews.ycombinator.com
p2878
F3.0522565362431473e-07
tp2879
(Veksisozluk.com
p2880
F2.9312384389517315e-07
tp2881
(Vduckduckgo.com
p2882
F2.4303376673617145e-07
tp2883
(Vmashable.com
p2884
F2.337746074512313e-07
tp2885
(Vsnt146.mail.live.com
p2886
F9.130484595356827e-08
tp2887
(Vgoogle.com
p2888
F4.3152848834315e-08
tp2889
(Vgoogle.ca
p2890
F8.15280842751372e-09
tp2891
(Vfacebook.com
p2892
F4.5654615426760247e-10
tp2893
tp2894
s((S'alpha28.com'
p2895
tp2896
(ttp2897
(ts((S'beta10.com'
p2898
tp2899
(ttp2900
(ts((S'oranlooney.com'
p2901
tp2902
(ttp2903
((Vnpmjs.org
p2904
F9.37878187396508e-06
tp2905
(Vsearch.disconnect.me
p2906
F2.222519934059104e-06
tp2907
(Vgithub.com
p2908
F1.2404606312831473e-07
tp2909
(Vgoogle.com.ua
p2910
F1.1512227389007056e-07
tp2911
(Vbing.com
p2912
F4.6492935284599696e-08
tp2913
tp2914
s((S'testy.com'
p2915
tp2916
(ttp2917
((Vgoogle.com
p2918
F5.7582840045330454e-09
tp2919
(Vfacebook.com
p2920
F4.906167885604807e-10
tp2921
tp2922
s((S'ebay.com'
p2923
tp2924
(ttp2925
((Vamazon.com
p2926
F0.010715418955713561
tp2927
(Vpaypal.com
p2928
F0.004491756406860376
tp2929
(Vetsy.com
p2930
F0.003662715716951191
tp2931
(Vslickdeals.net
p2932
F0.003069012319460808
tp2933
(Valiexpress.com
p2934
F0.0028328755606823754
tp2935
(Vus-mg6.mail.yahoo.com
p2936
F0.0019084091674699396
tp2937
(Vwalmart.com
p2938
F0.0017906265490819154
tp2939
(Ve.mail.ru
p2940
F0.0016764064461063679
tp2941
(Vgoogle.com
p2942
F0.0010756325212520402
tp2943
(Vautobia.com
p2944
F0.0008751469412171619
tp2945
(Vbestbuy.com
p2946
F0.0006417003644546833
tp2947
(Vnewegg.com
p2948
F0.0005644308027097123
tp2949
(Vmail.aol.com
p2950
F0.0004919381996496611
tp2951
tp2952
s((S'sixrevisions.com'
p2953
tp2954
(ttp2955
((Vforum.hangarnet.com.br
p2956
F0.004522612841241663
tp2957
(Viconpaper.org
p2958
F0.004388601429190374
tp2959
(Vpanosfx.com
p2960
F0.003981522100667729
tp2961
(Vliptonicetea.com
p2962
F0.0039197345769073555
tp2963
(Vtiny.cc
p2964
F0.003371601640395747
tp2965
(Vbohemian.curated.co
p2966
F0.003326202922179347
tp2967
(Vnoupe.com
p2968
F0.002781459432749324
tp2969
(Vvle-project.org
p2970
F0.002767415707556039
tp2971
(Vsixrevision.com
p2972
F0.0022085172602788606
tp2973
(Vbusiness.tutsplus.com
p2974
F0.0017757417437201713
tp2975
(Vforum.weavertheme.com
p2976
F0.0015203455783372938
tp2977
(Vtvgratishd.blogspot.com
p2978
F0.0015013110572595332
tp2979
(Vinflexwetrust.com
p2980
F0.0012838767727523452
tp2981
(Vsixminutes.dlugan.com
p2982
F0.001239579333077317
tp2983
(Vtricias-captions.tumblr.com
p2984
F0.0012110202845897668
tp2985
(Vsiteexplorer.info
p2986
F0.0010857132729947228
tp2987
(Vcommonplaces.com
p2988
F0.0010758741477450429
tp2989
(Vmongodbspain.com
p2990
F0.0010698474333738655
tp2991
(Vlanzateya.com
p2992
F0.0010386067653343092
tp2993
(Vfleischlust.com
p2994
F0.0009746657118920917
tp2995
tp2996
s((S'js2coffee.org'
p2997
tp2998
(ttp2999
((Vcoffeescript.org
p3000
F0.02403601296273028
tp3001
(Vmarkdotto.com
p3002
F0.005252514264432705
tp3003
(Vapi.jquery.com
p3004
F0.00357281252711641
tp3005
(Vtwitter.github.io
p3006
F0.0024109253293020856
tp3007
(Vfabricjs.com
p3008
F0.002098906052196327
tp3009
(Vatmospherejs.com
p3010
F0.0020051451935951983
tp3011
(Vpricemania.developer3.cz
p3012
F0.001954454153921506
tp3013
(Vinterone.de
p3014
F0.001889860252037865
tp3015
(Vbackbonejs.org
p3016
F0.0016524226073758618
tp3017
(Vshashankshetty.wordpress.com
p3018
F0.0015940524041622571
tp3019
(Vhtml2slim.herokuapp.com
p3020
F0.001486480127681469
tp3021
(Vplnkr.co
p3022
F0.001417112728794347
tp3023
(Vwebpack.github.io
p3024
F0.0013926971883895002
tp3025
(Vcoffeescriptlove.com
p3026
F0.0013925155542500076
tp3027
(Vsatellizer.herokuapp.com
p3028
F0.0013897405960784026
tp3029
(Vhtml2haml.herokuapp.com
p3030
F0.0012901440927272467
tp3031
(Vsearchdiscovery.com
p3032
F0.0012827879039783538
tp3033
(Vvisjs.org
p3034
F0.0012348514023426435
tp3035
(Vrightinbox.desk.com
p3036
F0.0011828622717916515
tp3037
(Vemberjs.jsbin.com
p3038
F0.0011601727623598602
tp3039
tp3040
s((S'spotad.co'
p3041
tp3042
(ttp3043
((Vinnolance.com
p3044
F0.002733964248159832
tp3045
(Vnewincite.com
p3046
F0.0021574973031283713
tp3047
(Vui.servesharp.net
p3048
F0.0003960637357950218
tp3049
(Vjira.millennialmedia.com
p3050
F0.00036140992389132194
tp3051
(Vmovinstream.com
p3052
F4.124136508918446e-05
tp3053
(Vhwzone.co.il
p3054
F1.7154933461951347e-05
tp3055
(Vsubtitle.co.il
p3056
F7.854194729049916e-06
tp3057
(Vlinkedin.com
p3058
F1.6123254398713075e-07
tp3059
(Vvimeo.com
p3060
F9.877902401742443e-08
tp3061
(Vgoogle.co.uk
p3062
F9.113462281788802e-08
tp3063
(Vfacebook.com
p3064
F7.059035289641063e-09
tp3065
tp3066
s((S'beta11.com'
p3067
tp3068
(ttp3069
(ts((S'alpha44.com'
p3070
tp3071
(ttp3072
(ts((S'alpha50.com'
p3073
tp3074
(ttp3075
(ts((S'batsov.com'
p3076
tp3077
(ttp3078
((Vblog.rust-lang.org
p3079
F0.0025602059117481963
tp3080
(Vskanev.com
p3081
F0.0022080608194980154
tp3082
(Vbarisyuksel.com
p3083
F0.0017846249100858622
tp3084
(Vclever-cloud.com
p3085
F0.0017729664335737266
tp3086
(Vbotnets.fr
p3087
F0.0017378253485524707
tp3088
(Vemacs.sexy
p3089
F0.0017151187719749593
tp3090
(Vohtatblog.wordpress.com
p3091
F0.0014208184846155637
tp3092
(Vthatthinginswift.com
p3093
F0.0005549820740790072
tp3094
(Vemacswiki.org
p3095
F0.000361288776960209
tp3096
(Vgamasutra.com
p3097
F7.182796042938065e-05
tp3098
(Vcreditkarma.com
p3099
F4.846935431658113e-05
tp3100
(Vde.reddit.com
p3101
F2.1918490506820317e-05
tp3102
(Vgithub.com
p3103
F9.564137939050661e-06
tp3104
(Vpluralsight.com
p3105
F7.698149584786948e-06
tp3106
(Vencrypted.google.com
p3107
F3.904554290440822e-06
tp3108
(Vstackoverflow.com
p3109
F2.7530196598198716e-06
tp3110
(Vsearch.disconnect.me
p3111
F1.452201017759609e-06
tp3112
(Vstartpage.com
p3113
F4.5705844497747614e-07
tp3114
(Vgoogle.com.br
p3115
F2.7313056986275865e-08
tp3116
tp3117
s((S'apidock.com'
p3118
tp3119
(ttp3120
((Vapi.rubyonrails.org
p3121
F0.004283722809508841
tp3122
(Vlogentries.com
p3123
F0.0031281175847644965
tp3124
(Vguides.rubyonrails.org
p3125
F0.0014298972896033487
tp3126
(Vbsonspec.org
p3127
F0.0013823136499941477
tp3128
(Vadtaily.hackpad.com
p3129
F0.0013067944421232297
tp3130
(Vadmin.revieworld.com
p3131
F0.0012428262182843334
tp3132
(Vsportngin.atlassian.net
p3133
F0.000914667802116352
tp3134
(Vrailsdoc.com
p3135
F0.0008941412847720574
tp3136
(Vgsubbarao.com
p3137
F0.0008810756888817209
tp3138
(Vruby-doc.org
p3139
F0.000875561057367794
tp3140
(Vgotealeaf.campfirenow.com
p3141
F0.0008217247009736729
tp3142
(Vruby-forum.com
p3143
F0.0007341966194683126
tp3144
(Vrequiremind.com
p3145
F0.0006038566509753178
tp3146
(V3edge.in
p3147
F0.0006037040162545684
tp3148
(Vcapterrapaulo.aws.af.cm
p3149
F0.0005021993641797336
tp3150
(Vstrftimer.com
p3151
F0.0005021070563973819
tp3152
(Vclojuredocs.org
p3153
F0.0004751783760686909
tp3154
(Vwebmail.abril.com.br
p3155
F0.00046069404857109657
tp3156
(Vnvcad.nvidia.com
p3157
F0.0004513071790077689
tp3158
(Vruby.about.com
p3159
F0.0004484059714551321
tp3160
tp3161
s((S'xing.com'
p3162
tp3163
(ttp3164
((Vstepstone.de
p3165
F0.0015170579001096234
tp3166
(Vspiegel.de
p3167
F0.0009870102205989382
tp3168
(Vsmartredirect.de
p3169
F0.0008656418910552316
tp3170
(Vkununu.com
p3171
F0.0008500644918979894
tp3172
(Vtu-harburg.academia.edu
p3173
F0.0007250172468395831
tp3174
(Vgruenderszene.de
p3175
F0.0006160545464338925
tp3176
(Vt3n.de
p3177
F0.0005494073061703604
tp3178
(Vopenbc.de
p3179
F0.0005282185824034381
tp3180
(Vbusiness-webmail.t-online.de
p3181
F0.00039136039083473073
tp3182
(Vlizaa.de
p3183
F0.00036584645585642674
tp3184
(Vespace.sbb.ch
p3185
F0.00036162796813019727
tp3186
(Vorf.at
p3187
F0.0003373444213756619
tp3188
(Vwuv.de
p3189
F0.00032833919049934745
tp3190
(Vkunde.comdirect.de
p3191
F0.0003001408379996149
tp3192
(Vde.linkedin.com
p3193
F0.00029778258826698294
tp3194
(Vexperteer.de
p3195
F0.00028717027437245716
tp3196
(Vna20.salesforce.com
p3197
F0.00027828180103067144
tp3198
(Vbbs.clutchfans.net
p3199
F0.0002183433086419262
tp3200
(Vbgl.maknesium.de
p3201
F0.00021813978836609884
tp3202
tp3203
s((S'kickstarter.com'
p3204
tp3205
(ttp3206
((Vindiegogo.com
p3207
F0.006044589196122378
tp3208
(Vboardgamegeek.com
p3209
F0.002967470579344699
tp3210
(Vkicktraq.com
p3211
F0.0016820810006756592
tp3212
(Vkck.st
p3213
F0.0012093648592350532
tp3214
(Vmassdrop.com
p3215
F0.00087235769793054
tp3216
(Vcoolstuffinc.com
p3217
F0.0006201030948794028
tp3218
(Vthunderclap.it
p3219
F0.0005545280608785909
tp3220
(Vgofundme.com
p3221
F0.0004185638677770289
tp3222
(Vwasteland2.org
p3223
F0.0003310376988044957
tp3224
(Vdudeiwantthat.com
p3225
F0.00030026142653187977
tp3226
(Vmomastore.org
p3227
F0.00019395910733544547
tp3228
(Vustart.org
p3229
F0.0001747273452737386
tp3230
(V99designs.co.uk
p3231
F0.00017261508673220832
tp3232
(Vtrictrac.net
p3233
F0.00017158398885538806
tp3234
(Vtechcrunch.com
p3235
F0.00015226764246498048
tp3236
(Vkickended.com
p3237
F0.00014808523909796067
tp3238
tp3239
s((S'banrate.com'
p3240
tp3241
(ttp3242
((Vadvertiser.bankrate.com
p3243
F0.010417933438728768
tp3244
(Vmycfe.com
p3245
F0.003697223187641567
tp3246
(Vlowermybills.com
p3247
F0.000577498241663914
tp3248
(Vsalliemae.com
p3249
F4.9130725485894754e-05
tp3250
(Vdictionary.goo.ne.jp
p3251
F3.7425394069492426e-05
tp3252
(Vally.com
p3253
F1.4405003035318033e-05
tp3254
(Vpost.craigslist.org
p3255
F1.8668535426783176e-06
tp3256
(Vwellsfargo.com
p3257
F1.5658914407910743e-06
tp3258
(Vfinance.yahoo.com
p3259
F8.480322713302284e-07
tp3260
(Vebay.com
p3261
F1.287045916505256e-07
tp3262
tp3263
s((S'verborgh.org'
p3264
tp3265
(ttp3266
(ts((S'infosecisland.com'
p3267
tp3268
(ttp3269
(ts((S'widdershinscomic.com'
p3270
tp3271
(ttp3272
((Vletsaskviolet.com
p3273
F0.023339778372803054
tp3274
(Vthe-whiteboard.com
p3275
F0.02297513496899636
tp3276
(Vineffableaether.com
p3277
F0.018733703512249688
tp3278
(Vpuckcomics.com
p3279
F0.010880843347775311
tp3280
(Valiendice.com
p3281
F0.0095586849274735
tp3282
(Vcasualvillain.com
p3283
F0.007030130604618646
tp3284
(Vmarryme.keenspot.com
p3285
F0.00618793397842423
tp3286
(Vprecociouscomic.com
p3287
F0.006100743140697935
tp3288
(Vrice-boy.com
p3289
F0.004656766063375279
tp3290
(Vthearchipelago.smackjeeves.com
p3291
F0.002923735751237376
tp3292
(Vsmbhax.com
p3293
F0.0025248584102409368
tp3294
(Vbetweenfailures.com
p3295
F0.0018146924062114364
tp3296
(Vwncomic.com
p3297
F0.0017688444965095805
tp3298
(Vthegamercat.com
p3299
F0.0015217058359325555
tp3300
(Vweregeek.com
p3301
F0.0014803237802496064
tp3302
(Vnerf-this.com
p3303
F0.0013742114952235965
tp3304
tp3305
s((S'zetalab.de'
p3306
tp3307
(ttp3308
(ts((S'dock.com'
p3309
tp3310
(ttp3311
((Vdocks.qc.ca
p3312
F0.06434729912128474
tp3313
(Vdockandslip.com
p3314
F0.06212746446584136
tp3315
(Vtessera.com
p3316
F0.005609478693919016
tp3317
(Vedu.americanvhs.com
p3318
F0.0009426078168425553
tp3319
(Vv3.mercusuar.info
p3320
F5.262204832870827e-06
tp3321
(Vsafecart.com
p3322
F1.0612495775718263e-06
tp3323
tp3324
s((S'fabiensanglard.net'
p3325
tp3326
(ttp3327
((Vnom.com
p3328
F0.016733385481372414
tp3329
(Vmeet.emulex.com
p3330
F0.009327642729015897
tp3331
(Vemulex.my.salesforce.com
p3332
F0.009142718564326422
tp3333
(Vasicweb.emulex.com
p3334
F0.007491289198606272
tp3335
(Vopenhighschoolcourses.org
p3336
F0.006642895061989392
tp3337
(Vneilblevins.com
p3338
F0.004470560344097675
tp3339
(Vlinor.fr
p3340
F0.0038202984095753404
tp3341
(Vhmsconfluence.activision.com
p3342
F0.003148796306750467
tp3343
(Vdevinsmith.net
p3344
F0.002372270790317621
tp3345
(Vhobbygamedev.com
p3346
F0.0022267112008906844
tp3347
(Vthink-like-a-git.net
p3348
F0.002052212874160923
tp3349
(Vgamedev.stackexchange.com
p3350
F0.0019690283982804094
tp3351
(Vgp32spain.com
p3352
F0.0015787369595053969
tp3353
(Vsda.se
p3354
F0.0014976407646989833
tp3355
(Vbenefitsmedical.com
p3356
F0.0014063662602922299
tp3357
(Vengineering.zenpayroll.com
p3358
F0.0013555184723144803
tp3359
(Vblog.yourkarma.com
p3360
F0.0011144507108844686
tp3361
(Vshoutem.slack.com
p3362
F0.0007275420982314113
tp3363
(Vwiki.mcselec.com
p3364
F0.0004583651642475172
tp3365
(Vopengl.org
p3366
F0.000321510536147959
tp3367
tp3368
s((S'92.195'
p3369
tp3370
(ttp3371
(ts((S'acnenomor.com'
p3372
tp3373
(ttp3374
((Vsetareasemany.persianblog.ir
p3375
F0.004590559213576927
tp3376
(Vpanelbiurou.uniterm.pl
p3377
F0.001165427076049414
tp3378
(Vgoldenraccoon.tistory.com
p3379
F0.0011206906117195389
tp3380
(Valpha-mconsole.netmarble.net
p3381
F0.0010040460071774379
tp3382
(Vbeta.ssl.webservices.travelzoo.com
p3383
F0.0007673275079081712
tp3384
(Vjpj.gov.my
p3385
F0.0006220694566398409
tp3386
(Vblog.otrs.org
p3387
F0.0005895419469622798
tp3388
(Vadblogcat.com
p3389
F0.0005817426308271652
tp3390
(Vanswerques.com
p3391
F0.0005379210312714628
tp3392
(Vxiexingwen.com
p3393
F0.000471817428617734
tp3394
(Vgoogle.co.jp
p3395
F2.9066968336392337e-08
tp3396
tp3397
s((S'alpha30.com'
p3398
tp3399
(ttp3400
(ts((S'dorkly.com'
p3401
tp3402
(ttp3403
((Vcollegehumor.com
p3404
F0.00532996727307274
tp3405
(Vdidyouknowgaming.com
p3406
F0.0021633027780272383
tp3407
(Vnetlore.ru
p3408
F0.0013772662965528448
tp3409
(Vawkwardzombie.com
p3410
F0.0011546861484157086
tp3411
(Vbrawlinthefamily.keenspot.com
p3412
F0.001025083503038372
tp3413
(Vexplosm.net
p3414
F0.0009121791532666129
tp3415
(Vdorktower.com
p3416
F0.0007780467559879749
tp3417
(Vbunicomic.com
p3418
F0.0007688771325575398
tp3419
(Vpenny-arcade.com
p3420
F0.000697397505029458
tp3421
(Vforums.tigsource.com
p3422
F0.0006230253345583321
tp3423
(Vsyacartoonist.com
p3424
F0.0005622097830873088
tp3425
(Vdangerouslychloe.com
p3426
F0.0004875689986759523
tp3427
(Vblessings.thecomicseries.com
p3428
F0.0004383328772759553
tp3429
(Vtrenchescomic.com
p3430
F0.00042936677189025536
tp3431
(Vsurvivingtheworld.net
p3432
F0.00038241257511459256
tp3433
(Vdraconicsonic.deviantart.com
p3434
F0.0002444842155108139
tp3435
tp3436
s((S'alpha19.com'
p3437
tp3438
(ttp3439
(ts((S'.hdokiejnpimakedhajhdlcegeplioahd'
p3440
tp3441
(ttp3442
(ts((S'guru99.com'
p3443
tp3444
(ttp3445
((Vtoolsqa.com
p3446
F0.005719466566131465
tp3447
(Vabap101.com
p3448
F0.003011493349875067
tp3449
(Vregistria.app.box.com
p3450
F0.0026405273456051367
tp3451
(Vhanelsoft.vn
p3452
F0.002062561850334693
tp3453
(Vassertselenium.com
p3454
F0.00195169518565124
tp3455
(Vseleniummadeeasy.blogspot.co.uk
p3456
F0.0017882739008798492
tp3457
(Vsaptraininghub.com
p3458
F0.0017882409332036706
tp3459
(Vqtpfaq.wordpress.com
p3460
F0.0017873677324844871
tp3461
(Vcodeodor.com
p3462
F0.0016453585640558656
tp3463
(Vmanage.hivelocity.net
p3464
F0.001623640201331385
tp3465
(Vsoftwaretestinggenius.com
p3466
F0.001583393157862956
tp3467
(Vcommunity.stresstimulus.com
p3468
F0.001557093159406643
tp3469
(Vtennisworlditalia.com
p3470
F0.0012915493611922993
tp3471
(Vroqit.sharepoint.com
p3472
F0.0010722141775454032
tp3473
(Vsyrinx.catsone.com
p3474
F0.0009775579010200494
tp3475
(Vculverlabs.co
p3476
F0.0009439906846807562
tp3477
(Vwebmail.trigma.co.in
p3478
F0.0008988027832973669
tp3479
(Vnewtours.demoaut.com
p3480
F0.0008537480868080438
tp3481
(Vajmadison.com
p3482
F0.0008427717137978187
tp3483
(Vin.playstation.com
p3484
F0.0008242438736899647
tp3485
tp3486
s((S'alpha23.com'
p3487
tp3488
(ttp3489
(ts((S'johnlewis.ie'
p3490
tp3491
(ttp3492
((Vcoreboot.org
p3493
F0.02854268245491835
tp3494
(Vdistroshare.com
p3495
F0.016549572788962446
tp3496
(Vwebmail.w14a.comcast.net
p3497
F0.013918136600019624
tp3498
(Vdeconetworks.com
p3499
F0.007967123011370798
tp3500
(Vjeanlouisnguyen.blogspot.ca
p3501
F0.005415745410279979
tp3502
(Vpilaresdelcodigo.wordpress.com
p3503
F0.004368068633605357
tp3504
(Vae.sjsu.edu
p3505
F0.00432630123544891
tp3506
(Vsenk9.wordpress.com
p3507
F0.0035087719298245615
tp3508
(Vreadditing.herokuapp.com
p3509
F0.0031414092774758665
tp3510
(Vanderswallin.net
p3511
F0.0027987907111832813
tp3512
(Vgeorgakopoulos.org
p3513
F0.001107007252449383
tp3514
(Vzupimages.net
p3515
F0.0010530772654731792
tp3516
(Vjoomla.quantumcs.com
p3517
F0.0007784613047770943
tp3518
(Vchromium.org
p3519
F0.0007239176971487771
tp3520
(Vciteworld.com
p3521
F0.000622003528792297
tp3522
(Vtechreport.com
p3523
F0.0003636459011841565
tp3524
(Vfunhousegames.co
p3525
F0.00029423524559166105
tp3526
(Vbuddypress.org
p3527
F0.00017586529805995192
tp3528
(Vwiki.archlinux.org
p3529
F0.00013728228690694814
tp3530
(Vtvxs.gr
p3531
F9.757876076671679e-05
tp3532
tp3533
s((S'coreboot.org'
p3534
tp3535
(ttp3536
((Vhappyassassin.net
p3537
F0.059476348436577016
tp3538
(Vgit.buildroot.net
p3539
F0.02452952891923749
tp3540
(Vflashrom.org
p3541
F0.017701817587736517
tp3542
(Vbrmlab.cz
p3543
F0.013296603505499648
tp3544
(Vtiny.wiki.kernel.org
p3545
F0.012337571525115207
tp3546
(V86duino.com
p3547
F0.010515115478500344
tp3548
(Veskolar.com
p3549
F0.009344584495521896
tp3550
(Vjohnlewis.ie
p3551
F0.006332038626695642
tp3552
(Vseabios.org
p3553
F0.00443494523109805
tp3554
(Vsavebydiy.com
p3555
F0.0036583215796897038
tp3556
(Vlists.denx.de
p3557
F0.0029219143576826195
tp3558
(Vdonate.ccf.org.tw
p3559
F0.0027590143659023876
tp3560
(Vmetacloud.jira.com
p3561
F0.002028728663370954
tp3562
(Vembeddedlinux.org.cn
p3563
F0.0018237464363575382
tp3564
(Vfsf.org
p3565
F0.0017019026720611005
tp3566
(Vdev.milaap.org
p3567
F0.0011945877468052004
tp3568
(Vwiki.archlinux.org
p3569
F0.0007416826313193679
tp3570
(Vhitech.vesti.ru
p3571
F0.00033012905439744935
tp3572
(Vmark.intel.com
p3573
F0.00029483913576752523
tp3574
(Vlinux.softpedia.com
p3575
F2.1233992224112045e-05
tp3576
tp3577
s((S'alpha42.com'
p3578
tp3579
(ttp3580
(ts((S'walla.co.il'
p3581
tp3582
(ttp3583
((Vynet.co.il
p3584
F0.020681855597970564
tp3585
(Vsport5.co.il
p3586
F0.01671716174222901
tp3587
(Vone.co.il
p3588
F0.0158659102755873
tp3589
(Vmako.co.il
p3590
F0.01332301405197086
tp3591
(Vnrg.co.il
p3592
F0.008862240216676337
tp3593
(Vgoogle.co.il
p3594
F0.007271907105170784
tp3595
(Vhaaretz.co.il
p3596
F0.005973013842627749
tp3597
(Vrotter.net
p3598
F0.005844035385500475
tp3599
(Vnana10.co.il
p3600
F0.005317331090295053
tp3601
(Vglobes.co.il
p3602
F0.004428857379564541
tp3603
tp3604
s((S'railscasts.com'
p3605
tp3606
(ttp3607
(ts((S'beta0.com'
p3608
tp3609
(ttp3610
(ts((S'beta6.com'
p3611
tp3612
(ttp3613
(ts((S'alpha8.com'
p3614
tp3615
(ttp3616
(ts((S'stakeventures.com'
p3617
tp3618
(ttp3619
(ts((S'alpha47.com'
p3620
tp3621
(ttp3622
(ts((S'usenet.org'
p3623
tp3624
(ttp3625
(ts((S'instagram.com'
p3626
tp3627
(ttp3628
((Vask.fm
p3629
F0.009839861689494809
tp3630
(Vtwitter.com
p3631
F0.00852219868530378
tp3632
(Vt.co
p3633
F0.00590372865211456
tp3634
(Vtumblr.com
p3635
F0.0028467374135406447
tp3636
(Vbuzzfeed.com
p3637
F0.0021394192027941565
tp3638
(Viconosquare.com
p3639
F0.0021111893321816588
tp3640
(Vfacebook.com
p3641
F0.00192459481539883
tp3642
(Vvk.com
p3643
F0.0017823909564906018
tp3644
(Vwebsta.me
p3645
F0.001677039473359781
tp3646
(Vpinterest.com
p3647
F0.0016538952803498866
tp3648
(Vtwitch.tv
p3649
F0.000413087885165486
tp3650
(Vsprashivai.ru
p3651
F0.00037472447172838525
tp3652
tp3653
s((S'beta2.com'
p3654
tp3655
(ttp3656
((Vlogopond.com
p3657
F8.342355902882032e-05
tp3658
tp3659
s((S'imgur.com'
p3660
tp3661
(ttp3662
((Veksisozluk.com
p3663
F0.007959158123693156
tp3664
(Vsteamcommunity.com
p3665
F0.005482409223054582
tp3666
(Vl.moapi.net
p3667
F0.0042747932543380305
tp3668
(Vptt.cc
p3669
F0.004205827649589891
tp3670
(Vreddit.com
p3671
F0.002423451953582919
tp3672
(Vus.battle.net
p3673
F0.0023017082856949867
tp3674
(Vprntscr.com
p3675
F0.002184980056042118
tp3676
(Viamchucky.github.io
p3677
F0.002029496111172061
tp3678
(Vplurk.com
p3679
F0.0012164439471213228
tp3680
(Vgamefaqs.com
p3681
F0.0011121531273015387
tp3682
(Vflashback.org
p3683
F0.0010824160224589597
tp3684
(Vtwitch.tv
p3685
F0.0008429300641815612
tp3686
(Vboards.4chan.org
p3687
F0.0008128220671250406
tp3688
tp3689
s((S'google.co.il'
p3690
tp3691
(ttp3692
((Vynet.co.il
p3693
F0.02090290556127998
tp3694
(Vwalla.co.il
p3695
F0.010178080865357519
tp3696
(Vmako.co.il
p3697
F0.009531641570181064
tp3698
(Vhe.wikipedia.org
p3699
F0.005168147982441724
tp3700
(Vone.co.il
p3701
F0.004797051193030695
tp3702
(Vsport5.co.il
p3703
F0.004629557192589989
tp3704
(Vpanet.co.il
p3705
F0.004466318634153449
tp3706
(Vyad2.co.il
p3707
F0.004239283102327047
tp3708
(Vfxp.co.il
p3709
F0.004224135214989242
tp3710
(Vil.msn.com
p3711
F0.0025525166492135123
tp3712
(Vjewishjournal.com
p3713
F0.0016738899904644618
tp3714
(Vhaaretz.co.il
p3715
F0.0011658029360413589
tp3716
tp3717
s((S'foobar2000.com'
p3718
tp3719
(ttp3720
((Vmorbo.org
p3721
F0.031915159700857905
tp3722
(Vjdk8.java.net
p3723
F0.0036444231186665292
tp3724
(Vforum.powerampapp.com
p3725
F0.0026170710255915223
tp3726
(Vdbpoweramp.com
p3727
F0.0008974646623289207
tp3728
(Vjriver.com
p3729
F0.00033570030497519226
tp3730
(Vpodsvojostreho.net
p3731
F0.00014945816684828672
tp3732
(Vteksyndicate.com
p3733
F1.1823333348362995e-05
tp3734
(Vtrojmiasto.pl
p3735
F5.731231896333478e-06
tp3736
(Vricardo.ch
p3737
F3.7479474663832534e-06
tp3738
(Vus-mg204.mail.yahoo.com
p3739
F1.5779104558357893e-06
tp3740
(Vboards.4chan.org
p3741
F1.1310967365085483e-06
tp3742
(Vnetvibes.com
p3743
F1.0671421974257503e-06
tp3744
(Vtheguardian.com
p3745
F7.685661734505484e-07
tp3746
(Varstechnica.com
p3747
F6.992041308980053e-07
tp3748
(Vsearch.yahoo.co.jp
p3749
F6.754668573135203e-07
tp3750
(Ven.eazel.com
p3751
F5.318138091329666e-07
tp3752
(Vandroidpolice.com
p3753
F3.6786215539942405e-07
tp3754
(Vkickstarter.com
p3755
F2.241460998950497e-07
tp3756
(Vgoogle.com.tw
p3757
F1.301859356429909e-07
tp3758
(Vgoogle.lv
p3759
F1.037835278431857e-07
tp3760
tp3761
s((S'alpha14.com'
p3762
tp3763
(ttp3764
((Vdofusbook.net
p3765
F0.0006337329293461555
tp3766
tp3767
s((S'happyassassin.net'
p3768
tp3769
(ttp3770
((Vmndm.gov.on.ca
p3771
F0.04298894933263563
tp3772
(Veriberto.pro.br
p3773
F0.01202062754212667
tp3774
(Vblog.hansenpartnership.com
p3775
F0.011842526405633201
tp3776
(Vcalm.aber.ac.uk
p3777
F0.011433569710412046
tp3778
(Vbugs.freedesktop.org
p3779
F0.0009542923479526986
tp3780
(Vsandboxie.com
p3781
F0.0007907844422448724
tp3782
(Vmanyland.com
p3783
F0.0007040551653256227
tp3784
(Vmarc.info
p3785
F0.0005867879121690093
tp3786
(Vforums.opensuse.org
p3787
F0.0005194968302130223
tp3788
(Veeti.com.tw
p3789
F0.0005194955121359924
tp3790
(Vimaginecup.com
p3791
F0.0003215762268482594
tp3792
(V4sysops.com
p3793
F0.00014510480483848856
tp3794
(Vanimeultima.tv
p3795
F0.0001281134603127242
tp3796
(Vthomas-krenn.com
p3797
F7.921381869224323e-05
tp3798
(Vjustinguitar.com
p3799
F6.288087035151911e-05
tp3800
(Vcomputer.howstuffworks.com
p3801
F2.4267097954854636e-05
tp3802
(Vcompileonline.com
p3803
F2.3703323624266067e-05
tp3804
(Vsevenforums.com
p3805
F2.367194472127469e-06
tp3806
(Vtechnet.microsoft.com
p3807
F2.1155661906668695e-06
tp3808
(Vaccounts.google.com
p3809
F1.3084216140549257e-07
tp3810
tp3811
s((S'hotmail.com'
p3812
tp3813
(ttp3814
((Vstartpagina.nl
p3815
F0.0033795478641330968
tp3816
(Vsignout.live.com
p3817
F0.0019536193173443693
tp3818
(Vaccount.mojang.com
p3819
F0.0011799134425937946
tp3820
(Vde.msn.com
p3821
F0.0009699166517050574
tp3822
(Vgoogle.co.ve
p3823
F0.0006409109624436532
tp3824
(Vpesquisaweb.com.br
p3825
F0.0006155523385053518
tp3826
(Vlogin.skype.com
p3827
F0.0005895501588447668
tp3828
(Vsearch.sidecubes.com
p3829
F0.0005731926797966754
tp3830
(Vfr.wow.com
p3831
F0.0005031414370583318
tp3832
(Vsearch.hao123.com.br
p3833
F0.0004901181822968964
tp3834
(Vtwitch.tv
p3835
F0.00040739971987316105
tp3836
(Vaccount.live.com
p3837
F0.0003368996069412944
tp3838
(Vhumblebundle.com
p3839
F0.00032895974347243637
tp3840
(Vsearch.findwide.com
p3841
F0.00028479862167211977
tp3842
(Vminecraft.net
p3843
F0.00024431603156685087
tp3844
(Vgoogle.com.ec
p3845
F0.00021696344549993276
tp3846
(Vus.battle.net
p3847
F0.00020060590540145736
tp3848
(Vstore.steampowered.com
p3849
F0.00018927089713552498
tp3850
(Vsteamcommunity.com
p3851
F0.0001840770810935155
tp3852
tp3853
s((S'chrome.com'
p3854
tp3855
(ttp3856
(ts((S'alpha3.com'
p3857
tp3858
(ttp3859
((Vanimeq.com.br
p3860
F2.1789299758136615e-06
tp3861
tp3862
s((S'speakerdeck.com'
p3863
tp3864
(ttp3865
((Vdemo.coffee-themes.com
p3866
F0.0039671592074744305
tp3867
(Vspeakerd.s3.amazonaws.com
p3868
F0.0031840326414409345
tp3869
(Vstartupsmart.com.au
p3870
F0.0024248497613811744
tp3871
(Vmaddisondesigns.com
p3872
F0.0023298317533521225
tp3873
(Vthemes-lab.com
p3874
F0.0022676382593878877
tp3875
(Vfontstruct.com
p3876
F0.0022317005850366494
tp3877
(Vreadability.com
p3878
F0.002135284711928032
tp3879
(Vadmin.smartphone.userlocal.jp
p3880
F0.002003364625203868
tp3881
(Vbagtheweb.com
p3882
F0.001999111954713731
tp3883
(Vclickwork7network.com
p3884
F0.0017965561747034368
tp3885
(Vinteractly.com
p3886
F0.0017284060116690148
tp3887
(Vtest.proxistore.com
p3888
F0.001579048509965591
tp3889
(Vrajhimself.com
p3890
F0.0013000119296729658
tp3891
(Vcodecondo.com
p3892
F0.001220573693455316
tp3893
(Vcss-happylife.com
p3894
F0.0011575611844464764
tp3895
(Vaneventapart.com
p3896
F0.0011068669516008853
tp3897
(Vmaketea.co.uk
p3898
F0.0009992090820833237
tp3899
(V960.gs
p3900
F0.0009955768862741556
tp3901
(Vgrapplemobile.atlassian.net
p3902
F0.000977010403519926
tp3903
(Vadmin.taggedpdf.com.au
p3904
F0.0008888000838847269
tp3905
tp3906
s((S'goldsteintech.com'
p3907
tp3908
(ttp3909
(ts((S'alpha4.com'
p3910
tp3911
(ttp3912
((Vgoogle.com.au
p3913
F8.213878316722479e-08
tp3914
tp3915
s((S'techonthenet.com'
p3916
tp3917
(ttp3918
(ts((S'stackoverflow.com'
p3919
tp3920
(ttp3921
(ts((S'cracked.com'
p3922
tp3923
(ttp3924
((Vlistverse.com
p3925
F0.002726385758898505
tp3926
(Vcollegehumor.com
p3927
F0.002107328674389131
tp3928
(Varchive.today
p3929
F0.0016765785990839604
tp3930
(Vescapistmagazine.com
p3931
F0.0016443018805989268
tp3932
(Vdorkly.com
p3933
F0.0015727526783965238
tp3934
(Vsmbc-comics.com
p3935
F0.0014025142688979721
tp3936
(Vtheonion.com
p3937
F0.0012152073952430848
tp3938
(Voddee.com
p3939
F0.0008038470483622185
tp3940
(Vavclub.com
p3941
F0.0007375924550347175
tp3942
(Vexplosm.net
p3943
F0.0007325112118358349
tp3944
(Vthechive.com
p3945
F0.0006896736374762467
tp3946
(Vmentalfloss.com
p3947
F0.0004837719810559199
tp3948
(Vbuzzfeed.com
p3949
F0.00045508882873294493
tp3950
tp3951
s((S'beta8.com'
p3952
tp3953
(ttp3954
(ts((S'blogspot.co.uk'
p3955
tp3956
(ttp3957
((Vsoccersportthai.blogspot.co.uk
p3958
F0.0707374040707374
tp3959
(Vproofreadmyfile.blogspot.com
p3960
F0.030689329556185082
tp3961
(Vibrahimyamanabdullahi.blogspot.co.uk
p3962
F0.017033585087578337
tp3963
(Vsapbasissociety.blogspot.co.uk
p3964
F0.015119098559406645
tp3965
(Vpersianbooks2.blogspot.co.uk
p3966
F0.01447080599024062
tp3967
(Vblogsofnote.blogspot.co.uk
p3968
F0.014427657547298217
tp3969
(Vkizomba-zouk.blogspot.co.uk
p3970
F0.012347802817439838
tp3971
(Vbmackie.blogspot.co.uk
p3972
F0.01162535643781531
tp3973
(Vsherrysbeautyandfashion.blogspot.co.uk
p3974
F0.011378935939196526
tp3975
(Vmwholt.blogspot.co.uk
p3976
F0.011096992799661162
tp3977
(Vhongleili.blogspot.co.uk
p3978
F0.010588425476883283
tp3979
(Vportableappz.blogspot.co.uk
p3980
F0.008682119747727087
tp3981
(Vjandjalpacas.blogspot.co.uk
p3982
F0.006606792608650769
tp3983
(Vsuitcaseboy.blogspot.co.uk
p3984
F0.0065030737184372306
tp3985
(Vsliekje.blogspot.co.uk
p3986
F0.006483803155788567
tp3987
(Vyourcreativefuel.blogspot.co.uk
p3988
F0.006483803155788567
tp3989
(Vmonica-or.blogspot.co.uk
p3990
F0.006322861094645326
tp3991
(Vsleazybeats.blogspot.co.uk
p3992
F0.0062287104622871054
tp3993
(Vquickshout.blogspot.co.uk
p3994
F0.005905511811023622
tp3995
(Vblogger.co.uk
p3996
F0.00456841015757446
tp3997
tp3998
s((S'lwn.net'
p3999
tp4000
(ttp4001
((Vsuccessfulsoftware.net
p4002
F0.005252112500049234
tp4003
(Vlinuxfr.org
p4004
F0.004822843418206723
tp4005
(Vghzl.co
p4006
F0.0034472746606284085
tp4007
(Vphoronix.com
p4008
F0.002768949835679411
tp4009
(Vlinux-bg.org
p4010
F0.0026851094101852297
tp4011
(Vbugs.freedesktop.org
p4012
F0.002523399741763606
tp4013
(Vrt.wiki.kernel.org
p4014
F0.002237663304438635
tp4015
(Vrajalanetti.com
p4016
F0.002206267253682163
tp4017
(Vsimepar.br
p4018
F0.0018997695554617766
tp4019
(Vlxer.com
p4020
F0.0016418547532840177
tp4021
(Vplanet.postgresql.org
p4022
F0.0016138535921117138
tp4023
(Vnorrod.nl
p4024
F0.0014726421294774892
tp4025
(Vwebmail.delaval.com
p4026
F0.001380474439094912
tp4027
(Velementarynow.com
p4028
F0.0012930064543167485
tp4029
(Vusers.csc.calpoly.edu
p4030
F0.001283081096542379
tp4031
(Vbeyond3d.com
p4032
F0.0012644611077741394
tp4033
(V100ask.org
p4034
F0.0012163660952326189
tp4035
(Vanandtech.com
p4036
F0.001147878137408774
tp4037
(Vohjelmointiputka.net
p4038
F0.00110908323285851
tp4039
(Vwebmail.alltele.net
p4040
F0.0010886146327560872
tp4041
tp4042
s((S'keyvalue.org'
p4043
tp4044
(ttp4045
((Vrubygems.org
p4046
F1.8680492428768945e-05
tp4047
(Vgithub.com
p4048
F3.475709217831192e-07
tp4049
tp4050
s((S'linkedin.com'
p4051
tp4052
(ttp4053
((Vxing.com
p4054
F0.0035272738274342397
tp4055
(Vus-mg6.mail.yahoo.com
p4056
F0.0034621026445398524
tp4057
(Vmail.google.com
p4058
F0.00285240789862983
tp4059
(Vtwitter.com
p4060
F0.0023210936167840177
tp4061
(Ve.mail.ru
p4062
F0.0017568898115882413
tp4063
(Vviadeo.com
p4064
F0.0017304525049372677
tp4065
(Vindeed.com
p4066
F0.001351932687287556
tp4067
(Vdub126.mail.live.com
p4068
F0.0012331686466150727
tp4069
(Vapi.addthis.com
p4070
F0.000836236539960899
tp4071
(Vfacebook.com
p4072
F0.0007638182750437176
tp4073
(Vbehance.net
p4074
F0.00029182320364485996
tp4075
(Voutlook.office365.com
p4076
F0.0002846521831975362
tp4077
tp4078
s((S'alibaba.com'
p4079
tp4080
(ttp4081
(ts((S'mobileread.com'
p4082
tp4083
(ttp4084
(ts((S'alpha46.com'
p4085
tp4086
(ttp4087
(ts((S'oracle-base.com'
p4088
tp4089
(ttp4090
(ts((S'alpha43.com'
p4091
tp4092
(ttp4093
(ts((S'alpha0.com'
p4094
tp4095
(ttp4096
(ts((S'beta9.com'
p4097
tp4098
(ttp4099
(ts((S'caltech.edu'
p4100
tp4101
(ttp4102
(ts((S'sarasoueidan.com'
p4103
tp4104
(ttp4105
(ts((S'mozilla.org'
p4106
tp4107
(ttp4108
((Vtrovi.com
p4109
F0.003908185540139704
tp4110
(Vastromenda.com
p4111
F0.003661281447262505
tp4112
(Vdefault-search.net
p4113
F0.003546628603773007
tp4114
(Vyandex.ru
p4115
F0.003418356746361168
tp4116
(Vhome.tb.ask.com
p4117
F0.002485574080687845
tp4118
(Vmystartsearch.com
p4119
F0.002372836999030979
tp4120
(Vgroovorio.com
p4121
F0.0021940789678751077
tp4122
(Vcr4.gogorithm.com
p4123
F0.0014396275046440782
tp4124
(Vistartsurf.com
p4125
F0.001407008639371235
tp4126
(Vcr2.gogorithm.com
p4127
F0.0011775681487276746
tp4128
(Vvosteran.com
p4129
F0.0011286580230675245
tp4130
(Vupdatesoftnow.com
p4131
F0.0011115485450116163
tp4132
(Vsearch.yahoo.com
p4133
F0.0010762443747588434
tp4134
(Vsweet-page.com
p4135
F0.0009996025717427229
tp4136
(Vhd-plugin.com
p4137
F0.0009837360668146014
tp4138
(Vget.adobe.com
p4139
F0.0008646924779831686
tp4140
(Vcij.campaignism.com
p4141
F0.0007996086228882707
tp4142
(Vieonline.microsoft.com
p4143
F0.0007893274514678609
tp4144
(Vaz307127.vo.msecnd.net
p4145
F0.0007404118225709963
tp4146
tp4147
s((S'wolframalpha.com'
p4148
tp4149
(ttp4150
((Vwebassign.net
p4151
F0.006517849643425926
tp4152
(Vmathworld.wolfram.com
p4153
F0.003393997804121385
tp4154
(Vtutorial.math.lamar.edu
p4155
F0.0032305370516692486
tp4156
(Vmathxl.com
p4157
F0.002903553433297141
tp4158
(Vsymbolab.com
p4159
F0.0026494218523835946
tp4160
(Vpurplemath.com
p4161
F0.0023617804926934385
tp4162
(Vquest.cns.utexas.edu
p4163
F0.0022502976628350187
tp4164
(Vmath.stackexchange.com
p4165
F0.0021096126650983816
tp4166
(Vdesmos.com
p4167
F0.0016572406004577939
tp4168
(Vchegg.com
p4169
F0.0011195735650166758
tp4170
(Vmathway.com
p4171
F0.0008791764257050895
tp4172
tp4173
s((S'webssearches.com'
p4174
tp4175
(ttp4176
((Vapps.facebook.com
p4177
F0.0021935335744632054
tp4178
(Voffers.bycontext.com
p4179
F0.0020862308063040167
tp4180
(Voffer.alibaba.com
p4181
F0.0020701312153313836
tp4182
(Vcr2.gogorithm.com
p4183
F0.0018717007128681296
tp4184
(Vgenesis-offers.com
p4185
F0.0018132036619243768
tp4186
(Vfriv.com
p4187
F0.001731956243723461
tp4188
(Vcr3.gogorithm.com
p4189
F0.0015787268353865457
tp4190
(Vcdn.regiedepub.com
p4191
F0.0011559891140969405
tp4192
(Vtuneuppro.com
p4193
F0.0011187338752717364
tp4194
(Vgty.campaignism.com
p4195
F0.0009354430470577684
tp4196
(Vmegaoferta.net
p4197
F0.0008819582476484195
tp4198
(Valh.gogorithm.com
p4199
F0.0007192514956077569
tp4200
(Vlp.ilividnewtab.com
p4201
F0.0006971578420989229
tp4202
(Vzym.tollbahsuburban.com
p4203
F0.0006637015040444586
tp4204
(Vavira.com
p4205
F0.0006519336861994229
tp4206
(Veasydriverpro.com
p4207
F0.0005909675721103702
tp4208
(Vcache.icmwebserv.com
p4209
F0.0005497025356421287
tp4210
(Vxnxx.com
p4211
F0.0005015555867557102
tp4212
(Vyoutube.com
p4213
F0.0004991988529966611
tp4214
tp4215
s((S'yahoo.com'
p4216
tp4217
(ttp4218
((Vsearch.safefinder.com
p4219
F0.009634514947491827
tp4220
(Vfacebook.com
p4221
F0.009307743324214716
tp4222
(Vgoogle.com
p4223
F0.007993397163605226
tp4224
(Vdefault-search.net
p4225
F0.00638461452160443
tp4226
(Vyoutube.com
p4227
F0.00588895962389419
tp4228
(Vistart.webssearches.com
p4229
F0.004950212773619762
tp4230
(Vmysearch.avg.com
p4231
F0.003889205065770996
tp4232
(Vtrovi.com
p4233
F0.003690493176671326
tp4234
(Vreddit.com
p4235
F0.003380895730880115
tp4236
(Vmsn.com
p4237
F0.0033709754356519212
tp4238
(Vhome.tb.ask.com
p4239
F0.003246479649348346
tp4240
(Vbing.com
p4241
F0.001870128319245984
tp4242
(Vcr2.gogorithm.com
p4243
F0.0017706224180467011
tp4244
tp4245
s((S'live.com'
p4246
tp4247
(ttp4248
((Vhotmail.com
p4249
F0.03407584705530906
tp4250
(Vgoogle.com.br
p4251
F0.009265640436663175
tp4252
(Vmsn.com
p4253
F0.005826312472339241
tp4254
(Voutlook.com
p4255
F0.005581978726363533
tp4256
(Vistart.webssearches.com
p4257
F0.004093831585578022
tp4258
(Vfacebook.com
p4259
F0.004037818878021313
tp4260
(Vtrovi.com
p4261
F0.0035716095806425908
tp4262
(Vsearch.safefinder.com
p4263
F0.0032300633341410773
tp4264
(Vsearch.sidecubes.com
p4265
F0.0025310821336464863
tp4266
(Vhome.tb.ask.com
p4267
F0.0021570512124755577
tp4268
(Vistartsurf.com
p4269
F0.0010630926812854498
tp4270
(Vsearch.ask.com
p4271
F0.0009246157662065858
tp4272
tp4273
s((S'trovi.com'
p4274
tp4275
(ttp4276
((Vbing.com
p4277
F0.004212441284699453
tp4278
(Vapps.facebook.com
p4279
F0.0030083022471033304
tp4280
(Voffers.bycontext.com
p4281
F0.0029297262233523636
tp4282
(Vgroovorio.com
p4283
F0.0029130750852486807
tp4284
(Vastromenda.com
p4285
F0.0028937860789622753
tp4286
(Vreimageplus.com
p4287
F0.00243956162408757
tp4288
(Vsafecart.com
p4289
F0.0014653320469006084
tp4290
(Vtuneuppro.com
p4291
F0.001189551762306356
tp4292
(Valh.gogorithm.com
p4293
F0.0011530157550193704
tp4294
(Vcr2.gogorithm.com
p4295
F0.0011365290965476328
tp4296
(Vvosteran.com
p4297
F0.0007473469568090073
tp4298
(Vzym.tollbahsuburban.com
p4299
F0.0006226184951174459
tp4300
(Vanyprotect.com
p4301
F0.0006114114084377105
tp4302
(Vcdn.regiedepub.com
p4303
F0.0005553433080517209
tp4304
(Vgenesis-offers.com
p4305
F0.0005458160518087363
tp4306
(Vgty.campaignism.com
p4307
F0.0005249554641133994
tp4308
tp4309
s((S'codinghorror.com'
p4310
tp4311
(ttp4312
(ts((S'lego.com'
p4313
tp4314
(ttp4315
(ts((S'alpha32.com'
p4316
tp4317
(ttp4318
(ts((S'shawarma-time.com'
p4319
tp4320
(ttp4321
(ts((S'alpha38.com'
p4322
tp4323
(ttp4324
(ts((S'alpha31.com'
p4325
tp4326
(ttp4327
(ts((S'practicingruby.com'
p4328
tp4329
(ttp4330
((Velmcitycraftworks.org
p4331
F0.023109641123805664
tp4332
(Vhartsem.edu
p4333
F0.01576023487552252
tp4334
(Vvdumoulin.github.io
p4335
F0.014616148715765574
tp4336
(Vblog.rubybestpractices.com
p4337
F0.014336265722118734
tp4338
(Vletter.ly
p4339
F0.009270472292980331
tp4340
(Vfabioanselmo.github.io
p4341
F0.007632800412583806
tp4342
(Vnas.int.stangl.co.za
p4343
F0.006892014145900156
tp4344
(Vpracticalruby.com
p4345
F0.006233190950798924
tp4346
(Vjamesfriend.com.au
p4347
F0.004684389272748566
tp4348
(Vdevblog.avdi.org
p4349
F0.0029803058169662632
tp4350
(Vrubytechlist.com
p4351
F0.0027833693680260445
tp4352
(Vstats.fanjas.com
p4353
F0.002452099050482813
tp4354
(Vcodon.com
p4355
F0.002302760390183461
tp4356
(Vtestingeducation.org
p4357
F0.0022754087308275747
tp4358
(Vherdt.de
p4359
F0.0022693966419629025
tp4360
(Vrubyoffrails.com
p4361
F0.0021707508112341948
tp4362
(Vcodecoreyvr.slack.com
p4363
F0.001842643106583627
tp4364
(Vdaniel.haxx.se
p4365
F0.0017404757300328755
tp4366
(Vschibsted.service-now.com
p4367
F0.0012539919721074684
tp4368
(Vallin.qiita.com
p4369
F0.0011750421056754533
tp4370
tp4371
s((S'localhost.'
p4372
tp4373
(ttp4374
(ts((S'ureddit.com'
p4375
tp4376
(ttp4377
((Vbeginnerscpp.com
p4378
F0.006572671888598781
tp4379
(Vfatsecret.com.au
p4380
F0.004678948612723494
tp4381
(V3pod.com.au
p4382
F0.004578399016372226
tp4383
(Vdev.solita.fi
p4384
F0.00436173082109968
tp4385
(Vwebcourseworks.com
p4386
F0.003127216921718232
tp4387
(Vthehybridathlete.com
p4388
F0.0023514834745883392
tp4389
(Vtelecommuterjobs.net
p4390
F0.002200164380097364
tp4391
(Vlocal.brookings.k12.sd.us
p4392
F0.002117690013996227
tp4393
(Vevasdigital.co
p4394
F0.0018805682450380422
tp4395
(Vuniversityofreddit.com
p4396
F0.0013201869970415694
tp4397
(Vludosoul.wordpress.com
p4398
F0.0012700212020068434
tp4399
(Vmole-reads.tumblr.com
p4400
F0.0012221340955459448
tp4401
(Vwipp.energy.gov
p4402
F0.001025010250102501
tp4403
(Vmail.yoox.biz
p4404
F0.0010156743254000932
tp4405
(Vapexbookcompany.com
p4406
F0.0010100822701702092
tp4407
(Vcodeception.com
p4408
F0.0009424400667020082
tp4409
(Vincidentalcomplexity.com
p4410
F0.0009344921035417251
tp4411
(Vdogfalo.github.io
p4412
F0.0009123859517560306
tp4413
(Vacsf.com.au
p4414
F0.0008911864087341653
tp4415
(Vwindenergyfoundation.org
p4416
F0.0008400938928468477
tp4417
tp4418
s((S'paulund.co.uk'
p4419
tp4420
(ttp4421
((Vdesignfloat.com
p4422
F0.014682317874154185
tp4423
(Vtikslus.com
p4424
F0.009972109256922046
tp4425
(Vtuflow.com
p4426
F0.00941413071944854
tp4427
(Vthemeswordpressfree.com
p4428
F0.0064874181764638375
tp4429
(V1dex.ch
p4430
F0.005137631363583222
tp4431
(Vcodingfusion.com
p4432
F0.005027579500723988
tp4433
(Vwp-tips.net
p4434
F0.004666974061316192
tp4435
(Vdanangsmartphone.vn
p4436
F0.004652234916816997
tp4437
(Vtak.ee
p4438
F0.004626630229509653
tp4439
(Venjoycss.com
p4440
F0.004177601750527054
tp4441
(Ve-kitap.org
p4442
F0.004108657082764539
tp4443
(Vpurecssmenu.com
p4444
F0.0039179659775167705
tp4445
(Vccs.seemysite.us
p4446
F0.003615513921040149
tp4447
(Vpro.agence-hybrid.com
p4448
F0.003342605497371602
tp4449
(Vhobium.com
p4450
F0.003266090976893467
tp4451
(Vwplift.com
p4452
F0.0028646937118022783
tp4453
(Vsimplemediacode.info
p4454
F0.002693832260479542
tp4455
(Vcubic-bezier.com
p4456
F0.002685931857532827
tp4457
(Vleagueoflegends-wiki.com
p4458
F0.00265266660471949
tp4459
(Vgmgcongress.com
p4460
F0.0025931240388389495
tp4461
tp4462
s((S'alpha45.com'
p4463
tp4464
(ttp4465
(ts((S'baidu.com'
p4466
tp4467
(ttp4468
((Vweibo.com
p4469
F0.027237351880198574
tp4470
(Vbilibili.com
p4471
F0.015872227198823714
tp4472
(Vuser.qzone.qq.com
p4473
F0.013327046598158254
tp4474
(Vgoogle.com.hk
p4475
F0.012046312454520806
tp4476
(Vs.taobao.com
p4477
F0.00874462576261445
tp4478
(Vdouban.com
p4479
F0.008413626118841796
tp4480
(Vacfun.tv
p4481
F0.007379018265028736
tp4482
(Vrenren.com
p4483
F0.007066561429865499
tp4484
(Vzhihu.com
p4485
F0.005108085147881503
tp4486
(Vyouku.com
p4487
F0.004951436561725886
tp4488
(Vhao123.com
p4489
F0.0028257992460768403
tp4490
(Vv.youku.com
p4491
F0.002222559857311278
tp4492
tp4493
s((S'docks.qc.ca'
p4494
tp4495
(ttp4496
((Vgoogle.com
p4497
F1.8234564997169045e-08
tp4498
tp4499
s((S'.'
p4500
tp4501
(ttp4502
(ts((S'alpha17.com'
p4503
tp4504
(ttp4505
(ts((S'beta3.com'
p4506
tp4507
(ttp4508
((Vsearch.smartshopping.com
p4509
F1.0572516976406806e-07
tp4510
tp4511
s((S'safefinder.com'
p4512
tp4513
(ttp4514
((Vca.search.yahoo.com
p4515
F0.0029244510928526416
tp4516
(Vpornhub.com
p4517
F0.001289683158149094
tp4518
(Vapps.facebook.com
p4519
F0.0012647655096910647
tp4520
(Vtuneuppro.com
p4521
F0.0010544851280576753
tp4522
(Vyouporn.com
p4523
F0.0009827774222949221
tp4524
(Vgoogle.co.za
p4525
F0.0009601737530226502
tp4526
(Vfeed.snapdo.com
p4527
F0.0009272621782743603
tp4528
(Vroblox.com
p4529
F0.0007794440513365415
tp4530
(Vxnxx.com
p4531
F0.0006499708133725999
tp4532
(Vlenovo.com
p4533
F0.0006219854391525674
tp4534
(Vmozilla.org
p4535
F0.0004626983764898858
tp4536
(Vstart.sweetpacks.com
p4537
F0.00037309378931740285
tp4538
(Vmypcbackup.com
p4539
F0.00034282324813356824
tp4540
(Vreimageplus.com
p4541
F0.00030580678293120657
tp4542
tp4543
s((S'thoughtbot.com'
p4544
tp4545
(ttp4546
((Vupcase.com
p4547
F0.024989667086915485
tp4548
(Vformkeep.com
p4549
F0.014646203355550037
tp4550
(Vjameschambers.co
p4551
F0.008357425242515544
tp4552
(Vtammersaleh.com
p4553
F0.004943316112993391
tp4554
(Vhoundci.com
p4555
F0.004806836698868746
tp4556
(Vsiyelo.com
p4557
F0.002945051927677963
tp4558
(Vgiantrobots.fm
p4559
F0.00211715962498671
tp4560
(Vmapsdesign.tumblr.com
p4561
F0.002099795643319399
tp4562
(Vapeth.com
p4563
F0.0019577595682550466
tp4564
(Vdevblog.avdi.org
p4565
F0.0019100218616960073
tp4566
(Vacademicwork.se
p4567
F0.0017322341701425485
tp4568
(Vrinse.io
p4569
F0.001560292892647523
tp4570
(Vatomic.io
p4571
F0.0014838520150369518
tp4572
(Vmartialcodex.com
p4573
F0.0014348262119961987
tp4574
(Vlvh.me
p4575
F0.0013953332488518147
tp4576
(Vbrightnewt.com
p4577
F0.0013170589638774016
tp4578
(Vsetentaydos.com
p4579
F0.0012088216882618495
tp4580
(Vryanterry.net
p4581
F0.0011578899857040137
tp4582
(Vdrp.io
p4583
F0.0011536686663590216
tp4584
(Vlaurium.nusii.com
p4585
F0.001150569134284429
tp4586
tp4587
s((S'alpha7.com'
p4588
tp4589
(ttp4590
(ts((S'beta5.com'
p4591
tp4592
(ttp4593
(ts((S'theoldreader.com'
p4594
tp4595
(ttp4596
((Vcluborlov.blogspot.com.br
p4597
F0.001629483712195623
tp4598
(Vhome.nielskim.nl
p4599
F0.001583765973314186
tp4600
(Vboards.cruisecritic.com
p4601
F0.001485453300561661
tp4602
(Vdtmpower.net
p4603
F0.0014122945690184302
tp4604
(Vmail.luetzen.dk
p4605
F0.0011100585027773505
tp4606
(Vportal.filadelfia.br
p4607
F0.0008692568306636837
tp4608
(Vgigabitescafe.com
p4609
F0.0007618165206089385
tp4610
(Vdelphifeeds.com
p4611
F0.0005999661440565003
tp4612
(Vbrusselnieuws.be
p4613
F0.0005860492509324877
tp4614
(Vtheaquilareport.com
p4615
F0.0005821878023734192
tp4616
(Vradionacional.com.ar
p4617
F0.0005543664620062667
tp4618
(Vvott.ru
p4619
F0.0004978213381410596
tp4620
(Vunz.com
p4621
F0.0004920895591088345
tp4622
(Vone.npr.org
p4623
F0.0004875921931996698
tp4624
(Vforum.pdnk.org
p4625
F0.00046894424078728703
tp4626
(Vwebmail.wmich.edu
p4627
F0.0004127460638011333
tp4628
(Vylilauta.org
p4629
F0.0003986461030724298
tp4630
(Vivorytower.com
p4631
F0.0003872626065568982
tp4632
(Vhomebrewchatter.com
p4633
F0.0003844828465516838
tp4634
(Vs126-pl.ogame.gameforge.com
p4635
F0.0003813682539531203
tp4636
tp4637
s((S'9gag.com'
p4638
tp4639
(ttp4640
((Vhugelol.com
p4641
F0.003233730888247263
tp4642
(Vmemecenter.com
p4643
F0.0025017981164674975
tp4644
(Vkwejk.pl
p4645
F0.0021561817990461748
tp4646
(Vmangareader.net
p4647
F0.001933358652853593
tp4648
(Vdumpert.nl
p4649
F0.0015286863776028295
tp4650
(Veksisozluk.com
p4651
F0.001271977269860276
tp4652
(Vtwitch.tv
p4653
F0.0012509446636704555
tp4654
(Vhiddenlol.com
p4655
F0.0010730062228643238
tp4656
(Vmangafox.me
p4657
F0.0006855088296482892
tp4658
(Vjeuxvideo.com
p4659
F0.0005999945477223184
tp4660
(Vhaivl.com
p4661
F0.0004240296668315654
tp4662
(Vmangahere.co
p4663
F0.0003718523999781129
tp4664
tp4665
s((S'pow.cx'
p4666
tp4667
(ttp4668
(ts((S'github.com'
p4669
tp4670
(ttp4671
((Vcode.google.com
p4672
F0.00407012608671127
tp4673
(Vrubygems.org
p4674
F0.0035773462484789457
tp4675
(Vraw.githubusercontent.com
p4676
F0.0034577717855745157
tp4677
(Vstackoverflow.com
p4678
F0.003441503954031439
tp4679
(Vbitbucket.org
p4680
F0.003385212782873444
tp4681
(Vnpmjs.org
p4682
F0.002854017136546961
tp4683
(Vpypi.python.org
p4684
F0.002706602897481004
tp4685
(Vnews.ycombinator.com
p4686
F0.0019993154488276
tp4687
(Vgit-scm.com
p4688
F0.0019871032599025357
tp4689
(Vdocs.angularjs.org
p4690
F0.0012442907118560913
tp4691
(Vhaxiomic.github.io
p4692
F0.0006659055953985048
tp4693
(Vpivotaltracker.com
p4694
F0.0005625324970995607
tp4695
tp4696
s((S'runnable.com'
p4697
tp4698
(ttp4699
(ts((S'youtube.com'
p4700
tp4701
(ttp4702
(ts((S'alpha9.com'
p4703
tp4704
(ttp4705
(ts((S'javascriptkit.com'
p4706
tp4707
(ttp4708
(ts((S'quirksmode.org'
p4709
tp4710
(ttp4711
(ts((S'stackexchange.com'
p4712
tp4713
(ttp4714
((Vdrupal.org
p4715
F0.0018087338073138374
tp4716
(Vsuperuser.com
p4717
F0.0017565770216195539
tp4718
(Vstackoverflow.com
p4719
F0.0017298447513904261
tp4720
(Vexchange.jacobs-university.de
p4721
F0.0017227839744996746
tp4722
(Vencrypted.google.com
p4723
F0.0016974100217127502
tp4724
(Vstartpage.com
p4725
F0.0011022911608110297
tp4726
(Vknightsandmerchants.net
p4727
F0.0010559136442041205
tp4728
(Vcourses.edx.org
p4729
F0.0009489679492966093
tp4730
(Vwen.lu
p4731
F0.0007011318157478892
tp4732
(Vdev53.mainlinemenswear.co.uk
p4733
F0.0004911855144103377
tp4734
(Vbodytonicmusic.com
p4735
F0.0004665108146013598
tp4736
(Vwpsites.net
p4737
F0.00045658378453616134
tp4738
(Vmathoverflow.net
p4739
F0.00038500259922329095
tp4740
(Vbuildwithcraft.com
p4741
F0.00036671354486146547
tp4742
(Vshkspr.mobi
p4743
F0.00034314590131385466
tp4744
tp4745
s((S'livejournal.com'
p4746
tp4747
(ttp4748
((Vlenta.ru
p4749
F0.007630193552149961
tp4750
(Vecho.msk.ru
p4751
F0.005440124097184883
tp4752
(Vnewsru.com
p4753
F0.00489071664256173
tp4754
(Vrusvesna.su
p4755
F0.0048745836111702455
tp4756
(Vartlebedev.ru
p4757
F0.00466291265138468
tp4758
(Vnavalny.com
p4759
F0.004605537564307319
tp4760
(Vgazeta.ru
p4761
F0.004564734729053364
tp4762
(Vexler.ru
p4763
F0.004269929777672117
tp4764
(Vrbc.ru
p4765
F0.004190171181083074
tp4766
(Vvoicesevas.ru
p4767
F0.0032223065289894
tp4768
(Vd3.ru
p4769
F0.0009741109205437652
tp4770
tp4771
s((S'tvtropes.org'
p4772
tp4773
(ttp4774
((Vdarthsanddroids.net
p4775
F0.001500247463499134
tp4776
(Vbrianspage.com
p4777
F0.001190719319934098
tp4778
(Vtvsinopse.kinghost.net
p4779
F0.0007400792503836695
tp4780
(Vthatguywiththeglasses.com
p4781
F0.0005833013882610892
tp4782
(Vgingasite.net
p4783
F0.000501607122821144
tp4784
(Vforums.spacebattles.com
p4785
F0.00048495945186655885
tp4786
(Vknowyourmeme.com
p4787
F0.00046413679362313165
tp4788
(Vsomethingawful.com
p4789
F0.00041006250033043837
tp4790
(Vecchi-anime.blogspot.com
p4791
F0.0003929467804378441
tp4792
(Vthe-editing-room.com
p4793
F0.0003602536513208618
tp4794
(Vcrystalhall.org
p4795
F0.0003559825488437577
tp4796
(Vhentai2read.com
p4797
F0.0003398529854742772
tp4798
(V16personalities.com
p4799
F0.0003332813271432821
tp4800
(Vanimenewsnetwork.co.uk
p4801
F0.00027232622901355853
tp4802
(Vparahumans.wordpress.com
p4803
F0.00021676107587459498
tp4804
(Vlesbolution.tumblr.com
p4805
F0.0002133517961502453
tp4806
(Vrpol.net
p4807
F0.00021168773843842435
tp4808
(V1d4chan.org
p4809
F0.00020931403545750485
tp4810
(Vjellyneo.net
p4811
F0.00020794189731850084
tp4812
(Vlddb.com
p4813
F0.00020783572379088003
tp4814
tp4815
s((S'rubyonrails.org'
p4816
tp4817
(ttp4818
((Vapidock.com
p4819
F0.011397494420702052
tp4820
(Vrubygems.org
p4821
F0.008203633250278028
tp4822
(Vgotealeaf.com
p4823
F0.005455874526601032
tp4824
(Vrailstutorial.org
p4825
F0.004871535033275358
tp4826
(Vruby-doc.org
p4827
F0.004805262911288739
tp4828
(Vruby-forum.com
p4829
F0.004490223826882239
tp4830
(Vruby-lang.org
p4831
F0.0032113084093923576
tp4832
(Vbloc.io
p4833
F0.00318059571273871
tp4834
(Vreinteractive.net
p4835
F0.001720967333430777
tp4836
(Vrelishapp.com
p4837
F0.0013700371245817546
tp4838
(Vjira.greenmile.com
p4839
F0.0012420964931221224
tp4840
(Vamberbit.com
p4841
F0.0011787522780099952
tp4842
(Vruby-china.org
p4843
F0.000915150624069657
tp4844
(Vrails.org
p4845
F0.0008464418997255876
tp4846
(Vrailsforzombies.org
p4847
F0.0007531036531073972
tp4848
tp4849
s((S'bbc.co.uk'
p4850
tp4851
(ttp4852
((Vtheguardian.com
p4853
F0.005088657297280494
tp4854
(Vgoogle.co.uk
p4855
F0.0048885746025793785
tp4856
(Vdailymail.co.uk
p4857
F0.0039057337262425624
tp4858
(Vitv.com
p4859
F0.003679825184559333
tp4860
(Vchannel4.com
p4861
F0.0033050800389549597
tp4862
(Vradiofarda.com
p4863
F0.0027556011474314124
tp4864
(Vamazon.co.uk
p4865
F0.002622046319871563
tp4866
(Vbbcpersian.com
p4867
F0.0023148103512629077
tp4868
(Vhotukdeals.com
p4869
F0.001549231478388807
tp4870
(Vwww1.skysports.com
p4871
F0.001469809432519245
tp4872
(Vuk.search.yahoo.com
p4873
F0.0008524752807078012
tp4874
(Vebay.co.uk
p4875
F0.0006278903848877499
tp4876
tp4877
s((S'linuxjournal.com'
p4878
tp4879
(ttp4880
((Vplay0ad.com
p4881
F0.007972660221054225
tp4882
(Vgrc.com
p4883
F0.00647141761691918
tp4884
(Vislametinfo.fr
p4885
F0.003816693772624731
tp4886
(Vmfrtech.com
p4887
F0.003299980133259979
tp4888
(Vstaceypageonline.com
p4889
F0.002611479327291582
tp4890
(Vweb.tiscali.it
p4891
F0.002206592194180113
tp4892
(Vvuenosairez.com
p4893
F0.002110189065787111
tp4894
(Vgoogleblog.blogspot.ca
p4895
F0.0021021366248038047
tp4896
(Viso.linuxquestions.org
p4897
F0.00205698044304996
tp4898
(Vapp.flowkey.com
p4899
F0.002010494615044506
tp4900
(Vlxer.com
p4901
F0.0017342140696928467
tp4902
(Vpubservice.com
p4903
F0.0016237614530817824
tp4904
(Vswtch.com
p4905
F0.0016066199103156131
tp4906
(Vlinuxformat.co.uk.hypestat.com
p4907
F0.0015858338656718014
tp4908
(Vthemukt.com
p4909
F0.0015653612543401665
tp4910
(Vandroidlista.com
p4911
F0.0015486774962675757
tp4912
(Vmakerzone.mathworks.com
p4913
F0.0014968938741111305
tp4914
(Vlinuxstory.org
p4915
F0.001406172434392643
tp4916
(Vlinuxine.com
p4917
F0.0014034815981275438
tp4918
(Vchili-tv.it
p4919
F0.0013159468347682625
tp4920
tp4921
s((S'coffeescript.org'
p4922
tp4923
(ttp4924
((Vjs2coffee.org
p4925
F0.020693182805269154
tp4926
(Vcoffeescriptcookbook.com
p4927
F0.014455852566642792
tp4928
(Vjashkenas.github.io
p4929
F0.00597237858670336
tp4930
(Vqt.digia.com
p4931
F0.004797684021126827
tp4932
(Vsfx-preprod.stickyadstv.com
p4933
F0.0027912496327303117
tp4934
(Vjavascriptlint.com
p4935
F0.002506203361792715
tp4936
(Vpartners.lvh.me
p4937
F0.0023582097429332553
tp4938
(Varcturo.github.io
p4939
F0.0020018046119188045
tp4940
(Vzaach.github.io
p4941
F0.0015149175427134683
tp4942
(Vcodewars.com
p4943
F0.0013883333963012228
tp4944
(Vknockoutjs.com
p4945
F0.001286273833775628
tp4946
(Vunderscorejs.org
p4947
F0.0012831854535160887
tp4948
(Vricardo.cc
p4949
F0.0012189409076568609
tp4950
(Vmaxtaco.github.io
p4951
F0.001213609594430271
tp4952
(Vangular.ru
p4953
F0.0012103536082053226
tp4954
(Vevanhahn.com
p4955
F0.0011630444344667876
tp4956
(Vww2.coffescript.org
p4957
F0.001032622426625998
tp4958
(Vgateway.asebis.com
p4959
F0.0009404174612931528
tp4960
(Vlvh.me
p4961
F0.0008143742914703072
tp4962
(Vswdev.com
p4963
F0.0008014909843128782
tp4964
tp4965
s((S'ruby-lang.org'
p4966
tp4967
(ttp4968
((Vcas-01.uni.ad.sunderland.ac.uk
p4969
F0.012872928541706572
tp4970
(Vref.xaio.jp
p4971
F0.004998883713543663
tp4972
(Vrubyforge.org
p4973
F0.003566180092713265
tp4974
(Vguides.ruby.tw
p4975
F0.0033659435810147755
tp4976
(Vopenshift.com
p4977
F0.003261580787297741
tp4978
(Vjemmywalker.pixnet.net
p4979
F0.0028971000803575207
tp4980
(Vblade.nagaokaut.ac.jp
p4981
F0.0024790205130732737
tp4982
(Vruby-auf-schienen.de
p4983
F0.0022711603195847024
tp4984
(Vrubyclub.blogspot.com
p4985
F0.0021561004694637754
tp4986
(Vhelp.rallydev.com
p4987
F0.002068458282306121
tp4988
(Vruby-doc.com
p4989
F0.0019892545575918353
tp4990
(Vrailsdoc.com
p4991
F0.0019050279129559802
tp4992
(Vtheadmin.org
p4993
F0.0019036383809625046
tp4994
(Vbebo.com
p4995
F0.0018038020923432463
tp4996
(Vpine.fm
p4997
F0.001572538640588942
tp4998
(Vsldn.softlayer.com
p4999
F0.0015296219648572567
tp5000
(Vrubyinstaller.org
p5001
F0.0015030799755354062
tp5002
(Vfoad.simplon.co
p5003
F0.0014549651702471815
tp5004
(Vrusrails.ru
p5005
F0.001415963079495097
tp5006
(Vcharliewaite.me
p5007
F0.001348086772597759
tp5008
tp5009
s.