(dp0
((S'alpha21.com'
p1
tp2
(ttp3
((Vnaver.com
p4
F1.1258501626907744e-07
tp5
tp6
s((S'gogorithm.com'
p7
tp8
(ttp9
(ts((S'ruby-toolbox.com'
p10
tp11
(ttp12
((Vrubytoolbox.com
p13
F0.0028217657755593615
tp14
(Vankane.github.io
p15
F0.0027867450266258315
tp16
(Vsimonecarletti.com
p17
F0.0022570789309152967
tp18
(Vgoogle.chn.im
p19
F0.0019127274010551762
tp20
(Vrubygems.org
p21
F0.0017247897487160796
tp22
(Vrubydev.ru
p23
F0.0017242912428428383
tp24
(Vruby-china.org
p25
F0.0016945777982200333
tp26
(Vintertwingly.net
p27
F0.0013847288490194014
tp28
(V3987.com
p29
F0.0012524451481177904
tp30
(Vprototypejs.org
p31
F0.0012326215985673007
tp32
(Vin-media.ru
p33
F0.0012279170722429207
tp34
(Vapotomo.de
p35
F0.0011713520749665328
tp36
(Vihower.tw
p37
F0.0011146665129195615
tp38
(Vforums.raml.org
p39
F0.0010388978058591572
tp40
(Vlibgosu.org
p41
F0.0010298288535778202
tp42
(Vfabricationgem.org
p43
F0.0010267945823296206
tp44
(Vryanfunduk.com
p45
F0.000990572769322465
tp46
(Vrubyjunky.com
p47
F0.00097829916886024
tp48
(Vsvyatov.ru
p49
F0.0008794594405349579
tp50
(Vadp.eease.com
p51
F0.0008370281860143508
tp52
tp53
s((S'alpha40.com'
p54
tp55
(ttp56
(ts((S'pocketworx.com'
p57
tp58
(ttp59
(ts((S'mojotech.com'
p60
tp61
(ttp62
(ts((S'mysql.com'
p63
tp64
(ttp65
((Vconfluence.atlassian.com
p66
F0.005367319764841898
tp67
(Vprofile.oracle.com
p68
F0.004564094474545355
tp69
(Vsearch.oracle.com
p70
F0.0024607855072709957
tp71
(Vphpmyadmin.1and1.fr
p72
F0.0020724723376035746
tp73
(Vdbadmin.one.com
p74
F0.001508270491192317
tp75
(Vmariadb.com
p76
F0.0012986103405912225
tp77
(Vp3nlmysqladm001.secureserver.net
p78
F0.0010597938268591593
tp79
(Vwindows.php.net
p80
F0.0010088579160753197
tp81
(Vphpmyadmin.wpengine.com
p82
F0.0009758129581882864
tp83
(Vmysqladmin.ipage.com
p84
F0.000807715283238552
tp85
(Vwfvrj.petrobras.com.br
p86
F0.0006780569361283955
tp87
(Vh.yandex-team.ru
p88
F0.0006146665542926394
tp89
(Vxie.lu
p90
F0.0005932938592555025
tp91
(Vhome.informatica.hva.nl
p92
F0.0005783871951367076
tp93
(Vcleardb.com
p94
F0.0005741331647147766
tp95
(Vdocs.djangoproject.com
p96
F0.0005424961020650444
tp97
(Vkaushik.net
p98
F0.0005323576744885704
tp99
(Vaa69d4ce54eba62df607457a17e36b4f5d1a4325.googledrive.com
p100
F0.0005311379083714999
tp101
(Vphpmyadmin.ukraine.com.ua
p102
F0.0005288701849433239
tp103
(Vdelphi.about.com
p104
F0.0005011819404719926
tp105
tp106
s((S'alpha29.com'
p107
tp108
(ttp109
(ts((S'verou.me'
p110
tp111
(ttp112
(ts((S'alpha34.com'
p113
tp114
(ttp115
((Vlivingsocial.com
p116
F9.079445109447686e-06
tp117
tp118
s((S'zetalab.de'
p119
tp120
(ttp121
(ts((S'djangopackages.com'
p122
tp123
(ttp124
((Vapreche.net
p125
F0.020882769022286102
tp126
(Vdjango-avatar.readthedocs.org
p127
F0.009746893775378008
tp128
(Vdjangoproject.com
p129
F0.005727475751994577
tp130
(Vhackerluddite.wordpress.com
p131
F0.004126278944534195
tp132
(Vgit.wogon.eu
p133
F0.004072171407091843
tp134
(Vlocal.packer.streetvoice.com
p135
F0.0027112516945323093
tp136
(Vmezzanine.jupo.org
p137
F0.0024973213885595793
tp138
(Vdarwinconstruction.ca
p139
F0.0024349002367264117
tp140
(Vpanel.djangoeurope.com
p141
F0.0023059510461401764
tp142
(Vapibrowser.dev.rexsoftware.com
p143
F0.0018059605913599529
tp144
(Vralphminderhoud.com
p145
F0.001767590375185312
tp146
(Vlamia1026.tmweb.ru
p147
F0.0017604633993980351
tp148
(Vpinaxproject.com
p149
F0.0016632909015304959
tp150
(Vforums.pligg.com
p151
F0.0016274674506509869
tp152
(Vjeffknupp.com
p153
F0.001544138608216401
tp154
(Vwpj.cz
p155
F0.001265909401943342
tp156
(Vkristall-shatura.ru
p157
F0.0010253657596652765
tp158
(Vboard.shaturka.ru
p159
F0.001018887019789658
tp160
(Vdjango-report-builder.readthedocs.org
p161
F0.0009767865688568975
tp162
(Vhexvolt.blogspot.ru
p163
F0.0009338297045588438
tp164
tp165
s((S'alpha5.com'
p166
tp167
(ttp168
((Valliedhealthworld.com
p169
F0.019944027102666077
tp170
(Vkempsvilleruritanclub.org
p171
F0.002170740268617562
tp172
(Vmsgboard.alphasoftware.com
p173
F0.001026299469818061
tp174
(Vwhois.com
p175
F1.4852977486330757e-05
tp176
tp177
s((S'alpha24.com'
p178
tp179
(ttp180
(ts((S'railsenvy.com'
p181
tp182
(ttp183
((Vproxylala.pw
p184
F0.07315634218289085
tp185
(Vafreshcup.wordpress.com
p186
F0.061630218687872766
tp187
(Vtheodinproject.com
p188
F0.000533130952642291
tp189
(Vforum.rubyonrails.pl
p190
F6.492624968274674e-05
tp191
(Vrailscasts.com
p192
F5.9049096962160154e-05
tp193
(Vkora-online.tv
p194
F5.540333318764308e-06
tp195
(Vyoutube.com
p196
F8.756484556477331e-10
tp197
tp198
s((S'python.org'
p199
tp200
(ttp201
((Vdjangopackages.com
p202
F0.028235770318671527
tp203
(Vdocs.djangoproject.com
p204
F0.011797606215775544
tp205
(Vpythonhosted.org
p206
F0.0072327330062755026
tp207
(Vwikidocs.net
p208
F0.00331444475734783
tp209
(Vnetworkx.github.io
p210
F0.0025721363577256035
tp211
(Vpython3wos.appspot.com
p212
F0.0017378741652830621
tp213
(Vconfluence.atlassian.com
p214
F0.001071124946390917
tp215
(Vpure-forum.org
p216
F0.0008837824192407215
tp217
(Vmoodle.macalester.edu
p218
F0.0007187880924060596
tp219
(Vdeveloper.foursquare.com
p220
F0.000605093370590939
tp221
(Vprogrammeerimine.cs.ut.ee
p222
F0.00043730836141456323
tp223
(Vtrailtiger.com
p224
F0.0004264912335899067
tp225
(Vvirtualenv.pypa.io
p226
F0.0004119807334448899
tp227
(Vliaoxuefeng.com
p228
F0.00039731681140257646
tp229
(Vpagekite.net
p230
F0.00038970019874352943
tp231
(Vh.yandex-team.ru
p232
F0.00032120697262060226
tp233
(Vreplicat.org
p234
F0.00030196437819484144
tp235
tp236
s((S'alpha35.com'
p237
tp238
(ttp239
(ts((S'rydia.net'
p240
tp241
(ttp242
((Vsincomics.com
p243
F0.021359696539829148
tp244
(Vhalflightcomics.com
p245
F0.012060105220756076
tp246
(Vstoryofthedoor.com
p247
F0.012027073087597992
tp248
(Valexanderthekid.tumblr.com
p249
F0.01121503814021068
tp250
(Vdcisgoingtohell.com
p251
F0.010699820225692566
tp252
(Vdubiouscompany.com
p253
F0.008778554737132042
tp254
(Vushala.smackjeeves.com
p255
F0.007147921459680803
tp256
(Vtrue-magic.com
p257
F0.006756772051863651
tp258
(Veqcomics.com
p259
F0.004581133879620812
tp260
(Vteamheartgold.deviantart.com
p261
F0.0041985387859174265
tp262
(Veverblue-comic.com
p263
F0.004143634823308365
tp264
(Vforgottenordercomic.com
p265
F0.003456092237085129
tp266
(Vamyachronicles.com
p267
F0.0028932456769697056
tp268
(Vblackbird.ashen-ray.com
p269
F0.002813647717287217
tp270
(Vhttydireth-vespera.smackjeeves.com
p271
F0.0020531153005398485
tp272
(Vdigitalextremes.slack.com
p273
F0.0016468962340205
tp274
(Vblindsprings.com
p275
F0.001613013680589577
tp276
(Vteahousecomic.com
p277
F0.0013120810467020735
tp278
(Vgiginuzlocke.smackjeeves.com
p279
F0.0011640229070923036
tp280
(Vegscomics.com
p281
F0.0010893065517749412
tp282
tp283
s((S'msn.com'
p284
tp285
(ttp286
((Vsignout.live.com
p287
F0.15308963021388675
tp288
(Vbing.com
p289
F0.004617366223358805
tp290
(Vsearch.safefinder.com
p291
F0.0021814650029844426
tp292
(Vapps.facebook.com
p293
F0.0020435143826556114
tp294
(Vtrovi.com
p295
F0.0016986842333237284
tp296
(Vsearch.ask.com
p297
F0.0016746763184673106
tp298
(Vastromenda.com
p299
F0.0015774510251515713
tp300
(Vcr2.gogorithm.com
p301
F0.0011036373266521172
tp302
(Vfoxsports.com
p303
F0.0010602432824249944
tp304
(Vyahoo.com
p305
F0.0009974446200310605
tp306
(Vgroovorio.com
p307
F0.0009212692482627997
tp308
(Valh.gogorithm.com
p309
F0.0007715535537510396
tp310
(Vyahoo.co.jp
p311
F0.0006108892755620947
tp312
(Vgoogle.com
p313
F0.00046769580803432013
tp314
tp315
s((S'alpha27.com'
p316
tp317
(ttp318
(ts((S'.hdokiejnpimakedhajhdlcegeplioahd'
p319
tp320
(ttp321
(ts((S'beta7.com'
p322
tp323
(ttp324
(ts((S'nuclearsquid.com'
p325
tp326
(ttp327
((Vmolotang.com
p328
F0.025083419629501783
tp329
(Vcrucible.corp.appnexus.com
p330
F0.0014309814038058852
tp331
(Vanswers.perforce.com
p332
F0.000850176451716394
tp333
(Vruby-forum.com
p334
F0.00012045186657374666
tp335
(Vx.sankuai.com
p336
F7.04903956835881e-05
tp337
(Vpinboard.in
p338
F7.1203116432007166e-06
tp339
(Vtheverge.com
p340
F2.8217985580072086e-06
tp341
(Vsuperuser.com
p342
F1.8128071291828394e-06
tp343
(Vstackoverflow.com
p344
F7.170873291331439e-07
tp345
(V8tracks.com
p346
F4.5838400205375003e-07
tp347
(Vgoogle.com.ph
p348
F6.325116749043523e-08
tp349
(Vgithub.com
p350
F2.4893524466823384e-08
tp351
(Vgoogle.com
p352
F2.4395329918893198e-08
tp353
(Vmail.google.com
p354
F9.62054693148217e-09
tp355
(Vfacebook.com
p356
F3.2707786008337474e-10
tp357
tp358
s((S'penny-arcade.com'
p359
tp360
(ttp361
(ts((S'thecodeplayer.com'
p362
tp363
(ttp364
((Vcodeplayer.com
p365
F0.006169198538037966
tp366
(Vdespreneur.com
p367
F0.004002593201770517
tp368
(Vblog.snowflake.ch
p369
F0.0034497095075786085
tp370
(Vmlens.musings.it
p371
F0.003154407312513716
tp372
(Vwebtoolsdepot.com
p373
F0.0030697803528614543
tp374
(Vlandor.com
p375
F0.0029902913281551484
tp376
(Vfluxbb.org
p377
F0.002989062148686003
tp378
(Vbigplans.megaplan.ru
p379
F0.002977363688220863
tp380
(Vflong.com
p381
F0.002873431528005646
tp382
(Vcolours.neilorangepeel.com
p383
F0.0025789769227982464
tp384
(Vpixellest.com
p385
F0.0023572234584632317
tp386
(Vdesigngeekz.com
p387
F0.002349597914892342
tp388
(Vcodeplay.lc
p389
F0.0022500570031144997
tp390
(Vtwittstrap.com
p391
F0.00200535501032168
tp392
(Vc3scustomsock.staging.wpengine.com
p393
F0.001962648430280709
tp394
(Vterrytsang.com
p395
F0.0019232375106991502
tp396
(Vcsssrstart.slack.com
p397
F0.0018884694245712224
tp398
(Vcjbarrymores.com
p399
F0.0018867538106282864
tp400
(Vraclette-suisse.ch
p401
F0.0018163026461781647
tp402
(Vissues.telephony.com
p403
F0.0018051181660850568
tp404
tp405
s((S'gmail.com'
p406
tp407
(ttp408
((Vgoogle.co.in
p409
F0.002160747949931791
tp410
(Vreddit.com
p411
F0.0019094229668676123
tp412
(Vnetflix.com
p413
F0.0015143636335367562
tp414
(Vamazon.com
p415
F0.001114998532370577
tp416
(Vdropbox.com
p417
F0.0008313813311958971
tp418
(Ven.wikipedia.org
p419
F0.0008247348851858367
tp420
(Vpandora.com
p421
F0.0008159585716037036
tp422
(Vaccount.live.com
p423
F0.0007445104894934813
tp424
(Vfacebook.com
p425
F0.0007035519930853775
tp426
(Vstartpagina.nl
p427
F0.0004478025187472418
tp428
(Vlinkedin.com
p429
F0.00038762191829156073
tp430
(Vsoundcloud.com
p431
F0.00035534929141919615
tp432
(Vstackoverflow.com
p433
F0.000352430535378393
tp434
(Vtrovi.com
p435
F0.0003270559567248911
tp436
(Vbing.com
p437
F0.0003186797288942869
tp438
(Vsearch.safefinder.com
p439
F0.0003181670220008833
tp440
(Vhome.tb.ask.com
p441
F0.000309598054277362
tp442
tp443
s((S'walla.co'
p444
tp445
(ttp446
((Vmspowerpack.com
p447
F0.00042286056172976963
tp448
(Vmslworld.egged.co.il
p449
F4.631610521254681e-05
tp450
(Vsimplestoolbar.com
p451
F4.4748032871714525e-05
tp452
(Vlink4u.co.il
p453
F8.555601488820286e-06
tp454
(Vpanet.co.il
p455
F2.0687343820870316e-06
tp456
(Vgoogle.co.il
p457
F1.3330927104853262e-06
tp458
(Vsearches.vi-view.com
p459
F1.4813106299849904e-07
tp460
(Vxnxx.com
p461
F9.644941531802667e-08
tp462
(Vmysearch.avg.com
p463
F3.890298355709239e-08
tp464
(Visearch.omiga-plus.com
p465
F3.272544785429898e-08
tp466
(Vistart.webssearches.com
p467
F2.1441877890798774e-08
tp468
(Vtrovi.com
p469
F1.6677189871460833e-08
tp470
(Vsweet-page.com
p471
F1.3795853007327792e-08
tp472
(Vmystartsearch.com
p473
F1.0474484448833913e-08
tp474
(Vvk.com
p475
F5.105423590911466e-09
tp476
(Vyoutube.com
p477
F5.776359629362245e-10
tp478
tp479
s((S'diasp.eu'
p480
tp481
(ttp482
((Vcybette.com
p483
F0.02790506560906111
tp484
(Vd.consumium.org
p485
F0.008538320796909941
tp486
(Vkolabsys.com
p487
F0.005063497897014986
tp488
(Vproverochka.businesscatalyst.com
p489
F0.00446202210729135
tp490
(Vawable.imgur.com
p491
F0.004351204351204351
tp492
(Vfantasylife.nintendo.com
p493
F0.004010262386895224
tp494
(Vpodupti.me
p495
F0.0020148652279036445
tp496
(Vforum.sportenter.co.il
p497
F0.001306915155467928
tp498
(Vfreefotohelp.ru
p499
F0.0008028673835125448
tp500
(Vfuckyouverymuch.dk
p501
F0.0004181940984847102
tp502
(Vredbox.com
p503
F4.213100135421364e-05
tp504
(Vnypost.com
p505
F1.7682904543184476e-05
tp506
(Vbeforeitsnews.com
p507
F1.6786280627496154e-05
tp508
(Vnaturalnews.com
p509
F1.2519575881711194e-05
tp510
(Vrus.postimees.ee
p511
F8.37074626064608e-06
tp512
(Vinfowars.com
p513
F8.345739769065305e-06
tp514
(Vya.ru
p515
F4.903540471922245e-06
tp516
(Vello.co
p517
F1.0571140123657e-06
tp518
(Vvimeo.com
p519
F7.446324075200837e-07
tp520
(Vwordpress.com
p521
F5.822044442670433e-07
tp522
tp523
s((S'nasa.gov'
p524
tp525
(ttp526
((Vnasa.jerusalem.com
p527
F0.0034835518377293096
tp528
(Vspaceweather.com
p529
F0.0033475442840786474
tp530
(Vspace.com
p531
F0.002945265177369104
tp532
(Vswpc.noaa.gov
p533
F0.002494603391767854
tp534
(Vesa.int
p535
F0.001361835042951779
tp536
(Vwhat-if.xkcd.com
p537
F0.0012732149429607702
tp538
(Vciclops.org
p539
F0.0012026940365659103
tp540
(Vcoasttocoastam.com
p541
F0.0011265697014438598
tp542
(Vmarssociety.de
p543
F0.00112391909362521
tp544
(Vweb.taskcracker.com
p545
F0.001026107590113099
tp546
(Vbibobuzz.com
p547
F0.0009696968425407064
tp548
(Vnanowerk.com
p549
F0.0008919591961055805
tp550
(Vbarnstormers.com
p551
F0.000739077425229431
tp552
(Vepod.usra.edu
p553
F0.000649929188302291
tp554
(Vroshihogan.blogspot.com
p555
F0.0006483939270824397
tp556
(Vsolarham.net
p557
F0.0006229008473932558
tp558
(Vharztourist.de
p559
F0.0005347227582500918
tp560
(Vgoehren-ruegen.de
p561
F0.0004998782773573379
tp562
(Vstats.mutu.sivit.org
p563
F0.0004962087088050525
tp564
tp565
s((S'sivers.org'
p566
tp567
(ttp568
((Vexamine.com
p569
F0.007219883173093456
tp570
(Vuwitechnology.com
p571
F0.006839846558005141
tp572
(Vtruefilms.com
p573
F0.0034328335396701663
tp574
(Vsitebeam.net
p575
F0.0032794691752359648
tp576
(Vdocs.withdraft.com
p577
F0.0030549495715956874
tp578
(Vmynavigatorweb.nl
p579
F0.0028599137643591107
tp580
(Vsingapore.recruit.net
p581
F0.0025840897233237402
tp582
(Vmarketplaceleaders.org
p583
F0.0025240834176874162
tp584
(Vblog.placeit.net
p585
F0.0020766650167739096
tp586
(Vkairosbio.com
p587
F0.0019437477085309572
tp588
(Vcenteroftheweb.com
p589
F0.0019412848515847046
tp590
(Valytadros.com
p591
F0.001937933895566251
tp592
(Vfullstackacademy.slack.com
p593
F0.0018748035385513495
tp594
(Vrailstutorial.org
p595
F0.0018368225687322617
tp596
(Vlintool.github.io
p597
F0.0018285739313244568
tp598
(Vhiretheworld.com
p599
F0.0018284838365313551
tp600
(Vadvancedlifeskills.com
p601
F0.0017834354092023132
tp602
(Vballcharts.com
p603
F0.0017386913484488426
tp604
(Vci.appveyor.com
p605
F0.001590201798643241
tp606
(Vblog.zackshapiro.com
p607
F0.0014996575814189902
tp608
tp609
s((S'mako.co.il'
p610
tp611
(ttp612
((Vynet.co.il
p613
F0.011501648380391862
tp614
(Vwalla.co.il
p615
F0.00755377749758904
tp616
(Vsport5.co.il
p617
F0.006583331507016732
tp618
(Vone.co.il
p619
F0.0059019222903439065
tp620
(Vnrg.co.il
p621
F0.005228495987774255
tp622
(V10tv.nana10.co.il
p623
F0.004148038854238269
tp624
(Vhaaretz.co.il
p625
F0.003253005553176228
tp626
(Vreshet.tv
p627
F0.002500336501581295
tp628
(Vnana10.co.il
p629
F0.0022548316724417413
tp630
(Vcalcalist.co.il
p631
F0.0018417326869460925
tp632
(Vrotter.net
p633
F0.0017081143185362219
tp634
(Vsdarot.tv
p635
F0.001147891993212563
tp636
(Vbeitar-jerusalem.net
p637
F0.0009314917537399742
tp638
(Vglobes.co.il
p639
F0.0008028600928230333
tp640
tp641
s((S'happyassassin.net'
p642
tp643
(ttp644
((Vmndm.gov.on.ca
p645
F0.04298894933263563
tp646
(Veriberto.pro.br
p647
F0.01202062754212667
tp648
(Vblog.hansenpartnership.com
p649
F0.011842526405633201
tp650
(Vcalm.aber.ac.uk
p651
F0.011433569710412046
tp652
(Vbugs.freedesktop.org
p653
F0.0009542923479526986
tp654
(Vsandboxie.com
p655
F0.0007907844422448724
tp656
(Vmanyland.com
p657
F0.0007040551653256227
tp658
(Vmarc.info
p659
F0.0005867879121690093
tp660
(Vforums.opensuse.org
p661
F0.0005194968302130223
tp662
(Veeti.com.tw
p663
F0.0005194955121359924
tp664
(Vimaginecup.com
p665
F0.0003215762268482594
tp666
(V4sysops.com
p667
F0.00014510480483848856
tp668
(Vanimeultima.tv
p669
F0.0001281134603127242
tp670
(Vthomas-krenn.com
p671
F7.921381869224323e-05
tp672
(Vjustinguitar.com
p673
F6.288087035151911e-05
tp674
(Vcomputer.howstuffworks.com
p675
F2.4267097954854636e-05
tp676
(Vcompileonline.com
p677
F2.3703323624266067e-05
tp678
(Vsevenforums.com
p679
F2.367194472127469e-06
tp680
(Vtechnet.microsoft.com
p681
F2.1155661906668695e-06
tp682
(Vaccounts.google.com
p683
F1.3084216140549257e-07
tp684
tp685
s((S'alpha6.com'
p686
tp687
(ttp688
(ts((S'apple.com'
p689
tp690
(ttp691
(ts((S'extracheese.org'
p692
tp693
(ttp694
(ts((S'alpha37.com'
p695
tp696
(ttp697
(ts((S'microsoftonline.com'
p698
tp699
(ttp700
((Voutlook.office365.com
p701
F0.024347605660153537
tp702
(Vportal.office.com
p703
F0.011690434932379782
tp704
(Vemail.osu.edu
p705
F0.006910995116528097
tp706
(Vmicorreo.utch.edu.co
p707
F0.004660257010817195
tp708
(Vpod51034.outlook.com
p709
F0.0035024387091754116
tp710
(Vextranet.cst.ucf.edu
p711
F0.002850235653695134
tp712
(Vpod51036.outlook.com
p713
F0.0023747886761452605
tp714
(Vonedrive.live.com
p715
F0.0020998770637864705
tp716
(Vcygnus.cc.kuleuven.be
p717
F0.0015074970028902178
tp718
(Vcorreo.ulpgc.es
p719
F0.0014246748936958325
tp720
(Vpod51035.outlook.com
p721
F0.0013341279960284724
tp722
(Vportal.unitec.edu
p723
F0.0007402917339882808
tp724
(Vmyoffice.bt.com
p725
F0.0007339432560181329
tp726
(Vmicorreo.javeriana.edu.co
p727
F0.000595836499246719
tp728
(Vcocorou.jp
p729
F0.0005824237235714597
tp730
(Vintranet.upc.edu.pe
p731
F0.0005785024765138494
tp732
tp733
s((S'alpha10.com'
p734
tp735
(ttp736
(ts((S'tvtropes.org'
p737
tp738
(ttp739
((Vdarthsanddroids.net
p740
F0.001500247463499134
tp741
(Vbrianspage.com
p742
F0.001190719319934098
tp743
(Vtvsinopse.kinghost.net
p744
F0.0007400792503836695
tp745
(Vthatguywiththeglasses.com
p746
F0.0005833013882610892
tp747
(Vgingasite.net
p748
F0.000501607122821144
tp749
(Vforums.spacebattles.com
p750
F0.00048495945186655885
tp751
(Vknowyourmeme.com
p752
F0.00046413679362313165
tp753
(Vsomethingawful.com
p754
F0.00041006250033043837
tp755
(Vecchi-anime.blogspot.com
p756
F0.0003929467804378441
tp757
(Vthe-editing-room.com
p758
F0.0003602536513208618
tp759
(Vcrystalhall.org
p760
F0.0003559825488437577
tp761
(Vhentai2read.com
p762
F0.0003398529854742772
tp763
(V16personalities.com
p764
F0.0003332813271432821
tp765
(Vanimenewsnetwork.co.uk
p766
F0.00027232622901355853
tp767
(Vparahumans.wordpress.com
p768
F0.00021676107587459498
tp769
(Vlesbolution.tumblr.com
p770
F0.0002133517961502453
tp771
(Vrpol.net
p772
F0.00021168773843842435
tp773
(V1d4chan.org
p774
F0.00020931403545750485
tp775
(Vjellyneo.net
p776
F0.00020794189731850084
tp777
(Vlddb.com
p778
F0.00020783572379088003
tp779
tp780
s((S'weibo.com'
p781
tp782
(ttp783
((Vdouban.com
p784
F0.010033428455514418
tp785
(Vrenren.com
p786
F0.009045850353562254
tp787
(Vt.sina.com.cn
p788
F0.006880941836228743
tp789
(Vtw.yahoo.com
p790
F0.005802552902936697
tp791
(Vzhihu.com
p792
F0.005182165066233723
tp793
(Vuser.qzone.qq.com
p794
F0.0048495719265918185
tp795
(Vcnbeta.com
p796
F0.004668699257089632
tp797
(Vtieba.baidu.com
p798
F0.003849861965094919
tp799
(Vbilibili.com
p800
F0.003729730318029248
tp801
(Vbbs.hupu.com
p802
F0.00204170365397691
tp803
(Vxiami.com
p804
F0.0009027472940131179
tp805
tp806
s((S'abc.com'
p807
tp808
(ttp809
((Vmeetabsolut.com
p810
F0.0031955386784506094
tp811
(Vopen.discuz.net
p812
F0.0028337582997703895
tp813
(Vyazhou.tmall.com
p814
F0.002802578453825836
tp815
(Vlakeb2b.com
p816
F0.0025841774127784573
tp817
(Vcms.abcdmedia.com
p818
F0.001587606989071278
tp819
(Vapp.abcnews.go.com
p820
F0.0015192742210007107
tp821
(Vabcjira.disney.com
p822
F0.0012591874858150457
tp823
(Vmodernfamily.com
p824
F0.0012107782345300523
tp825
(Vbig-daddy.foodtecsolutions.com
p826
F0.0012037987465471631
tp827
(Vriplbugzilla.ripl.ricoh.com
p828
F0.0011962024684307715
tp829
(Vqa.api.watchabc.go.com
p830
F0.0011943870020886247
tp831
(Vapi.bleacherreport.com
p832
F0.001171328635838596
tp833
(Vrampholdings.basecamphq.com
p834
F0.0008524808967788638
tp835
(Vsecure.mashery.com
p836
F0.0008438503781991504
tp837
(Vlimelight.service-now.com
p838
F0.0007969756363028618
tp839
(Vdatamapper.com
p840
F0.0007877611733532446
tp841
(Vabcjira.corp.dig.com
p842
F0.0007119620105955248
tp843
(Vkimkardashian.celebuzz.com
p844
F0.0006931630338676814
tp845
(Vecl.ecyber.com
p846
F0.0006539975303919972
tp847
(Vcolliers.ivivacloud.com
p848
F0.0006473558318697716
tp849
tp850
s((S'codemiles.com'
p851
tp852
(ttp853
((Vcandidjava.com
p854
F0.00555303145035085
tp855
(Vanirudh.net
p856
F0.003933383546740313
tp857
(Vrajasthanimusic.blogspot.in
p858
F0.002901147659883101
tp859
(Vhikeyourskills.blogspot.in
p860
F0.002823099597293146
tp861
(Vjavascript.about.com
p862
F0.0008275234292570908
tp863
(Vodessa.tv
p864
F0.0007948766586275733
tp865
(Vjava-examples.com
p866
F0.0007305135510263716
tp867
(Vwebreference.com
p868
F0.000664298518512884
tp869
(Velectrofriends.com
p870
F0.0005428881650380022
tp871
(Ven.pudn.com
p872
F0.000377935250798944
tp873
(Vmathworks.in
p874
F0.00035664545016725894
tp875
(Vroseindia.net
p876
F0.00023504362133089994
tp877
(Vtalkera.org
p878
F0.0002318840579710145
tp879
(Vivaynberg.github.io
p880
F0.00010179484673767876
tp881
(Vtranslate.google.co.in
p882
F1.4364388726789423e-06
tp883
(Vwordpress.org
p884
F7.902774004861755e-07
tp885
(Vbing.com
p886
F3.6619674782068587e-07
tp887
(Vgoogle.co.in
p888
F8.654867195286331e-08
tp889
(Vsearch.yahoo.com
p890
F1.061022342013635e-08
tp891
tp892
s((S'alpha36.com'
p893
tp894
(ttp895
(ts((S'specificmedia.com'
p896
tp897
(ttp898
((Vbeads.com
p899
F0.021363023057459657
tp900
(Vdashboard.smartclip.net
p901
F0.013864706261688271
tp902
(Vshop.surftech.com
p903
F0.011433198576288802
tp904
(Vmd-perf.fr
p905
F0.007154568986325085
tp906
(Vvox.myvindico.com
p907
F0.006954728523383112
tp908
(Vthemoneytizer.com
p909
F0.006210892729229304
tp910
(Vradiumone.com
p911
F0.004755053055868625
tp912
(Vpubmatic.com
p913
F0.0038626417971585818
tp914
(Vsonobi.com
p915
F0.003744923520228109
tp916
(Vdash.saymedia.com
p917
F0.003332725054985161
tp918
(Vlift.openx.com
p919
F0.002574935889351326
tp920
(Vrainbowaspirins.deviantart.com
p921
F0.0021626520292884876
tp922
(Vonesourcehrsolutions.com
p923
F0.0021504055050380927
tp924
(Vcs.iupui.edu
p925
F0.0021502552714554564
tp926
(V4musclemen.com
p927
F0.002036778398510242
tp928
(Vteachushistory.org
p929
F0.0020350710578977715
tp930
(Vskinected.com
p931
F0.0020127088185399235
tp932
(Vvindico.com
p933
F0.001944696534735984
tp934
(Vpub.tlvmedia.com
p935
F0.0016838661566957736
tp936
(Vsfx.stickyadstv.com
p937
F0.0016288757388475915
tp938
tp939
s((S'sixrevisions.com'
p940
tp941
(ttp942
((Vforum.hangarnet.com.br
p943
F0.004522612841241663
tp944
(Viconpaper.org
p945
F0.004388601429190374
tp946
(Vpanosfx.com
p947
F0.003981522100667729
tp948
(Vliptonicetea.com
p949
F0.0039197345769073555
tp950
(Vtiny.cc
p951
F0.003371601640395747
tp952
(Vbohemian.curated.co
p953
F0.003326202922179347
tp954
(Vnoupe.com
p955
F0.002781459432749324
tp956
(Vvle-project.org
p957
F0.002767415707556039
tp958
(Vsixrevision.com
p959
F0.0022085172602788606
tp960
(Vbusiness.tutsplus.com
p961
F0.0017757417437201713
tp962
(Vforum.weavertheme.com
p963
F0.0015203455783372938
tp964
(Vtvgratishd.blogspot.com
p965
F0.0015013110572595332
tp966
(Vinflexwetrust.com
p967
F0.0012838767727523452
tp968
(Vsixminutes.dlugan.com
p969
F0.001239579333077317
tp970
(Vtricias-captions.tumblr.com
p971
F0.0012110202845897668
tp972
(Vsiteexplorer.info
p973
F0.0010857132729947228
tp974
(Vcommonplaces.com
p975
F0.0010758741477450429
tp976
(Vmongodbspain.com
p977
F0.0010698474333738655
tp978
(Vlanzateya.com
p979
F0.0010386067653343092
tp980
(Vfleischlust.com
p981
F0.0009746657118920917
tp982
tp983
s((S'dropbox.com'
p984
tp985
(ttp986
((Vapp.box.com
p987
F0.0013404739791132872
tp988
(Vonedrive.live.com
p989
F0.0013325521252906328
tp990
(Vmail.google.com
p991
F0.0012791638643396106
tp992
(Vwetransfer.com
p993
F0.0012718690578820595
tp994
(Vdl.dropboxusercontent.com
p995
F0.001113213379752746
tp996
(Vbasecamp.com
p997
F0.0009847477842498521
tp998
(Vevernote.com
p999
F0.000911169342945063
tp1000
(Vtrello.com
p1001
F0.0007707266331317271
tp1002
(Vgoo.gl
p1003
F0.0005643067133763446
tp1004
(Vapp.asana.com
p1005
F0.0003447113809095475
tp1006
(Vpastebin.com
p1007
F0.0002867605076989273
tp1008
(Vbit.ly
p1009
F0.00028238188059720985
tp1010
(Vdb.tt
p1011
F0.00024846578865390364
tp1012
(Vodesk.com
p1013
F0.00023057830681953457
tp1014
tp1015
s((S'docks.com'
p1016
tp1017
(ttp1018
((Vnew-startups.com
p1019
F0.0011150896408172368
tp1020
(Vimei.info
p1021
F0.00013258549617717544
tp1022
(Vdocs.com
p1023
F0.00011210307582814303
tp1024
tp1025
s((S'bbc.co.uk'
p1026
tp1027
(ttp1028
((Vtheguardian.com
p1029
F0.005088657297280494
tp1030
(Vgoogle.co.uk
p1031
F0.0048885746025793785
tp1032
(Vdailymail.co.uk
p1033
F0.0039057337262425624
tp1034
(Vitv.com
p1035
F0.003679825184559333
tp1036
(Vchannel4.com
p1037
F0.0033050800389549597
tp1038
(Vradiofarda.com
p1039
F0.0027556011474314124
tp1040
(Vamazon.co.uk
p1041
F0.002622046319871563
tp1042
(Vbbcpersian.com
p1043
F0.0023148103512629077
tp1044
(Vhotukdeals.com
p1045
F0.001549231478388807
tp1046
(Vwww1.skysports.com
p1047
F0.001469809432519245
tp1048
(Vuk.search.yahoo.com
p1049
F0.0008524752807078012
tp1050
(Vebay.co.uk
p1051
F0.0006278903848877499
tp1052
tp1053
s((S'cappuccino-project.org'
p1054
tp1055
(ttp1056
(ts((S'astralapp.com'
p1057
tp1058
(ttp1059
(ts((S'w3schools.com'
p1060
tp1061
(ttp1062
((Vw3school.com
p1063
F0.011502063248230303
tp1064
(Vinfo343.ischool.uw.edu
p1065
F0.00222680914685972
tp1066
(Vhackthissite.org
p1067
F0.0020351576929919703
tp1068
(Vw3.org
p1069
F0.0016574297507289558
tp1070
(Vkb.iu.edu
p1071
F0.0013406884083077707
tp1072
(Vspidermarks.com
p1073
F0.0011385526915260464
tp1074
(Vtutorialspoint.com
p1075
F0.0009175821542880868
tp1076
(Vpicoctf.com
p1077
F0.0004549384568337717
tp1078
(Vw3shools.com
p1079
F0.00037857890125446626
tp1080
(Vapi.jquery.com
p1081
F0.0003059480826287719
tp1082
(Vmarianocalvo.com
p1083
F0.0002950192275021
tp1084
(Vprofit.notice.nl
p1085
F0.00028931787484113804
tp1086
(Vinsight.ccsf.edu
p1087
F0.00027594889236203874
tp1088
(Vxps.pk4labs.com
p1089
F0.0002748864938891834
tp1090
(Vtoster.ru
p1091
F0.00025806812375980776
tp1092
(Vkarlstads.itslearning.com
p1093
F0.00022547500963902747
tp1094
(Vhtmlgoodies.com
p1095
F0.00021626982800444284
tp1096
tp1097
s((S'surrey.ac.uk'
p1098
tp1099
(ttp1100
((Vpod51031.outlook.com
p1101
F0.0017963586262663706
tp1102
(Vexchange.uml.edu
p1103
F0.0016144286007902184
tp1104
(Vproximity.instructure.com
p1105
F0.0015774356511539845
tp1106
(Vexchange.ict.usc.edu
p1107
F0.0015382841826919614
tp1108
(Vsavingcountrymusic.com
p1109
F0.0014328752846817757
tp1110
(Vkaggle.com
p1111
F0.001367232926914554
tp1112
(Vussu.co.uk
p1113
F0.0012484564641502206
tp1114
(Vsurrey.summon.serialssolutions.com
p1115
F0.0012332027866896894
tp1116
(Vthecompleteuniversityguide.co.uk
p1117
F0.0009841707655122726
tp1118
(Vuppmax.uu.se
p1119
F0.0009450092846242944
tp1120
(Vsurrey-uk.sona-systems.com
p1121
F0.0008319067088646201
tp1122
(Vukeas.com.tw
p1123
F0.0007918761171179304
tp1124
(Vlms.neumont.edu
p1125
F0.0007807936079197472
tp1126
(Vunitemps.com
p1127
F0.0007186507649313663
tp1128
(Vbda.uk.com
p1129
F0.0007096719081631982
tp1130
(Vcreativeplusonline.co.uk
p1131
F0.0006779957155228734
tp1132
(Vcancercentrelondon.co.uk
p1133
F0.0006776894018489342
tp1134
(Vgradintel.com
p1135
F0.0006630566913471102
tp1136
(Vprogramsinformationpeople.org
p1137
F0.0005993082113115775
tp1138
(Vemeraldinsight.com
p1139
F0.0005816681288147595
tp1140
tp1141
s((S'openstreetmap.org'
p1142
tp1143
(ttp1144
((Vmapbox.com
p1145
F0.021196561785209494
tp1146
(Vosm.org
p1147
F0.011739297739621646
tp1148
(Vdb-ip.com
p1149
F0.005607479423728669
tp1150
(Vstrassenweb.de
p1151
F0.003894011651161109
tp1152
(Vtools.wmflabs.org
p1153
F0.0025508034046964616
tp1154
(Vwegenforum.nl
p1155
F0.0023961384137083396
tp1156
(Vnelligandecouverte.ville.montreal.qc.ca
p1157
F0.001953534513151351
tp1158
(Vopenstreetmaps.org
p1159
F0.0016612734658339586
tp1160
(Varalbalkan.com
p1161
F0.0009930839030590363
tp1162
(Vwww-sbhome1.zv.uni-wuerzburg.de
p1163
F0.0009854903526855259
tp1164
(Vpanel.tarnow.net.pl
p1165
F0.0007606818821133027
tp1166
(Vadmin.parkme.com
p1167
F0.0007178456247658487
tp1168
(Vcarusocarsharing.com
p1169
F0.0006785000899689888
tp1170
(Vgeonb.maps.arcgis.com
p1171
F0.000641733324419534
tp1172
(Vcheckautopista.hol.es
p1173
F0.0005699729683061412
tp1174
(Vdownload.geofabrik.de
p1175
F0.0005104228163391527
tp1176
(Vgpsies.com
p1177
F0.0004712365359216927
tp1178
tp1179
s((S'iosreviews.net'
p1180
tp1181
(ttp1182
((Vfilter.usd262.net
p1183
F0.0006673834859664083
tp1184
(Va3.mzstatic.com
p1185
F7.803355442840422e-05
tp1186
(Vappszoom.com
p1187
F2.7909670351906058e-05
tp1188
(Vvimeo.com
p1189
F4.509971547090617e-07
tp1190
(Vgoogle.com.my
p1191
F1.679023567040801e-07
tp1192
(Vencrypted.google.com
p1193
F1.581442718563291e-07
tp1194
(Vduckduckgo.com
p1195
F1.2340433203180587e-07
tp1196
(Vtwitch.tv
p1197
F6.699834316704951e-08
tp1198
(Vgoogle.com
p1199
F1.7100833862031203e-08
tp1200
tp1201
s((S'rubybestpractices.com'
p1202
tp1203
(ttp1204
(ts((S'go.com'
p1205
tp1206
(ttp1207
((Vespn.com
p1208
F0.03337306687118324
tp1209
(Vfootball.fantasysports.yahoo.com
p1210
F0.010176270463325858
tp1211
(Vnfl.com
p1212
F0.005620442665917183
tp1213
(Vbleacherreport.com
p1214
F0.0048811694849818545
tp1215
(Vcnn.com
p1216
F0.004507170523292394
tp1217
(Vrotoworld.com
p1218
F0.0042525769570422286
tp1219
(Vgrantland.com
p1220
F0.003965767010999959
tp1221
(Vdeadspin.com
p1222
F0.0037644745110197914
tp1223
(Vsi.com
p1224
F0.0018620011178298748
tp1225
(Vfoxnews.com
p1226
F0.0010016589832202306
tp1227
(Vnba.com
p1228
F0.0009297104408698922
tp1229
(Vcbssports.com
p1230
F0.0006828488904430898
tp1231
(Vreddit.com
p1232
F0.0006801618387432771
tp1233
tp1234
s((S'foxnews.com'
p1235
tp1236
(ttp1237
((Vdrudgereport.com
p1238
F0.014360589861415066
tp1239
(Vcnn.com
p1240
F0.010518728636185193
tp1241
(Vtheblaze.com
p1242
F0.004058442954851873
tp1243
(Vbreitbart.com
p1244
F0.003415615440433281
tp1245
(Vnbcnews.com
p1246
F0.003150060881601181
tp1247
(Vabcnews.go.com
p1248
F0.0025567798987414
tp1249
(Vusatoday.com
p1250
F0.00223799452308463
tp1251
(Vmsnbc.com
p1252
F0.0021865160095570365
tp1253
(Vcbsnews.com
p1254
F0.0021443860654524137
tp1255
(Vksl.com
p1256
F0.0013886712691915922
tp1257
(Vmy.yahoo.com
p1258
F0.0006859318677808678
tp1259
tp1260
s((S'readthedocs.org'
p1261
tp1262
(ttp1263
((Vpypi.python.org
p1264
F0.026089668216928447
tp1265
(Vhighlightjs.org
p1266
F0.01535948261085121
tp1267
(Vsublime.wbond.net
p1268
F0.014327829700159037
tp1269
(Vdocs.djangoproject.com
p1270
F0.010121020417527507
tp1271
(Vpythonhosted.org
p1272
F0.00487503259271451
tp1273
(Vpayplug.fr
p1274
F0.004101896504534612
tp1275
(Vgithub.com
p1276
F0.0034092001796401194
tp1277
(Vdjangopackages.com
p1278
F0.002420294612928265
tp1279
(Vbitbucket.org
p1280
F0.0012239493506668588
tp1281
(Vsource.opennews.org
p1282
F0.0006405103104172375
tp1283
(Vforge.puppetlabs.com
p1284
F0.000604560944942585
tp1285
(Vrapidsms.org
p1286
F0.0005515309123225041
tp1287
(Vsyncany.org
p1288
F0.00047629531326776487
tp1289
tp1290
s((S'bycontext.com'
p1291
tp1292
(ttp1293
(ts((S'regexper.com'
p1294
tp1295
(ttp1296
((Vstats.wefra.de
p1297
F0.01654884318766067
tp1298
(Vservices.balihoo.com
p1299
F0.011492809144005528
tp1300
(Virchelp.org
p1301
F0.009514896272032445
tp1302
(Vbalihoo.wikispaces.com
p1303
F0.008600634473034897
tp1304
(Vconfig.whatsapp.net
p1305
F0.008235261768587769
tp1306
(Vope.comlocal.com
p1307
F0.0054417942296446095
tp1308
(Vex-parrot.com
p1309
F0.005244206124024955
tp1310
(Vscriptular.com
p1311
F0.004299777068208656
tp1312
(Vquovo.slack.com
p1313
F0.004205529280171921
tp1314
(Vslant.co
p1315
F0.004089682490907161
tp1316
(Vifconfig.me
p1317
F0.003823109724905924
tp1318
(Vjex.im
p1319
F0.003593484437396034
tp1320
(Vregexpal.com
p1321
F0.003533949522620317
tp1322
(Vredmine.nokaut.pl
p1323
F0.003469110832330577
tp1324
(Vmyezapp.com
p1325
F0.0033483126266631424
tp1326
(Vosslab.msopentech.cn
p1327
F0.003287199672690848
tp1328
(Vregexcrossword.com
p1329
F0.0032797965438917417
tp1330
(Vflockhart.virtualave.net
p1331
F0.003141157502640796
tp1332
(Vww1.regexp.com
p1333
F0.0030955896640652257
tp1334
(Vwisepilgrim.tk
p1335
F0.0027548002769799186
tp1336
tp1337
s((S'lachainemeteo.com'
p1338
tp1339
(ttp1340
((Vmeteofrance.com
p1341
F0.0075587711547478635
tp1342
(Vmeteociel.fr
p1343
F0.006006151192205198
tp1344
(Vmeteo60.fr
p1345
F0.0034965202012868604
tp1346
(Vta-meteo.fr
p1347
F0.0033475312471654625
tp1348
(Vprevimeteo.com
p1349
F0.0029446393665404007
tp1350
(Vasiaflash.com
p1351
F0.002483790461450803
tp1352
(Vpleinchamp.com
p1353
F0.0024655505297938806
tp1354
(Vmeteosuisse.admin.ch
p1355
F0.0023087805637160255
tp1356
(Vtameteo.com
p1357
F0.0018151365845525743
tp1358
(Vmeteoconsult.fr
p1359
F0.0015009647542236712
tp1360
(Vpaysdefayence.blogspot.fr
p1361
F0.0008376001163114655
tp1362
(Vwebmail.orange.lu
p1363
F0.0007312643621048468
tp1364
(Vmeteo.msn.com
p1365
F0.0006733849861055666
tp1366
tp1367
s((S'foobar2000.org'
p1368
tp1369
(ttp1370
((Vxiph.org
p1371
F0.012560316380569403
tp1372
(Vchromium.woolyss.com
p1373
F0.00955818180112687
tp1374
(Vnnc-board.com
p1375
F0.008407273052412243
tp1376
(Vseriosoft.org
p1377
F0.00812328805121656
tp1378
(Vifi-audio.com
p1379
F0.00682673706152465
tp1380
(Vthalassa.feralhosting.com
p1381
F0.006206348719177406
tp1382
(Vexactaudiocopy.de
p1383
F0.0059219804079789435
tp1384
(Vhydrogenaud.io
p1385
F0.004881531371685709
tp1386
(Vsrware.net
p1387
F0.0038989963128243216
tp1388
(Vopen-end-music.de
p1389
F0.0028752770792993695
tp1390
(Vforum.pskovonline.ru
p1391
F0.002540252362730567
tp1392
(Vforum.hdmovie.vn
p1393
F0.0019178192491957236
tp1394
(Vmassengeschmack.tv
p1395
F0.0017078779488777472
tp1396
(Vforums.ffshrine.org
p1397
F0.001649445296546487
tp1398
(Vsmsserver.itouchnet.co.za
p1399
F0.0015547791300949707
tp1400
(Vburrrn.net
p1401
F0.0013273025950887873
tp1402
(Vjenny317.pixnet.net
p1403
F0.0010201545082112753
tp1404
(V10file.com
p1405
F0.0009778273268755075
tp1406
tp1407
s((S't.co'
p1408
tp1409
(ttp1410
((Vtwitter.com
p1411
F0.01662514245459643
tp1412
(Vnetshaker.co.uk
p1413
F0.005702748047539814
tp1414
(Vovermanforum.com
p1415
F0.005168993771333038
tp1416
(Vvidshaker.com
p1417
F0.004333940142822799
tp1418
(Vhootsuite.com
p1419
F0.002525967849609657
tp1420
(Vpravda.com.ua
p1421
F0.0021821462081275064
tp1422
(Vlinkonym.appspot.com
p1423
F0.00116419829102206
tp1424
(Vnirist.com
p1425
F0.0007631574786724346
tp1426
(Vshortp.com
p1427
F0.0007615519848983666
tp1428
(Vyoutoo.be
p1429
F0.0004364089663812316
tp1430
(Vru.4game.com
p1431
F0.00023765488762786773
tp1432
(Vdiym.ag
p1433
F0.00022602564113454292
tp1434
(Vdl.dropboxusercontent.com
p1435
F0.00018622810739933932
tp1436
tp1437
s((S'netdna-ssl.com'
p1438
tp1439
(ttp1440
((Vservermat.info
p1441
F0.015230253887760331
tp1442
(Vfinedininglovers.com
p1443
F0.007828688392923909
tp1444
(Vblog.myfitnesspal.com
p1445
F0.006571678856628307
tp1446
(Vvisual.ly
p1447
F0.005523052877933682
tp1448
(Vredrow.co.uk
p1449
F0.0054794740749505135
tp1450
(Vgrainandmortar.com
p1451
F0.005173594116386273
tp1452
(Vskillsera.com
p1453
F0.004438460562360511
tp1454
(Vblank-box.net
p1455
F0.003202477829561559
tp1456
(Vkls-ukraine.com.ua
p1457
F0.0026298015359082477
tp1458
(Vfinerthings.in
p1459
F0.002208584819772735
tp1460
(Vhostedcloudy.com
p1461
F0.001929990552717578
tp1462
(Vzino.im
p1463
F0.0017095925364803445
tp1464
(Vsram.com
p1465
F0.0015705995916889095
tp1466
(Vs1magnettvcom.maynemyltf.netdna-cdn.com
p1467
F0.0013414146062946583
tp1468
(Vhomepath.com
p1469
F0.0010985648416592306
tp1470
(Vagents.equator.com
p1471
F0.000992105542015471
tp1472
(Vnewhdplugin.net
p1473
F0.0006650805674776797
tp1474
(Virvsluggage.com
p1475
F0.0006295881279719576
tp1476
(Vcool-tv.net
p1477
F0.0006268836631248746
tp1478
(Vbettielou.blogspot.com
p1479
F0.0005037569778605635
tp1480
tp1481
s((S'jpost.com'
p1482
tp1483
(ttp1484
((Vynetnews.com
p1485
F0.019729727580260547
tp1486
(Vtimesofisrael.com
p1487
F0.013226876605111307
tp1488
(Visraelnationalnews.com
p1489
F0.013208827532433675
tp1490
(Vhaaretz.com
p1491
F0.012848252060918228
tp1492
(Vdebka.com
p1493
F0.004871516997591442
tp1494
(Vtheyeshivaworld.com
p1495
F0.003525657873832931
tp1496
(Vhealthboards.com
p1497
F0.0021055161036497515
tp1498
(Vamerica.aljazeera.com
p1499
F0.0016146935179485093
tp1500
(Vforward.com
p1501
F0.0012287918863554067
tp1502
(Vjewishpress.com
p1503
F0.0009656112404776759
tp1504
(Vshawconnect.ca
p1505
F0.0008451680311466095
tp1506
(Vdagelijksestandaard.nl
p1507
F0.0006645158426549159
tp1508
(Vhealthplexus.net
p1509
F0.0006096268993029301
tp1510
(Vcopsplus.com
p1511
F0.0005756633899756009
tp1512
(Vmail.uncw.edu
p1513
F0.0005636696948299835
tp1514
(Vfreewarefiles.com
p1515
F0.0004879262444597728
tp1516
tp1517
s((S'alpha12.com'
p1518
tp1519
(ttp1520
(ts((S'wikipedia.org'
p1521
tp1522
(ttp1523
((Vencrypted.google.com
p1524
F0.00771525505585607
tp1525
(Vbing.com
p1526
F0.004811910265206266
tp1527
(Vanswers.yahoo.com
p1528
F0.003100154798136046
tp1529
(Vsearch.disconnect.me
p1530
F0.0027486073979923428
tp1531
(Vprinceton.edu
p1532
F0.002546492596888385
tp1533
(Vimdb.com
p1534
F0.0020199007621722297
tp1535
(Vboards.4chan.org
p1536
F0.0011714401370427696
tp1537
(Veksisozluk.com
p1538
F0.001109914847106986
tp1539
(Vduckduckgo.com
p1540
F0.0010408949383171428
tp1541
(Vreddit.com
p1542
F0.000775024669043505
tp1543
(Vwen.lu
p1544
F0.0007574262961416565
tp1545
(Vraterhub.com
p1546
F0.00044425107955377627
tp1547
(Vbaike.baidu.com
p1548
F0.00035421615396662187
tp1549
tp1550
s((S'theenchanter.com'
p1551
tp1552
(ttp1553
(ts((S'mashable.com'
p1554
tp1555
(ttp1556
((Vtechcrunch.com
p1557
F0.003269554441150279
tp1558
(Vthenextweb.com
p1559
F0.0020893059576553882
tp1560
(Vtheverge.com
p1561
F0.0011964644051488723
tp1562
(Vengadget.com
p1563
F0.0011541180149668715
tp1564
(Vwired.com
p1565
F0.0010062199169788152
tp1566
(Vt.co
p1567
F0.001000532665223137
tp1568
(Vgizmodo.com
p1569
F0.0008873288390789227
tp1570
(Vbusinessinsider.com
p1571
F0.0007152040206950399
tp1572
(Vdigg.com
p1573
F0.0005093257403694798
tp1574
(Vmacrumors.com
p1575
F0.00048813763950878304
tp1576
(Vfastcompany.com
p1577
F0.0004186323234047929
tp1578
(Varstechnica.com
p1579
F0.00036950639928100704
tp1580
(Vfeedly.com
p1581
F0.000247658170357474
tp1582
tp1583
s((S'alpha2.com'
p1584
tp1585
(ttp1586
((Valpharooms.com
p1587
F0.003697445800052664
tp1588
(Vsculpteo.com
p1589
F0.00044483632406326206
tp1590
(Vuk.pinterest.com
p1591
F1.5539860296655933e-05
tp1592
(Vimgur.com
p1593
F1.9443935627705352e-07
tp1594
(Vdrive.google.com
p1595
F2.224820992362993e-08
tp1596
tp1597
s((S'designtaxi.com'
p1598
tp1599
(ttp1600
((Vnaturpixel.com
p1601
F0.002525569674668886
tp1602
(Vresearch.facebook.com
p1603
F0.0024447558932316087
tp1604
(Vmrhyde.com
p1605
F0.002101027503719101
tp1606
(Vpurpleheart.org
p1607
F0.0015727754663803514
tp1608
(Vedpuzzle.com
p1609
F0.0014091455933541925
tp1610
(Vallenby-pratt.com
p1611
F0.0012811653560782217
tp1612
(Valiciavera.com
p1613
F0.0012265785229286553
tp1614
(Vtheinspiration.com
p1615
F0.0011984722954081271
tp1616
(Vmodernhousemagazine.com
p1617
F0.0011556103820603895
tp1618
(Vhaebc.com
p1619
F0.0011554678439678909
tp1620
(Vhep.eiz.jp
p1621
F0.0011284011989747447
tp1622
(Vsomethingcomics.tumblr.com
p1623
F0.001076472847460011
tp1624
(Vmensstyleadvice.com
p1625
F0.0010069390317375387
tp1626
(Vjobisjob.de
p1627
F0.0009852059176329467
tp1628
(Vassets.gecapital.com.au
p1629
F0.0009332437835811571
tp1630
(Vcreativereview.co.uk
p1631
F0.000928881838058707
tp1632
(Vzombiesamurai.pl
p1633
F0.0009227463467303423
tp1634
(Vecsediekszer.hu
p1635
F0.0008745579998976046
tp1636
(Vkarne.pl
p1637
F0.0008697854085080444
tp1638
(Vilghirlandaio.com
p1639
F0.000848768909519732
tp1640
tp1641
s((S'alpha41.com'
p1642
tp1643
(ttp1644
(ts((S'mortgagecalculator.org'
p1645
tp1646
(ttp1647
((Vmlstoledo.com
p1648
F0.002289881028527568
tp1649
(Vecf.ganb.uscourts.gov
p1650
F0.002150350332913875
tp1651
(Vsef.fusionmls.com
p1652
F0.0017126636580814146
tp1653
(Vnom.fusionmls.com
p1654
F0.0012663389234897188
tp1655
(Vmoneychimp.com
p1656
F0.0010296039907220602
tp1657
(Vnexusthemes.com
p1658
F0.0009361985436735829
tp1659
(Vluminouswm.com
p1660
F0.0007395303318144178
tp1661
(Vtn-murfreesboro.civicplus.com
p1662
F0.0007395303318144178
tp1663
(Vturquoisekosherfish.com
p1664
F0.0007395303318144178
tp1665
(Vtour.nneren.previsite.com
p1666
F0.0007377367825841108
tp1667
(Vpopville.wpengine.netdna-cdn.com
p1668
F0.0007369530082134957
tp1669
(Vstjosephcountyindiana.com
p1670
F0.0007309605565805052
tp1671
(Vbestplaces.coldwellbanker.com
p1672
F0.0007305960044710725
tp1673
(Vloftplace.com
p1674
F0.0007303300151423214
tp1675
(Vmyutahnest.com
p1676
F0.0007207697129977007
tp1677
(Vmatrix.carolinamls.com
p1678
F0.0006728210371216791
tp1679
(Vatproperties.com
p1680
F0.0004691549728514806
tp1681
(Vmatrix.mlslistings.com
p1682
F0.00043129308413106487
tp1683
(Vbrighton-exchange.com
p1684
F0.0003896827677490704
tp1685
(Vmortgagcalculator.org
p1686
F0.0003896827677490704
tp1687
tp1688
s((S'alpha25.com'
p1689
tp1690
(ttp1691
(ts((S'diveintopython.net'
p1692
tp1693
(ttp1694
((Vluisartola.com
p1695
F0.01308713593306666
tp1696
(Vlearn.gramener.com
p1697
F0.0066802362512468775
tp1698
(Vdjango-chinese-docs-14.readthedocs.org
p1699
F0.006255710972095312
tp1700
(Vlignos.org
p1701
F0.003607044345427541
tp1702
(Vdocs.python.org
p1703
F0.0029514139252664086
tp1704
(Vdiveintopython3.net
p1705
F0.0024584698132149164
tp1706
(Vscipy.org
p1707
F0.00233695159956468
tp1708
(Vcalazan.com
p1709
F0.0018844901747393514
tp1710
(Vconnexus-jjm.appspot.com
p1711
F0.0016320116054158607
tp1712
(Vtour-sz.com
p1713
F0.0015841490518749704
tp1714
(Vsagemath.org
p1715
F0.0013459797709473023
tp1716
(Vapp.azendoo.com
p1717
F0.001330340715038685
tp1718
(Vgit.crl.vecna.com
p1719
F0.0011964902951342728
tp1720
(Vtechprom.ru
p1721
F0.0011357111225529769
tp1722
(Vmozgovipc.blogspot.co.il
p1723
F0.0008450978246330817
tp1724
(Vcforbeginners.com
p1725
F0.0006691024343003037
tp1726
(Vquality.mozilla.org
p1727
F0.0006626145240006626
tp1728
(Vvipod.ecommtools.com
p1729
F0.0006560723137483598
tp1730
(Vtrac.kit-xxi.com.ua
p1731
F0.0006007910415380251
tp1732
(Vwoodpecker.org.cn
p1733
F0.0005948740571413293
tp1734
tp1735
s((S'alpha26.com'
p1736
tp1737
(ttp1738
(ts((S'github.com'
p1739
tp1740
(ttp1741
((Vcode.google.com
p1742
F0.00407012608671127
tp1743
(Vrubygems.org
p1744
F0.0035773462484789457
tp1745
(Vraw.githubusercontent.com
p1746
F0.0034577717855745157
tp1747
(Vstackoverflow.com
p1748
F0.003441503954031439
tp1749
(Vbitbucket.org
p1750
F0.003385212782873444
tp1751
(Vnpmjs.org
p1752
F0.002854017136546961
tp1753
(Vpypi.python.org
p1754
F0.002706602897481004
tp1755
(Vnews.ycombinator.com
p1756
F0.0019993154488276
tp1757
(Vgit-scm.com
p1758
F0.0019871032599025357
tp1759
(Vdocs.angularjs.org
p1760
F0.0012442907118560913
tp1761
(Vhaxiomic.github.io
p1762
F0.0006659055953985048
tp1763
(Vpivotaltracker.com
p1764
F0.0005625324970995607
tp1765
tp1766
s((S'alpha49.com'
p1767
tp1768
(ttp1769
(ts((S'bleepingcomputer.com'
p1770
tp1771
(ttp1772
((Vforums.malwarebytes.org
p1773
F0.014133110558044844
tp1774
(Vtoolslib.net
p1775
F0.009604761097288106
tp1776
(Vforums.techguy.org
p1777
F0.005599808649726676
tp1778
(Veasylist.adblockplus.org
p1779
F0.005464288494238814
tp1780
(Vforum.avast.com
p1781
F0.0023284922428071543
tp1782
(Vcommunity.mcafee.com
p1783
F0.002115762450095909
tp1784
(Vsupportatalliance.zendesk.com
p1785
F0.0018201070593856425
tp1786
(Vcombofix.org
p1787
F0.0017738837446607918
tp1788
(Vcomment-supprimer.com
p1789
F0.0017606388173824258
tp1790
(Vsurfright.nl
p1791
F0.0010393969965511157
tp1792
(Vcome-eliminare.com
p1793
F0.0008058871889142518
tp1794
(Vsupport.bullguard.com
p1795
F0.0006765552464745129
tp1796
(Vanswers.avira.com
p1797
F0.0006701063889255314
tp1798
(Vnonags.com
p1799
F0.0006179254116133074
tp1800
(Vforum.eset.com
p1801
F0.0006131790797156976
tp1802
(Vbroker4.gotoassist.com
p1803
F0.0005442813345531518
tp1804
(Vspywarefri.dk
p1805
F0.0004931542110596758
tp1806
tp1807
s((S'alpha11.com'
p1808
tp1809
(ttp1810
(ts((S'eksisozluk.com'
p1811
tp1812
(ttp1813
((Vradikal.com.tr
p1814
F0.0068966636038099716
tp1815
(Valkislarlayasiyorum.com
p1816
F0.005805885367388333
tp1817
(Vntvspor.net
p1818
F0.004710690766242146
tp1819
(Vhurriyet.com.tr
p1820
F0.004449236766384042
tp1821
(Vntvmsnbc.com
p1822
F0.004045211870764205
tp1823
(Vmilliyet.com.tr
p1824
F0.003908397864827673
tp1825
(Vrerererarara.net
p1826
F0.0038136682399826176
tp1827
(Vitusozluk.com
p1828
F0.0037077018061633126
tp1829
(Vforum.donanimhaber.com
p1830
F0.0036240961003998016
tp1831
(Vonedio.com
p1832
F0.0019602389998414882
tp1833
(Vt24.com.tr
p1834
F0.001171254414377725
tp1835
tp1836
s((S'metaskills.net'
p1837
tp1838
(ttp1839
((Vctshryock.com
p1840
F0.016547468798205022
tp1841
(Vredmine.bikecityguide.org
p1842
F0.0021527305687740767
tp1843
(Vatendesign.atlassian.net
p1844
F0.0003169074849782714
tp1845
(Vcoderwall.com
p1846
F0.00021703084325282697
tp1847
(Vphantomjs.org
p1848
F0.00013313754282917278
tp1849
(Vhttpd.apache.org
p1850
F1.5940797752535055e-05
tp1851
(Vgithub.com
p1852
F3.3243081757242964e-06
tp1853
(Vduckduckgo.com
p1854
F1.0081056908941716e-06
tp1855
(Vtrello.com
p1856
F9.761391994511724e-07
tp1857
(Vstartpage.com
p1858
F6.875454166190843e-07
tp1859
(Vstackoverflow.com
p1860
F3.0192988684047274e-07
tp1861
(Vtweetdeck.twitter.com
p1862
F1.599518661211605e-07
tp1863
(Vbing.com
p1864
F9.369324416725723e-08
tp1865
(Vgoogle.com.sg
p1866
F5.183408317133579e-08
tp1867
tp1868
s((S'overapi.com'
p1869
tp1870
(ttp1871
((Vapis.pw
p1872
F0.007200668343131401
tp1873
(Vtroy.labs.daum.net
p1874
F0.00701409345452805
tp1875
(V121down.com
p1876
F0.005797076194085878
tp1877
(Vbullium.com
p1878
F0.005647792665666607
tp1879
(Vpittalis.hostings.co.uk
p1880
F0.005007780530559443
tp1881
(Vwebmail.garmin.com
p1882
F0.004804957073805288
tp1883
(Vbumpsdocumentarily.squarespace.com
p1884
F0.004158373405198481
tp1885
(Vorays.wd-works.com
p1886
F0.004110381077529567
tp1887
(Vbootgraph.net
p1888
F0.004030362627239939
tp1889
(Vredmine.infogene.fr
p1890
F0.0034291946192749156
tp1891
(Vmitarbeiter.hs-heilbronn.de
p1892
F0.003285460978893482
tp1893
(Vnote-pad.net
p1894
F0.0032399080437864043
tp1895
(Vupsideos.com
p1896
F0.0032079887740138428
tp1897
(Vscm.ulster.ac.uk
p1898
F0.002922858853657464
tp1899
(Vibmwebsphereportalserver.blogspot.pt
p1900
F0.0026748188381356852
tp1901
(Vytub3.com
p1902
F0.0026007381348067253
tp1903
(Vvertical3w.teamwork.com
p1904
F0.002595337661272785
tp1905
(Vfindpatent.ru
p1906
F0.0025676768503163972
tp1907
(Vcheat-sheets.org
p1908
F0.0022810455972986374
tp1909
(Vlocaltest.me
p1910
F0.002195967292517345
tp1911
tp1912
s((S'meditation.com'
p1913
tp1914
(ttp1915
((Vmedication.com
p1916
F0.015265354800238521
tp1917
(Vhoroscopedays.com
p1918
F0.0001161929383741703
tp1919
(Vbrilliant.org
p1920
F6.724553867879327e-05
tp1921
(Vamharicmovies.com
p1922
F5.362787984026289e-05
tp1923
(Vlequipe.fr
p1924
F7.816310148203357e-07
tp1925
(Ven.wikipedia.org
p1926
F5.252421832353988e-08
tp1927
(Vsearch.ask.com
p1928
F3.7740381291546105e-08
tp1929
(Vgoogle.ca
p1930
F3.648383286054617e-08
tp1931
(Vreddit.com
p1932
F1.058890587253285e-08
tp1933
(Vgoogle.co.in
p1934
F3.669238772897556e-09
tp1935
(Vfacebook.com
p1936
F1.5397755423834308e-09
tp1937
tp1938
s((S'alpha48.com'
p1939
tp1940
(ttp1941
(ts((S'taskrabbit.com'
p1942
tp1943
(ttp1944
(ts((S'bing.com'
p1945
tp1946
(ttp1947
((Vmsn.com
p1948
F0.016635658217342388
tp1949
(Vtrovi.com
p1950
F0.016555075479974354
tp1951
(Vbaidu.com
p1952
F0.003273251804980637
tp1953
(Vyahoo.com
p1954
F0.0027715540810384367
tp1955
(Vapps.facebook.com
p1956
F0.001965248831657405
tp1957
(Vamazon.com
p1958
F0.001769528353985467
tp1959
(Vyoutube.com
p1960
F0.0016330581196150912
tp1961
(Vistart.webssearches.com
p1962
F0.0016193109759660585
tp1963
(Vwww-search.net
p1964
F0.0015684668097458295
tp1965
(Vgoogle.com
p1966
F0.0015435173690071886
tp1967
(Vsearch.safefinder.com
p1968
F0.0015014238507027663
tp1969
(Vwebsearch.calcitapp.info
p1970
F0.0010834036777905153
tp1971
(Vcr2.gogorithm.com
p1972
F0.0010569179030244548
tp1973
(Vistart123.com
p1974
F0.0009062105420444925
tp1975
(Vreddit.com
p1976
F0.0008460113039214405
tp1977
(Vmystartsearch.com
p1978
F0.0008281261084001494
tp1979
tp1980
s((S'fetchapp.com'
p1981
tp1982
(ttp1983
((Vcheckout.shopify.com
p1984
F0.03289034869667742
tp1985
(Vpixelunion.net
p1986
F0.014754481133273599
tp1987
(Vvfbpro.com
p1988
F0.006749764676306224
tp1989
(Vmovimus-wrestling.myshopify.com
p1990
F0.004611150121474517
tp1991
(Vsiteorigin.uservoice.com
p1992
F0.0013398333270103824
tp1993
(Vnivel7.zendesk.com
p1994
F0.0010256196709226026
tp1995
(Vlocalinternettraffic.basecamphq.com
p1996
F0.0007945726175017724
tp1997
(Vfindacaravan.co.uk
p1998
F0.000773582354640265
tp1999
(Vmygedlive.com
p2000
F0.0006667648984276862
tp2001
(Vsupergiantgames.com
p2002
F0.0006353591339866412
tp2003
(Vrubinmuseum.mooclients.com
p2004
F0.0005533319807440471
tp2005
(Vstore-ugs15e.mybigcommerce.com
p2006
F0.0005459376175282371
tp2007
(Vdowntownhq.com
p2008
F0.0005201510438608135
tp2009
(Vwebmail1.cogeco.ca
p2010
F0.0005121806493696923
tp2011
(Vccparkboard.com
p2012
F0.0005069670278806741
tp2013
(Vmy-cubby-house-rocks.myshopify.com
p2014
F0.000469641480868186
tp2015
(Vpredictablesuccess.com
p2016
F0.00046456904822288767
tp2017
(Vabookapart.com
p2018
F0.000443290002711978
tp2019
(Vjoridweb.com
p2020
F0.00037026980326331123
tp2021
(Vevanabrams.com
p2022
F0.00036538634981349104
tp2023
tp2024
s((S'underscorejs.org'
p2025
tp2026
(ttp2027
((Vbackbonejs.org
p2028
F0.039222457353583956
tp2029
(Vlodash.com
p2030
F0.010088033186646021
tp2031
(Vnpmjs.org
p2032
F0.009634296887257985
tp2033
(Vunderscore.org
p2034
F0.003705428047383178
tp2035
(Vapps.ripjar.com
p2036
F0.002173266454966447
tp2037
(Vcode.accursoft.com
p2038
F0.0021697462471221493
tp2039
(Vdocumentcloud.github.io
p2040
F0.00184364221624516
tp2041
(V2manydots.harvestapp.com
p2042
F0.0018039857985162405
tp2043
(Vsaratz.ch
p2044
F0.001663894348245135
tp2045
(Vwebmail.villa-bosch.de
p2046
F0.0013807770356892993
tp2047
(Vtech.pro
p2048
F0.0013804158667762318
tp2049
(Vrequirejs.org
p2050
F0.0012272006095745108
tp2051
(Vgit.corp.adobe.com
p2052
F0.0012072899135412783
tp2053
(Vatmospherejs.com
p2054
F0.0010363480512479175
tp2055
(Vmomentjs.com
p2056
F0.0010000112661189041
tp2057
(Vmongoosejs.com
p2058
F0.0009662738469342434
tp2059
(Vdruiddev01.cern.ch
p2060
F0.0009026188131905872
tp2061
(Vdocs.meteor.com
p2062
F0.0007997301032960305
tp2063
(Vparse.com
p2064
F0.0007765882205994752
tp2065
(Vapi.jquery.com
p2066
F0.0007427711251300164
tp2067
tp2068
s((S'news.com'
p2069
tp2070
(ttp2071
((Vtriadsportsgroupllcthebownet.freshbooks.com
p2072
F0.01454126318930815
tp2073
(Vconnect-securities.com
p2074
F0.009366792280461346
tp2075
(Vmtexpress.com
p2076
F0.008571347129582121
tp2077
(Vmobyaffiliates.com
p2078
F0.006339849230921682
tp2079
(Vmtthwnvk.exposure.co
p2080
F0.0033911039363203476
tp2081
(Vsecurepay.dancesoft.com
p2082
F0.003083712642298566
tp2083
(Vmoney.com
p2084
F0.0027744550770866564
tp2085
(Vsheridan.jira.com
p2086
F0.0021324345901694765
tp2087
(Vfumccolumbia.org
p2088
F0.002059842305468784
tp2089
(Vasia.cnet.com
p2090
F0.001940538957234915
tp2091
(Vbitleak.net
p2092
F0.0017806098814809792
tp2093
(Vbownetstore.com
p2094
F0.0017481364206082194
tp2095
(Vssa188.com
p2096
F0.0017289024746086953
tp2097
(Veastweek.my-magazine.me
p2098
F0.0017166058487947781
tp2099
(Vtimesheets.com.au
p2100
F0.00144046913959389
tp2101
(Vot.co.id
p2102
F0.001379530084434944
tp2103
(Vrm.cergis.net.id
p2104
F0.001325086853725882
tp2105
(Vvanckohall.delhi.edu
p2106
F0.0012172644851602828
tp2107
(Vsecure.nextissue.ca
p2108
F0.0008606069810413344
tp2109
(Vl.2013.com
p2110
F0.00084495923225894
tp2111
tp2112
s((S'quirksmode.org'
p2113
tp2114
(ttp2115
(ts((S'i24.fr'
p2116
tp2117
(ttp2118
((Vgoogle.ml
p2119
F1.7309033164535984e-05
tp2120
tp2121
s((S'apreche.net'
p2122
tp2123
(ttp2124
((Vtenprinthello.ca
p2125
F0.04867890147077964
tp2126
(Vblog.mathieu-leplatre.info
p2127
F0.014435324087178035
tp2128
(Vmichal.karzynski.pl
p2129
F0.005433674600008864
tp2130
(Vcafehayek.com
p2131
F0.0005601225679972324
tp2132
(Vmtgoacademy.com
p2133
F0.00023374712685823236
tp2134
(Vknowledge.rapidssl.com
p2135
F0.00020115021349352203
tp2136
(Vbitnami.com
p2137
F2.8252108521334497e-05
tp2138
(Vhelp.github.com
p2139
F1.3902984970873247e-05
tp2140
tp2141
s((S'youtu.be'
p2142
tp2143
(ttp2144
((Vyoutube.be
p2145
F0.002327771504181619
tp2146
(Vuses.myherbalife.com
p2147
F0.0022052491406921487
tp2148
(Vbahrammoshiri.com
p2149
F0.00120513846529179
tp2150
(Vsteerbiddersales.com
p2151
F0.0010856524094649729
tp2152
(Vexams.evinrude.com
p2153
F0.0009387105668307909
tp2154
(Vwww2.memehk.com
p2155
F0.000840664053480079
tp2156
(Vmemehk.com
p2157
F0.0006322798687984735
tp2158
(Vmissyusa.com
p2159
F0.0006279402146092168
tp2160
(Vfollovvme.com
p2161
F0.0004785133661676418
tp2162
(Vtubetamil.com
p2163
F0.0004547101225723085
tp2164
(Vfirstlegoleague.org
p2165
F0.0004278581860366056
tp2166
(Vk8mer.com
p2167
F0.00038935924897389785
tp2168
(Vblaulichtreporter.de
p2169
F0.0003442025800306291
tp2170
(Veasykart.it
p2171
F0.00034177048920407956
tp2172
(Vnerdapproved.com
p2173
F0.00033383098580019383
tp2174
(Vwieboldtv.de
p2175
F0.0003332203017659258
tp2176
(Vphumidrama.com
p2177
F0.00032757148580445696
tp2178
(Vkilroynews.net
p2179
F0.0003270797996804544
tp2180
(Vhelpdesk.tankionline.com
p2181
F0.0002683043007451439
tp2182
(Vsaintsfc.co.uk
p2183
F0.0002499477358238586
tp2184
tp2185
s((S'ynet.co.il'
p2186
tp2187
(ttp2188
(ts((S'alpha51.com'
p2189
tp2190
(ttp2191
(ts((S'alpha1.com'
p2192
tp2193
(ttp2194
((Vtheaudience.com
p2195
F0.009694201243497019
tp2196
tp2197
s((S'tutorialspoint.com'
p2198
tp2199
(ttp2200
((Vwiki.python.org
p2201
F0.005812159708003393
tp2202
(Vtutorialpoint.com
p2203
F0.0021775165351430943
tp2204
(Vjavatpoint.com
p2205
F0.001968934012532698
tp2206
(Vhexvolt.blogspot.ru
p2207
F0.0015654524915361316
tp2208
(Verhvervsakademisydvest.sharepoint.com
p2209
F0.0010571098842477162
tp2210
(Vrallydev.com
p2211
F0.0007445860040062963
tp2212
(Vcprogramming.com
p2213
F0.0006934952073382222
tp2214
(Vebooks-it.org
p2215
F0.0006203165820055927
tp2216
(Vmkyong.com
p2217
F0.0005062963910686054
tp2218
(Vlardoors.ru
p2219
F0.00048065709207179333
tp2220
(Vstudytonight.com
p2221
F0.00044009319580119765
tp2222
(Vhomeandlearn.co.uk
p2223
F0.00042920870144858323
tp2224
(Vhub.attask.com
p2225
F0.00041461175045723575
tp2226
(Vfhict.nl
p2227
F0.0003724732036863049
tp2228
(Vbatman.jamk.fi
p2229
F0.00035189190319527444
tp2230
(Vservices.brics.dk
p2231
F0.00034668114031273604
tp2232
(Vjava2s.com
p2233
F0.0003430930183514621
tp2234
(Vncvps.blackboard.com
p2235
F0.00033488728945250517
tp2236
(Vforum-alsacetech.org
p2237
F0.00031760909843814436
tp2238
(Vvogella.com
p2239
F0.0003130399033593343
tp2240
tp2241
s((S'ruby-doc.org'
p2242
tp2243
(ttp2244
((Vruby-lang.org
p2245
F0.013201199696001907
tp2246
(Vruby-forum.com
p2247
F0.008747609502763641
tp2248
(Vrubymonk.com
p2249
F0.0066763845359754164
tp2250
(Vapi.rubyonrails.org
p2251
F0.005878717500206361
tp2252
(Vpine.fm
p2253
F0.0024445864869402467
tp2254
(Vrubydoc.info
p2255
F0.0018924510596828913
tp2256
(Vpb.vanburg.ru
p2257
F0.0016634643017226075
tp2258
(Vcodewars.com
p2259
F0.0013226159920880281
tp2260
(Vfabricationgem.org
p2261
F0.0012286729167879811
tp2262
(Vrubydocs.org
p2263
F0.0012119574037700268
tp2264
(Vapidock.com
p2265
F0.0010269281121975656
tp2266
(Vmootools.net
p2267
F0.0009992932546863443
tp2268
(Vblog.remarkablelabs.com
p2269
F0.0008252490196022697
tp2270
(Valexa.bitmakerlabs.com
p2271
F0.0008213445688254505
tp2272
(Vbloc.io
p2273
F0.0008046723518956768
tp2274
(Vtlk.io
p2275
F0.0008028277194664875
tp2276
(Vit-ebooks-search.info
p2277
F0.0007187965547440323
tp2278
(Vrailstutorial.org
p2279
F0.0006903101397194037
tp2280
(Vget.wynk.in
p2281
F0.000643192538966548
tp2282
(Vhorizon.launchacademy.com
p2283
F0.0006275973357841288
tp2284
tp2285
s((S'cappuccino.org'
p2286
tp2287
(ttp2288
(ts((S'alpha18.com'
p2289
tp2290
(ttp2291
(ts((S'sqlite.org'
p2292
tp2293
(ttp2294
(ts((S'amazon.com'
p2295
tp2296
(ttp2297
((Vebay.com
p2298
F0.006738821250621747
tp2299
(Vslickdeals.net
p2300
F0.004120650473717563
tp2301
(Vbestbuy.com
p2302
F0.0030788964220882925
tp2303
(Vwalmart.com
p2304
F0.003050477312560511
tp2305
(Vnewegg.com
p2306
F0.002798296769576636
tp2307
(Vnetflix.com
p2308
F0.0024294274563549496
tp2309
(Vreddit.com
p2310
F0.002175753691217573
tp2311
(Vgoogle.com
p2312
F0.001391784985509667
tp2313
(Vhulu.com
p2314
F0.0011102072873126314
tp2315
(Vblackfriday.com
p2316
F0.0008052288786513178
tp2317
(Vus-mg6.mail.yahoo.com
p2318
F0.000766715618933907
tp2319
(Vtarget.com
p2320
F0.0007593360528991675
tp2321
(Ven.wikipedia.org
p2322
F0.0005814582312035169
tp2323
(Vgoodreads.com
p2324
F0.000495839687204871
tp2325
tp2326
s((S'ask.fm'
p2327
tp2328
(ttp2329
((Vapi.twitter.com
p2330
F0.0038719768085425585
tp2331
(Vinstagram.com
p2332
F0.0035201162759656564
tp2333
(Vsprashivai.ru
p2334
F0.0022410229396287156
tp2335
(Vdraugiem.lv
p2336
F0.0016981704734718584
tp2337
(Vosu.ppy.sh
p2338
F0.0011900555365722462
tp2339
(Vvk.com
p2340
F0.0010733686607157825
tp2341
(Vphotoblog.pl
p2342
F0.0009434860247498849
tp2343
(Vfacebook.com
p2344
F0.0007897221642810317
tp2345
(Voauth.vk.com
p2346
F0.0004924653958516431
tp2347
(Vm.vk.com
p2348
F0.000447875040448687
tp2349
(Vficbook.net
p2350
F0.0002781688076100809
tp2351
(Vgoogle.com.eg
p2352
F0.0002763304753074731
tp2353
(Vtumblr.com
p2354
F0.00026120886529040424
tp2355
(Vgoogle.pl
p2356
F0.00022167104852053066
tp2357
(Vplurk.com
p2358
F0.00020680246864649752
tp2359
(Vbezuzyteczna.pl
p2360
F0.00020554866267027548
tp2361
tp2362
s((S'cnet.com'
p2363
tp2364
(ttp2365
((Vpiriform.com
p2366
F0.0159181332633361
tp2367
(Vengadget.com
p2368
F0.004957119390672255
tp2369
(Vslimwareutilities.com
p2370
F0.003871587573190562
tp2371
(Viobit.com
p2372
F0.0037872145729306657
tp2373
(Vdownload.com
p2374
F0.0032494116269419487
tp2375
(Vnews.com
p2376
F0.003161606536054979
tp2377
(Vpcworld.com
p2378
F0.00246452997356243
tp2379
(Vzdnet.com
p2380
F0.0015068331933519455
tp2381
(Vsrshql.com
p2382
F0.0014153353883593963
tp2383
(Vitmedia.co.jp
p2384
F0.0007907186947444716
tp2385
(Vjdownloader.org
p2386
F0.0007338415590572786
tp2387
(Vhrtnvk.com
p2388
F0.0006993263430518632
tp2389
(Vtheverge.com
p2390
F0.0006605099795835987
tp2391
(Vpcmag.com
p2392
F0.0006134526397019363
tp2393
tp2394
s((S'alpha13.com'
p2395
tp2396
(ttp2397
(ts((S'stanford.edu'
p2398
tp2399
(ttp2400
((Vcoursera.org
p2401
F0.019852455480024088
tp2402
(Vstanford-csm.symplicity.com
p2403
F0.004458426814454262
tp2404
(Vstanfordmedicine.app.box.com
p2405
F0.0018394491317772473
tp2406
(Vapplyweb.com
p2407
F0.0014446205046727242
tp2408
(Vpiazza.com
p2409
F0.0010644330063908855
tp2410
(Viep.utm.edu
p2411
F0.0010413909693168268
tp2412
(Vstanford.advantageconnectpro.com
p2413
F0.0007095640595133476
tp2414
(Vtcaps.net
p2415
F0.0005825063085621362
tp2416
(Vpr2hub.com
p2417
F0.0005567977383578872
tp2418
(Vnovoed.com
p2419
F0.0005346102568900386
tp2420
(Varxiv.org
p2421
F0.0005236930349705815
tp2422
(Vsoeithelp.zendesk.com
p2423
F0.0005219860069824124
tp2424
(Vsecure.ecollege.com
p2425
F0.00048109621911784917
tp2426
(Vhcrealms.com
p2427
F0.0004515096805595504
tp2428
(Vfolding.extremeoverclocking.com
p2429
F0.000326207323862356
tp2430
(Vkaggle.com
p2431
F0.00031504072983634115
tp2432
(Vtorgi.gov.ru
p2433
F0.0003127813936584653
tp2434
(Vstanforduniversity.qualtrics.com
p2435
F0.00024404780752231592
tp2436
(Vgrad-schools.usnews.rankingsandreviews.com
p2437
F0.00024230293948811362
tp2438
tp2439
s((S'superuser.com'
p2440
tp2441
(ttp2442
((Vstackexchange.com
p2443
F0.004099459401758269
tp2444
(Vlibc6.org
p2445
F0.0030590372069599944
tp2446
(Vencrypted.google.com
p2447
F0.001023749016786298
tp2448
(Vstartpage.com
p2449
F0.0008201129671354862
tp2450
(Vxie.lu
p2451
F0.0007714776591323591
tp2452
(Vforum.transmissionbt.com
p2453
F0.0007119466006968179
tp2454
(Vsmartredirect.de
p2455
F0.00047585572816905144
tp2456
(Vserverfault.com
p2457
F0.00047570928055575365
tp2458
(Vaskubuntu.com
p2459
F0.0004297365953529304
tp2460
(Vvirtualrouter.codeplex.com
p2461
F0.00036603824366120835
tp2462
(Ventiteinconnue.com
p2463
F0.0002567725344910978
tp2464
(Vservice.whiteclarke.com
p2465
F0.0002535906271887286
tp2466
(Vnetmechanic.dyndns.org
p2467
F0.000249944877301956
tp2468
(Vsocial.technet.microsoft.com
p2469
F0.0002398143987486882
tp2470
(Vcode5gaming.com
p2471
F0.00022645517687985438
tp2472
(Vmxc.ru
p2473
F0.00021803652826213085
tp2474
(Vwen.lu
p2475
F0.00021779296914272678
tp2476
(Vkldp.org
p2477
F0.0001614334562921192
tp2478
tp2479
s((S'alpha52.com'
p2480
tp2481
(ttp2482
(ts((S'ycombinator.com'
p2483
tp2484
(ttp2485
((Vhackerne.ws
p2486
F0.002258449013607999
tp2487
(Vtechmeme.com
p2488
F0.0012691820221576143
tp2489
(Vnews.layervault.com
p2490
F0.0009917455368117767
tp2491
(Vproducthunt.com
p2492
F0.0006783600822242837
tp2493
(Vspacerogue.net
p2494
F0.0006178246123912907
tp2495
(Vxcortex.com
p2496
F0.0005490919247667366
tp2497
(Vblog.samaltman.com
p2498
F0.00045371434238055064
tp2499
(Vnautil.us
p2500
F0.0004510529032547637
tp2501
(Vnews.dbanotes.net
p2502
F0.0003639712839933979
tp2503
(Vlesswrong.com
p2504
F0.00029064409138113845
tp2505
(Vnikcub.com
p2506
F0.00023565540621483204
tp2507
(Vlobste.rs
p2508
F0.00016749410462020464
tp2509
(Vgwucolumbian.service-now.com
p2510
F0.00015106314765607595
tp2511
(Vdatatau.com
p2512
F0.0001409348825942487
tp2513
(Vnet-benefits.net
p2514
F0.00013016942453237583
tp2515
tp2516
s((S'adobe.com'
p2517
tp2518
(ttp2519
((Vmozilla.org
p2520
F0.015111450175616077
tp2521
(Vapps.facebook.com
p2522
F0.0059619678680743506
tp2523
(Vfilehippo.com
p2524
F0.004900062455243954
tp2525
(Vacrobat.com
p2526
F0.004836207731470023
tp2527
(Vshell.windows.com
p2528
F0.004715263584245032
tp2529
(Vfb1.farm2.zynga.com
p2530
F0.004637787853163249
tp2531
(Vsupport.google.com
p2532
F0.0037578816140994334
tp2533
(Vthanks.freesoftstore.com
p2534
F0.002328482156562959
tp2535
(Vupdate1024.com
p2536
F0.0013898408960056395
tp2537
(Vthanks.freesoftstore2.com
p2538
F0.0013255858152199373
tp2539
(Vowl.english.purdue.edu
p2540
F0.0013105499640232714
tp2541
(Veasyjet.com
p2542
F0.0007198307701079823
tp2543
(Vmacromedia.com
p2544
F0.0006869022921899767
tp2545
(Vsecure.sarsefiling.co.za
p2546
F0.0006844256605296551
tp2547
tp2548
s((S'osm.org'
p2549
tp2550
(ttp2551
((Vtileify-ags.herokuapp.com
p2552
F0.025611846996525408
tp2553
(Vlists.fossgis.de
p2554
F0.015710511417248538
tp2555
(Vosm.kcwu.csie.org
p2556
F0.015259251570042041
tp2557
(Vopenstreetmap.fr
p2558
F0.014881732964204185
tp2559
(Vweb.fulcrumapp.com
p2560
F0.011588471941892874
tp2561
(Vddtp.debian.net
p2562
F0.0033082363677846226
tp2563
(Vgst.dk
p2564
F0.0030583511849426727
tp2565
(Vtranquil-dusk-1191.herokuapp.com
p2566
F0.0029621244280930146
tp2567
(Vactop.clustertech.com
p2568
F0.0024018770738750746
tp2569
(Vplanet.openstreetmap.org
p2570
F0.0022462864859250026
tp2571
(Vforum.openstreetmap.org
p2572
F0.00199203187250996
tp2573
(Vin-berlin-brandenburg.com
p2574
F0.0017609681960170714
tp2575
(Vlaw.uj.edu.pl
p2576
F0.0014257841812997149
tp2577
(Vbeta.everypost.me
p2578
F0.0013285719771147717
tp2579
(Vleafletjs.com
p2580
F0.001191800008488604
tp2581
(Vmarket.ba
p2582
F0.0011574074074074073
tp2583
(Vtranslations.launchpad.net
p2584
F0.0010782441508502539
tp2585
(Vstadt-bremerhaven.de
p2586
F5.549050649917976e-05
tp2587
(Veniro.se
p2588
F4.805950506103557e-05
tp2589
(Vgithub.com
p2590
F4.784102050651656e-06
tp2591
tp2592
s((S'twitter.com'
p2593
tp2594
(ttp2595
((Vinstagram.com
p2596
F0.009640668836346135
tp2597
(Vfacebook.com
p2598
F0.005754900727130478
tp2599
(Vtumblr.com
p2600
F0.005717088994814716
tp2601
(Vtwitch.tv
p2602
F0.005152529468333346
tp2603
(Vreddit.com
p2604
F0.004914842497878588
tp2605
(Vask.fm
p2606
F0.004444513960399476
tp2607
(Vlinkedin.com
p2608
F0.003428389609628508
tp2609
(Vyoutube.com
p2610
F0.0033467710833313545
tp2611
(Vgoogle.co.jp
p2612
F0.0017641893086358437
tp2613
(Vespn.go.com
p2614
F0.001334680555584708
tp2615
(Vvk.com
p2616
F0.0008567391042836494
tp2617
(Vgoogle.com.tr
p2618
F0.0008184359701507858
tp2619
tp2620
s((S'walmart.com'
p2621
tp2622
(ttp2623
((Vtarget.com
p2624
F0.016191472243672674
tp2625
(Vwww2.onlinecreditcenter6.com
p2626
F0.01191700934366368
tp2627
(Vblackfriday.com
p2628
F0.008828973008072028
tp2629
(Vbestbuy.com
p2630
F0.007051185413925967
tp2631
(Vkmart.com
p2632
F0.004302594970420979
tp2633
(Vtoysrus.com
p2634
F0.004132935890938453
tp2635
(Vsamsclub.com
p2636
F0.003398453827899621
tp2637
(Vhiringcenter.walmartstores.com
p2638
F0.002464230730206549
tp2639
(Vr.befrugal.com
p2640
F0.002102698555986174
tp2641
(Vwalgreens.com
p2642
F0.0018930996132344058
tp2643
(Vshopping.paypal.com
p2644
F0.0012793019201361572
tp2645
(Vkohls.com
p2646
F0.001067534574161307
tp2647
(Vgamestop.com
p2648
F0.00098459925813377
tp2649
(Vamazon.com
p2650
F0.0009239514095817645
tp2651
tp2652
s((S'alpha16.com'
p2653
tp2654
(ttp2655
(ts((S'google.com'
p2656
tp2657
(ttp2658
(ts((S'coursera.org'
p2659
tp2660
(ttp2661
((Vcourses.edx.org
p2662
F0.005682409218958396
tp2663
(Vudacity.com
p2664
F0.0032743153315409304
tp2665
(Vcodeskulptor.org
p2666
F0.002716798767326224
tp2667
(Vedx.org
p2668
F0.002345213620656822
tp2669
(Vmooc.guokr.com
p2670
F0.001304445694573597
tp2671
(Vudemy.com
p2672
F0.0012989515229204602
tp2673
(Vcodecademy.com
p2674
F0.001094793903822028
tp2675
(Vfuturelearn.com
p2676
F0.001069718425067974
tp2677
(Vd396qusza40orc.cloudfront.net
p2678
F0.0009671142040794794
tp2679
(Vmysliderule.com
p2680
F0.0006418503366131907
tp2681
(Vmiriadax.net
p2682
F0.0006400923571775631
tp2683
(Vocw.mit.edu
p2684
F0.0005196729488418822
tp2685
(Vonline.stanford.edu
p2686
F0.0004266295741752318
tp2687
(V1point3acres.com
p2688
F0.00034809050272295626
tp2689
tp2690
s((S'pcworld.com'
p2691
tp2692
(ttp2693
((Vpcmag.com
p2694
F0.0160570091461598
tp2695
(Vmaximumpc.com
p2696
F0.00604172486689136
tp2697
(Vovermanforum.com
p2698
F0.005006690152892461
tp2699
(Vliliputing.com
p2700
F0.003723307465314178
tp2701
(Vcnet.com
p2702
F0.0026935050431359524
tp2703
(Vzdnet.com
p2704
F0.0025231801921726843
tp2705
(Vfreewarefiles.com
p2706
F0.0022220346213923654
tp2707
(Vcomputerworld.com
p2708
F0.002161598910721406
tp2709
(Vtechlife.net
p2710
F0.0011621989063103498
tp2711
(Vextremetech.com
p2712
F0.0010303279710813453
tp2713
(Vsystweak.cleverbridge.com
p2714
F0.0009571076966246342
tp2715
(Vinfo.merrick.com
p2716
F0.0004782695306837402
tp2717
tp2718
s((S'alpha38.com'
p2719
tp2720
(ttp2721
(ts((S'beta3.com'
p2722
tp2723
(ttp2724
((Vsearch.smartshopping.com
p2725
F1.0572516976406806e-07
tp2726
tp2727
s((S'puzzlescript.net'
p2728
tp2729
(ttp2730
(ts((S'falsepositivecomic.com'
p2731
tp2732
(ttp2733
((Vshawntionary.com
p2734
F0.00950097050911996
tp2735
(Vplox-comic.com
p2736
F0.005055740324931485
tp2737
(Vthezombiehunters.com
p2738
F0.004297320866180845
tp2739
(Vscottystudios.wix.com
p2740
F0.0025771330119156205
tp2741
(Vseiyuucrush.net
p2742
F0.0017266131222597291
tp2743
(Vnucat.org
p2744
F0.0016811228741404173
tp2745
(Vjasoncomic.smackjeeves.com
p2746
F0.0013182548675450094
tp2747
(Vcotn.smackjeeves.com
p2748
F0.001298239001612329
tp2749
(Vbargainbooze.co.uk
p2750
F0.0010663136800691266
tp2751
(Valwaysraininghere.com
p2752
F0.0008211378906814985
tp2753
(V2tamburlaine.tumblr.com
p2754
F0.000757251035862266
tp2755
(Vimaginetheending.net
p2756
F0.0007409582127528695
tp2757
(Vwebhost.iu.edu
p2758
F0.0007157246557888859
tp2759
(Vmushamushcomic.com
p2760
F0.0006893031210474807
tp2761
(Vwebcomicoverlook.com
p2762
F0.0006864773672945343
tp2763
(Vkryzyswieku.blogspot.com
p2764
F0.0005957158940029584
tp2765
(Vemcarroll.com
p2766
F0.00044374567252334447
tp2767
(Vthreepanelsoul.com
p2768
F0.00041635285333750666
tp2769
(Vlimbero.org
p2770
F0.00012929973880895435
tp2771
(Vsmbc-comics.com
p2772
F5.923018782407604e-05
tp2773
tp2774
s((S'similarweb.com'
p2775
tp2776
(ttp2777
(ts((S'alpha22.com'
p2778
tp2779
(ttp2780
(ts((S'atlassian.com'
p2781
tp2782
(ttp2783
((Vjira.com
p2784
F0.0110582821998279
tp2785
(Vbitbucket.org
p2786
F0.0026401263428894994
tp2787
(Vjira.cyanogenmod.org
p2788
F0.0018958918543772686
tp2789
(Vsourcetreeapp.com
p2790
F0.0013459237116806805
tp2791
(Vjira.teamlead.ru
p2792
F0.001188908987341099
tp2793
(Vwiki.chicago.cme.com
p2794
F0.00111977689215232
tp2795
(Vcrucible01.devtools.intel.com
p2796
F0.0009736187067626499
tp2797
(Vapps.xpand-it.com
p2798
F0.0008644577023813694
tp2799
(Vjava.ksfcim.com
p2800
F0.0008094960769124935
tp2801
(Vhipchat.uservoice.com
p2802
F0.000724622647940086
tp2803
(Vadmin.whisper.sh
p2804
F0.0006475412050106695
tp2805
(Vjira.onestop.com
p2806
F0.0005914292084508752
tp2807
(Vgit.popcorntime.io
p2808
F0.000583203811621506
tp2809
(Vissuetracker.marketlive.com
p2810
F0.0005164960213307816
tp2811
(Vclearvision-cm.com
p2812
F0.0005073806099918423
tp2813
(Vsilabs.saasit.com
p2814
F0.000442917956566037
tp2815
(Vstash.roamdata.com
p2816
F0.00043407542392107784
tp2817
(Vjira.cingular.net
p2818
F0.00042415019118044705
tp2819
(Vstash.corp.squareup.com
p2820
F0.0004211129807521637
tp2821
(Vricksoft.jp
p2822
F0.00032455100446937107
tp2823
tp2824
s((S'outlook.com'
p2825
tp2826
(ttp2827
((Vlogin.microsoftonline.com
p2828
F0.00902777041728998
tp2829
(Vmail.office365.com
p2830
F0.00900370815166812
tp2831
(Vlogin.wustl.edu
p2832
F0.004622911009971631
tp2833
(Vprodigy.msn.com
p2834
F0.004168393992927994
tp2835
(Vemail.osu.edu
p2836
F0.003624289186949393
tp2837
(Vt.prodigy.msn.com
p2838
F0.0034305096718851465
tp2839
(Vmy.jh.edu
p2840
F0.003292860959952708
tp2841
(Vqmail.qub.ac.uk
p2842
F0.0021183407644583385
tp2843
(Vmicrosoft.com
p2844
F0.001990757893535988
tp2845
(Vemail.uiowa.edu
p2846
F0.0015376630396296204
tp2847
(Vdur.ac.uk
p2848
F0.0014129783795088712
tp2849
(Vheelmail.unc.edu
p2850
F0.0013699234102888742
tp2851
tp2852
s((S'backbonejs.org'
p2853
tp2854
(ttp2855
((Vunderscorejs.org
p2856
F0.052351910121280675
tp2857
(Vmarionettejs.com
p2858
F0.01424370136249295
tp2859
(Vbackbonetutorials.com
p2860
F0.006810038364064541
tp2861
(Vaddyosmani.github.io
p2862
F0.004809211429000869
tp2863
(Vbeevehoiise11.common.eu.corp.toyota.com
p2864
F0.004788142128728707
tp2865
(Vdocumentcloud.org
p2866
F0.0026306778659092173
tp2867
(V10.208.112.77-88.ip.intelligencecenter.ci.thomsonreuters.com
p2868
F0.0022219787753505202
tp2869
(Vrequirejs.org
p2870
F0.0020999076557443475
tp2871
(Vjaphr.blogspot.fi
p2872
F0.0016169697985974282
tp2873
(Vfirebase.com
p2874
F0.0014982281836227026
tp2875
(Vbackbone.org
p2876
F0.0014645279276855076
tp2877
(Vlocalhost.adobecc.com
p2878
F0.0012817096090566346
tp2879
(Vapidoc.foodie.fm
p2880
F0.0012376678420059123
tp2881
(Vlocalhost.tapjoy.net
p2882
F0.0012325223796979486
tp2883
(Vgenomichealthinc.atlassian.net
p2884
F0.0011981337460055341
tp2885
(Vnumbbbbb.gitbooks.io
p2886
F0.0011629986222364776
tp2887
(Vlocal.gitrgitr.com
p2888
F0.00116160481651569
tp2889
(Vapp.codegrid.net
p2890
F0.0011123608282359511
tp2891
(Vadoreboard.slack.com
p2892
F0.0010289327139506364
tp2893
(Vlocal-geen.io
p2894
F0.0009993663128491023
tp2895
tp2896
s((S'blogspot.com'
p2897
tp2898
(ttp2899
((Vassemblagemagazine.blogspot.co.uk
p2900
F0.006541988631317168
tp2901
(Vm5newsroom.blogspot.com
p2902
F0.004036872954197155
tp2903
(Vynotdownload.blogspot.fr
p2904
F0.0022117442599623263
tp2905
(Vmthplay.blogspot.com
p2906
F0.0020413221935465056
tp2907
(Vhamidrezashaabani.blogspot.com
p2908
F0.0019204729711661645
tp2909
(Vaufannada.blogspot.com
p2910
F0.0017903645833333333
tp2911
(Vbpi.fr
p2912
F0.0017869947498546654
tp2913
(Vesmor.blogspots.com
p2914
F0.00178335979137614
tp2915
(Vnasirabdulsattar.blogspot.com
p2916
F0.0015214354157980588
tp2917
(Vblogdauyeu.blogspot.com
p2918
F0.0015159288469955333
tp2919
(Vnetnam.vn
p2920
F0.0015090202188512115
tp2921
(Vncngame.blogspot.com
p2922
F0.0015063179670179727
tp2923
(Vm88vn.com
p2924
F0.001409084418436105
tp2925
(Vmncshop.co.id
p2926
F0.001362530038324371
tp2927
(Vmywardrobesl.blogspot.com
p2928
F0.0011306262301520825
tp2929
(Vshishology.blogspot.com
p2930
F0.0010837903091795939
tp2931
(Vkaka1951989.blogspot.com
p2932
F0.0010813764505062807
tp2933
(Vblogspots.com
p2934
F0.0010752472369247685
tp2935
(Vapp-vn.blogspot.com
p2936
F0.0010721612178382198
tp2937
(Vchoukngok.blogspot.com
p2938
F0.0010719783990852125
tp2939
tp2940
s((S'python-requests.org'
p2941
tp2942
(ttp2943
((Vzhidaow.com
p2944
F0.009551755746611724
tp2945
(Vfreepythontips.wordpress.com
p2946
F0.006459608747061535
tp2947
(Vcrsmithdev.com
p2948
F0.003916645744413759
tp2949
(Vpythonforbeginners.com
p2950
F0.00257766774217122
tp2951
(Vdjrill.readthedocs.org
p2952
F0.002012919776840218
tp2953
(Vpypi.python.org
p2954
F0.0017488807041015017
tp2955
(Vsqlserverradio.co.il
p2956
F0.0015344216654011643
tp2957
(Vlftp.yar.ru
p2958
F0.0014730447987851177
tp2959
(Vcommunity.idolondemand.com
p2960
F0.0014134444923578169
tp2961
(Vlupaworld.com
p2962
F0.0012363183378873667
tp2963
(Vapi-help.campaigncommander.com
p2964
F0.0012157320254775146
tp2965
(Vcms.int.avast.com
p2966
F0.00106509819085949
tp2967
(V101skidka.slack.com
p2968
F0.001045992198313829
tp2969
(Vmy.itron.com
p2970
F0.0009469974323677864
tp2971
(Vgitlab.labs.nic.cz
p2972
F0.000788003055522052
tp2973
(Vcoupadev.atlassian.net
p2974
F0.0007800650703031773
tp2975
(Vctf.sobug.com
p2976
F0.0007446869450650168
tp2977
(Vpydoc.net
p2978
F0.0007438618658704967
tp2979
(Vcrummy.com
p2980
F0.0005123460621771358
tp2981
(Vhazel01.dot8.va.us.attask.com
p2982
F0.0004937072558779491
tp2983
tp2984
s((S'lifehacker.com'
p2985
tp2986
(ttp2987
(ts((S'gunnerkrigg.com'
p2988
tp2989
(ttp2990
((Vgirlgeniusonline.com
p2991
F0.009439667585454191
tp2992
(Vgirlswithslingshots.com
p2993
F0.009242892028943898
tp2994
(Vegscomics.com
p2995
F0.008097774648821466
tp2996
(Vscarygoround.com
p2997
F0.007006660582019215
tp2998
(Vgoblinscomic.org
p2999
F0.0069128804380564
tp3000
(Vquestionablecontent.net
p3001
F0.006064958164520688
tp3002
(Vguildedage.net
p3003
F0.005891175040168326
tp3004
(Vgogetaroomie.com
p3005
F0.0045087328783180855
tp3006
(Vsupernormalstep.com
p3007
F0.003742736516816444
tp3008
(Vdrmcninja.com
p3009
F0.003242028162921399
tp3010
(Vsandraandwoo.com
p3011
F0.00268718274817688
tp3012
(Vparanatural.net
p3013
F0.0019068338045492997
tp3014
(Vmonster-pulse.com
p3015
F0.00151062492454559
tp3016
tp3017
s((S'beta1.com'
p3018
tp3019
(ttp3020
(ts((S'bankrate.com'
p3021
tp3022
(ttp3023
((Vmortgagecalculator.org
p3024
F0.003674986761427938
tp3025
(Vbanrate.com
p3026
F0.0024237581029067125
tp3027
(Voptimalblue.com
p3028
F0.0014267289259495735
tp3029
(Vquickenloans.com
p3030
F0.0012738188802054122
tp3031
(Vw3.kubotalink.com
p3032
F0.001263829190928985
tp3033
(Vhsh.com
p3034
F0.0012327096241926128
tp3035
(Vfreddiemac.com
p3036
F0.0011495189740705278
tp3037
(Vmortgagenewsdaily.com
p3038
F0.00083906765896721
tp3039
(Vdealerdaily.toyota.com
p3040
F0.000807919706891282
tp3041
(Vbakrate.com
p3042
F0.000734880820206442
tp3043
(Vjobs.alpineaccess.com
p3044
F0.0006636771653698376
tp3045
(Vuiccu.mortgagewebcenter.com
p3046
F0.0005437095103291574
tp3047
(Vlendingtree.com
p3048
F0.0005310374295979765
tp3049
(Vcreditcards.com
p3050
F0.0005299372151525152
tp3051
(Vfranklinfirstfinancial.com
p3052
F0.0005052295897674785
tp3053
(Vfreemoneyfinance.com
p3054
F0.0004901845049979707
tp3055
(Vfoundationsu.com
p3056
F0.0004821683800864459
tp3057
(Vtrc.taboola.com
p3058
F0.00047723627944017615
tp3059
(Vcrm.studentloanhelp.info
p3060
F0.0004618004691505321
tp3061
(Vnerdwallet.com
p3062
F0.00043990024211160443
tp3063
tp3064
s((S'labnol.org'
p3065
tp3066
(ttp3067
((Vdictation.io
p3068
F0.053638048227418224
tp3069
(Vshoutmeloud.com
p3070
F0.006330967493765026
tp3071
(Vchandigarh.craigslist.co.in
p3072
F0.005956020018352308
tp3073
(Vctrlq.org
p3074
F0.003126295253718603
tp3075
(Vsoftwarerecs.stackexchange.com
p3076
F0.0024987468507650713
tp3077
(Vwarriorbreak.com
p3078
F0.0018003759225045986
tp3079
(Vdavidwalsh.name
p3080
F0.0017453391136774254
tp3081
(Vchillingeffects.org
p3082
F0.0010805928441890496
tp3083
(Vbocktherobber.com
p3084
F0.0010176242920439393
tp3085
(Vdeadurl.com
p3086
F0.0009012318677442234
tp3087
(Vcrack-net.com
p3088
F0.0008675788308667134
tp3089
(Vacessotop.semanatopenem.com
p3090
F0.0008457425669831452
tp3091
(Vplaytool.com
p3092
F0.000833971133323157
tp3093
(Vblog.teamtreehouse.com
p3094
F0.0007845697379048289
tp3095
(Vscript.google.com
p3096
F0.000775616447790688
tp3097
(Vcurso.aspasl.com
p3098
F0.0007295140509111274
tp3099
(Vmuro.sk
p3100
F0.0007203143020910928
tp3101
(Vdigitalhubinc.com
p3102
F0.0006249173569437375
tp3103
(Vmeteoalarm.eu
p3104
F0.0006155205087474934
tp3105
(Vbazqux.com
p3106
F0.0006142111911626334
tp3107
tp3108
s((S'microsoft.com'
p3109
tp3110
(ttp3111
((Vaccount.live.com
p3112
F0.03392699089457
tp3113
(Vsupport.skype.com
p3114
F0.0035348837961288793
tp3115
(Vsupport.google.com
p3116
F0.0034552858349033064
tp3117
(Vaz307127.vo.msecnd.net
p3118
F0.0022238317607300075
tp3119
(Vbing.com
p3120
F0.0021814967174457966
tp3121
(Vinsider.windows.com
p3122
F0.0020978542030613587
tp3123
(Vsupport.mozilla.org
p3124
F0.0014405952463219156
tp3125
(Vshell.windows.com
p3126
F0.0009299673249284091
tp3127
(Vwunderlist.com
p3128
F0.000919005584821735
tp3129
(Vsupport.office.com
p3130
F0.0008910745265042753
tp3131
(Vmozilla.org
p3132
F0.0008072399269828862
tp3133
(Voffice.com
p3134
F0.0007969000993079764
tp3135
(Vportal.office.com
p3136
F0.0005823095407318863
tp3137
(Vjava.com
p3138
F0.0005101489984820142
tp3139
(Vmystartsearch.com
p3140
F0.0004853991371988819
tp3141
(Vmicrosoftstore.com
p3142
F0.0004429218660199628
tp3143
(Viegallery.com
p3144
F0.00043285860820947095
tp3145
tp3146
s((S'speakerdeck.com'
p3147
tp3148
(ttp3149
((Vdemo.coffee-themes.com
p3150
F0.0039671592074744305
tp3151
(Vspeakerd.s3.amazonaws.com
p3152
F0.0031840326414409345
tp3153
(Vstartupsmart.com.au
p3154
F0.0024248497613811744
tp3155
(Vmaddisondesigns.com
p3156
F0.0023298317533521225
tp3157
(Vthemes-lab.com
p3158
F0.0022676382593878877
tp3159
(Vfontstruct.com
p3160
F0.0022317005850366494
tp3161
(Vreadability.com
p3162
F0.002135284711928032
tp3163
(Vadmin.smartphone.userlocal.jp
p3164
F0.002003364625203868
tp3165
(Vbagtheweb.com
p3166
F0.001999111954713731
tp3167
(Vclickwork7network.com
p3168
F0.0017965561747034368
tp3169
(Vinteractly.com
p3170
F0.0017284060116690148
tp3171
(Vtest.proxistore.com
p3172
F0.001579048509965591
tp3173
(Vrajhimself.com
p3174
F0.0013000119296729658
tp3175
(Vcodecondo.com
p3176
F0.001220573693455316
tp3177
(Vcss-happylife.com
p3178
F0.0011575611844464764
tp3179
(Vaneventapart.com
p3180
F0.0011068669516008853
tp3181
(Vmaketea.co.uk
p3182
F0.0009992090820833237
tp3183
(V960.gs
p3184
F0.0009955768862741556
tp3185
(Vgrapplemobile.atlassian.net
p3186
F0.000977010403519926
tp3187
(Vadmin.taggedpdf.com.au
p3188
F0.0008888000838847269
tp3189
tp3190
s((S'sitepoint.com'
p3191
tp3192
(ttp3193
((Vlearnable.com
p3194
F0.003775512545387916
tp3195
(Vtutsplus.com
p3196
F0.0018674564890191878
tp3197
(Vjquery4u.com
p3198
F0.0015746334577439493
tp3199
(Vsmashingmagazine.com
p3200
F0.0015285013069617425
tp3201
(Vphpdeveloper.org
p3202
F0.0009926448925364107
tp3203
(Vaskleo.com
p3204
F0.0007617632740019425
tp3205
(Vrockettheme.com
p3206
F0.0006841783339726206
tp3207
(Vohio.edu
p3208
F0.0006826065234712008
tp3209
(Vbaymard.com
p3210
F0.0005839645071941564
tp3211
(Vwfvrj.petrobras.com.br
p3212
F0.000577655622686037
tp3213
(Vflukeout.github.io
p3214
F0.0005158523372684569
tp3215
(Vcodeguide.hu
p3216
F0.0005057804575627206
tp3217
(Vdocs.angularjs.org
p3218
F0.0005039753917788309
tp3219
(Vrubyflow.com
p3220
F0.00047607335651278954
tp3221
(Vsocial.tesisquare.com
p3222
F0.0004735965093608097
tp3223
(Vmobility.synovus.com
p3224
F0.00046856522119488223
tp3225
(Vorder.sitepointmedia.com
p3226
F0.0004548368673123083
tp3227
(Vmanagewp.org
p3228
F0.00035966640079505813
tp3229
(Vapp.emailmeform.com
p3230
F0.0002865970293783667
tp3231
(Vhealthclubsystems.com
p3232
F0.0002705686531720551
tp3233
tp3234
s((S'goldsteintech.com'
p3235
tp3236
(ttp3237
(ts((S'history.com'
p3238
tp3239
(ttp3240
((Vaetv.com
p3241
F0.00798236133012671
tp3242
(Vthisdayinrock.com
p3243
F0.0037971496161920237
tp3244
(Vhistorynet.com
p3245
F0.0030760712668171076
tp3246
(Vdiscovery.com
p3247
F0.0021861770845481867
tp3248
(Von-this-day.com
p3249
F0.001472630734754977
tp3250
(Vtravelchannel.com
p3251
F0.001415992886466294
tp3252
(Vbiography.com
p3253
F0.0013597998334544566
tp3254
(Vunileverpc.com
p3255
F0.0012406136238727436
tp3256
(Voptimum.net
p3257
F0.0010563923348507547
tp3258
(Vdailyupliftingquotes.com
p3259
F0.000970086295744522
tp3260
(Vtodayinliterature.com
p3261
F0.0007611890843539773
tp3262
(Vmylifetime.com
p3263
F0.0007440318299485829
tp3264
(Vactivate.fox.com
p3265
F0.000740355482017051
tp3266
(Vwatchtveverywhere.com
p3267
F0.0007079766794187768
tp3268
(Vhistoryorb.com
p3269
F0.0006006680921527825
tp3270
(Vnationaldaycalendar.com
p3271
F0.0005802684968778012
tp3272
(Vushistory.org
p3273
F0.000472393245433172
tp3274
(Vmail.colton.k12.ca.us
p3275
F0.00046702853469422615
tp3276
(Vmyhatchets.haikulearning.com
p3277
F0.00035607368402211693
tp3278
tp3279
s((S'alpha33.com'
p3280
tp3281
(ttp3282
(ts((S'stakeventures.com'
p3283
tp3284
(ttp3285
(ts((S'andismith.com'
p3286
tp3287
(ttp3288
(ts((S'alpha20.com'
p3289
tp3290
(ttp3291
(ts((S'scrum.com.ar'
p3292
tp3293
(ttp3294
((Vperiodismo-rugby.com.ar
p3295
F0.025796327659289454
tp3296
(Vmeroarte.com
p3297
F0.020779018638857543
tp3298
(Vmizuno-git.com
p3299
F0.010703333266521016
tp3300
(Vsvbconnect.com
p3301
F0.0005023683752522426
tp3302
(Vrugbytime.com
p3303
F0.00038868612429404886
tp3304
(Vsantanderrio.com.ar
p3305
F0.0001372765208905704
tp3306
(Vcuevana2.tv
p3307
F2.4933756285792956e-05
tp3308
(Vfacebook.com
p3309
F4.998209297404983e-09
tp3310
(Vyoutube.com
p3311
F9.217594026954177e-10
tp3312
tp3313
s((S'jasonseifer.com'
p3314
tp3315
(ttp3316
((Vauto.pubtest.internal.33across.com
p3317
F0.01332036660478001
tp3318
(Vjuanpabloprado.com
p3319
F0.007676274719129683
tp3320
(Vpichost.me
p3321
F0.00024074733939569222
tp3322
(Vteamtreehouse.com
p3323
F0.00023630208318629474
tp3324
(Vmartinfowler.com
p3325
F8.655217132744378e-05
tp3326
(Vraindrop.io
p3327
F2.303324849420138e-05
tp3328
(Vdigitalocean.com
p3329
F5.704592440587661e-06
tp3330
(Vencrypted.google.com
p3331
F2.6578255453102915e-06
tp3332
(Vpivotaltracker.com
p3333
F8.601690807198737e-07
tp3334
(Vstackoverflow.com
p3335
F7.90829840897358e-07
tp3336
(Vb.hatena.ne.jp
p3337
F3.9690572298361973e-07
tp3338
(Vgithub.com
p3339
F8.47725944524667e-08
tp3340
tp3341
s((S'machonora.co.il'
p3342
tp3343
(ttp3344
(ts((S'facebook.com'
p3345
tp3346
(ttp3347
(ts((S'optimalblue.com'
p3348
tp3349
(ttp3350
((Vcitrix.primelending.com
p3351
F0.01983806998658364
tp3352
(Vmyhome.ephmc.com
p3353
F0.016720531392230547
tp3354
(Vfidelitypassport.com
p3355
F0.01087249587963097
tp3356
(Vfwprodweb1.firstam.com
p3357
F0.008999345804891831
tp3358
(Vmbshighway.com
p3359
F0.006312007531425715
tp3360
(Vapp.mbslive.net
p3361
F0.006148799715304694
tp3362
(Vloanbright.com
p3363
F0.005486635184313487
tp3364
(Vcertmail.com
p3365
F0.004539485775908838
tp3366
(Vadmin.icanbuy.com
p3367
F0.004302288065316919
tp3368
(Vawh1-standard-v1.loankatalyst3.net
p3369
F0.004188018819862747
tp3370
(Vadvertiser.bankrate.com
p3371
F0.0039302373731837726
tp3372
(Vvalutrust.com
p3373
F0.003728968651207271
tp3374
(Vbayeq.sharepoint.com
p3375
F0.0033966070386933695
tp3376
(Vbestrateusa.com
p3377
F0.002661144791224875
tp3378
(Vmlive.benchmarklogin.com
p3379
F0.002634990218954017
tp3380
(Vadmin.mortgagedashboard.com
p3381
F0.002564102564102564
tp3382
(Vmandalaybay.com
p3383
F0.002411923893121066
tp3384
(Vlm.velocify.com
p3385
F0.0022535245289155587
tp3386
(Vsharepoint.alpinemc.com
p3387
F0.001958819698411903
tp3388
(Vgwrs.com
p3389
F0.001636530069401655
tp3390
tp3391
s((S'voormedia.com'
p3392
tp3393
(ttp3394
(ts((S'lodash.com'
p3395
tp3396
(ttp3397
((Vnpmjs.org
p3398
F0.009589273778824653
tp3399
(Vunderscorejs.org
p3400
F0.007571979538976456
tp3401
(Vangular-ui.github.io
p3402
F0.0029675898311779716
tp3403
(Vlocalhost.jam3.net
p3404
F0.002377031407181265
tp3405
(Vpa.staging-cauth.factset.com
p3406
F0.00209499866681903
tp3407
(Vgithub.va.opower.it
p3408
F0.001964117417781993
tp3409
(Vdevdocs.io
p3410
F0.001877080163686683
tp3411
(Vgithub.ua.com
p3412
F0.0017646045688696824
tp3413
(Vbackbonejs.org
p3414
F0.0014656836702782712
tp3415
(Vgithub.yandex-team.ru
p3416
F0.0012739152585747456
tp3417
(Vblog.codecentric.de
p3418
F0.001212875661246421
tp3419
(Vmydatacards.com
p3420
F0.0009981420548767995
tp3421
(Vthoraxjs.org
p3422
F0.0008747890308158014
tp3423
(Vkitcheck.invisionapp.com
p3424
F0.0008682676282988721
tp3425
(Vwebradar.slack.com
p3426
F0.0008432386315725078
tp3427
(Vmomentjs.com
p3428
F0.0008407096971832771
tp3429
(Vmukesh.next.in-dev.projectplace.com
p3430
F0.0007987947036965482
tp3431
(Vwiki.nginx.org
p3432
F0.0007610293991208612
tp3433
(Vexport.ngrok.com
p3434
F0.0007502959434867858
tp3435
(Vsublimecodeintel.github.io
p3436
F0.0006802616645388807
tp3437
tp3438
s((S'rubygems.org'
p3439
tp3440
(ttp3441
((Vruby-toolbox.com
p3442
F0.01206055779836604
tp3443
(Vpages.github.com
p3444
F0.004997034254860121
tp3445
(Vrubyonrails.org
p3446
F0.00481526387462105
tp3447
(Vdevelopers.openshift.com
p3448
F0.0023178570882459487
tp3449
(Vbundler.io
p3450
F0.0017670028284599824
tp3451
(Vinstallationpage.com
p3452
F0.0016151346055828053
tp3453
(Vomniref.com
p3454
F0.0015108649549913557
tp3455
(Vgemcutter.org
p3456
F0.0014802196734265347
tp3457
(Vmiddlemanapp.com
p3458
F0.0012486029365913092
tp3459
(Vpooreffort.com
p3460
F0.0009912181331515474
tp3461
(V55f84d03.ngrok.com
p3462
F0.000945100112700561
tp3463
(Vrubygems.globoi.com
p3464
F0.0008163334867154081
tp3465
(Vrailstutorial.org
p3466
F0.0007530830774446386
tp3467
(Vrollbar.com
p3468
F0.0007483487605642157
tp3469
(Vpaularmstrong.github.io
p3470
F0.000741369433165859
tp3471
(Vweblog.rubyonrails.org
p3472
F0.0007152577482385617
tp3473
(Vapp.zencoder.com
p3474
F0.0006750962082566099
tp3475
(Vrubydoc.info
p3476
F0.0006634105078797862
tp3477
(Vrelishapp.com
p3478
F0.0005654509471303364
tp3479
(Vruby-china.org
p3480
F0.000540025247740669
tp3481
tp3482
s((S'google.co.uk'
p3483
tp3484
(ttp3485
((Vbbc.co.uk
p3486
F0.015803661828799845
tp3487
(Vuk.search.yahoo.com
p3488
F0.015624271888821255
tp3489
(Vamazon.co.uk
p3490
F0.009254315963283003
tp3491
(Vebay.co.uk
p3492
F0.008528257560579584
tp3493
(Ven.wikipedia.org
p3494
F0.004255091317020974
tp3495
(Vreddit.com
p3496
F0.003980648583379911
tp3497
(Vdailymail.co.uk
p3498
F0.0038733698459187693
tp3499
(Vsearch.safefinder.com
p3500
F0.0028345322202820732
tp3501
(Vyoutube.com
p3502
F0.00276943281382409
tp3503
(Vtwitter.com
p3504
F0.002499320864991151
tp3505
(Vuk.msn.com
p3506
F0.0014519535531925948
tp3507
(Vaccounts.youtube.com
p3508
F0.0014106376960693401
tp3509
(Vtheguardian.com
p3510
F0.0012393448640209122
tp3511
(Vcr2.gogorithm.com
p3512
F0.001229652212371702
tp3513
tp3514
s((S'padolsey.com'
p3515
tp3516
(ttp3517
((Vpapagoarchery.com
p3518
F0.010473375849017473
tp3519
(Vvintagephotoboothnyc.com
p3520
F0.00996644957568581
tp3521
(Vwebmail.digitalgear.com
p3522
F0.007198731312699346
tp3523
(Vgod.richard.dev.xen.lan.expert-shops.com
p3524
F0.005221312448083541
tp3525
(Vfoaas.com
p3526
F0.005002293011606166
tp3527
(Vcnfeat.com
p3528
F0.00401750239583653
tp3529
(Vwifi.weixin.qq.com
p3530
F0.003792761744407321
tp3531
(Vfrontend.richard.dev.xen.lan.expert-shops.com
p3532
F0.0036325652028917203
tp3533
(Vjira.foryouandyourteam.com
p3534
F0.003233026610295946
tp3535
(Vicescrum.i-dalgo2.com
p3536
F0.003064895530648955
tp3537
(Vabgmanagementlimited.quickbase.com
p3538
F0.002340158796489762
tp3539
(Vsave-dep-mukku.blogspot.jp
p3540
F0.0023262142399424154
tp3541
(Vzero11.com.br
p3542
F0.0023032042085126734
tp3543
(Vwiki.s00.jp
p3544
F0.002212426322029087
tp3545
(Vozekisms.com
p3546
F0.0018377987713592483
tp3547
(Vzhangxinxu.com
p3548
F0.0016898954023123237
tp3549
(Vcvmlrobotics.blogspot.com
p3550
F0.0016786257882148291
tp3551
(Vredwoods.com
p3552
F0.0016160499719493919
tp3553
(Vrandomsnippets.com
p3554
F0.0013289677088390124
tp3555
(Vejohn.org
p3556
F0.0012231300524343327
tp3557
tp3558
s((S'reddit.com'
p3559
tp3560
(ttp3561
(ts((S'apidoc.com'
p3562
tp3563
(ttp3564
((Vapi.doc.com
p3565
F0.1111111111111111
tp3566
(Vapi.gehealthcare.com
p3567
F0.009782125389061804
tp3568
(Vapidock.com
p3569
F3.2379614904614277e-05
tp3570
tp3571
s((S'i24news.tv'
p3572
tp3573
(ttp3574
((Vrennes.lachainemeteo.com
p3575
F0.00468292644909776
tp3576
(Vlemondejuif.info
p3577
F0.004387935309231987
tp3578
(Vjssnews.com
p3579
F0.004164640288025922
tp3580
(Vleptithebdo.net
p3581
F0.003098776616004658
tp3582
(Vtimesofisrael.com
p3583
F0.002711492216534628
tp3584
(Valyaexpress-news.com
p3585
F0.002571403163151315
tp3586
(Vradiosefarad.com
p3587
F0.0025062700028492934
tp3588
(Visraelvalley.com
p3589
F0.0022872080752209477
tp3590
(Valgemeiner.com
p3591
F0.0019501566945073706
tp3592
(Vwebmail.iol.ie
p3593
F0.0019231524746251595
tp3594
(Vdesinfos.com
p3595
F0.0017560327406442066
tp3596
(Vlive365.com
p3597
F0.0016302625895597536
tp3598
(Vautoplus.fr
p3599
F0.0012783939244758692
tp3600
(Vaustriafans.at
p3601
F0.0012205558921185196
tp3602
(Vynetnews.com
p3603
F0.0010145643134756922
tp3604
(Vactualite-israel.com
p3605
F0.0009098184680634319
tp3606
(Vforward.com
p3607
F0.0008924053363877785
tp3608
(Vevoncomics.com
p3609
F0.0008790989236033066
tp3610
(Vinformazionecorretta.com
p3611
F0.0008390774330948237
tp3612
(Vterredisrael.com
p3613
F0.0008049931824395568
tp3614
tp3615
s((S'alpha39.com'
p3616
tp3617
(ttp3618
(ts((S'tumblr.com'
p3619
tp3620
(ttp3621
((Vtwitter.com
p3622
F0.006112085907840489
tp3623
(Vinstagram.com
p3624
F0.004753110717257154
tp3625
(Vdeviantart.com
p3626
F0.003922446936560615
tp3627
(Vask.fm
p3628
F0.003470243156408712
tp3629
(Vpinterest.com
p3630
F0.002934967373398064
tp3631
(Varchiveofourown.org
p3632
F0.0028338961221619067
tp3633
(Vreddit.com
p3634
F0.002459523813375636
tp3635
(Vbuzzfeed.com
p3636
F0.0020751790462780494
tp3637
(Vboards.4chan.org
p3638
F0.0014313565391646883
tp3639
(Vnetflix.com
p3640
F0.001311766682809538
tp3641
(Vminecraft.net
p3642
F0.0010887049928781042
tp3643
(Vfanfiction.net
p3644
F0.0007048296964225392
tp3645
tp3646
s((S'beta4.com'
p3647
tp3648
(ttp3649
(ts((S'commonplacebooks.com'
p3650
tp3651
(ttp3652
((Vkramererik.deviantart.com
p3653
F0.015912611627483142
tp3654
(Vnightvale.libsyn.com
p3655
F0.004891842165512066
tp3656
(Vsickassbonedragon.tumblr.com
p3657
F0.004180983198229754
tp3658
(Vodpod.se
p3659
F0.003780363823003958
tp3660
(Vcommonplacebook.com
p3661
F0.002837868418316484
tp3662
(Vdisparition.info
p3663
F0.002731468399736272
tp3664
(Vsweetsweetlisteners.tumblr.com
p3665
F0.0027084135934344316
tp3666
(Vdiamond-wireless.com
p3667
F0.002443815934311913
tp3668
(Votterondeck.tumblr.com
p3669
F0.002334534271636531
tp3670
(Vtoplist.xyz
p3671
F0.0016374744497521202
tp3672
(Vhenrico.edmodo.com
p3673
F0.0014302764872409473
tp3674
(Vchinesedragons.sitedrop.com
p3675
F0.0014083237567317876
tp3676
(Vsteveandtony.co.vu
p3677
F0.0013530789544898894
tp3678
(Vjoinebookdownload.org
p3679
F0.001352967599131936
tp3680
(Vlib.westcler.org
p3681
F0.0012731587578044632
tp3682
(Vinnsmouthfreepress.com
p3683
F0.0012646249514863704
tp3684
(Vhun7ersgrove.blogspot.jp
p3685
F0.0010866510538641687
tp3686
(Vpodbay.fm
p3687
F0.0009363738590677165
tp3688
(Vdedicatedquill.blogspot.hu
p3689
F0.0009038352374496415
tp3690
(Vpaperalligator.com
p3691
F0.0008161978166708405
tp3692
tp3693
s((S'ruby-lang.org'
p3694
tp3695
(ttp3696
((Vcas-01.uni.ad.sunderland.ac.uk
p3697
F0.012872928541706572
tp3698
(Vref.xaio.jp
p3699
F0.004998883713543663
tp3700
(Vrubyforge.org
p3701
F0.003566180092713265
tp3702
(Vguides.ruby.tw
p3703
F0.0033659435810147755
tp3704
(Vopenshift.com
p3705
F0.003261580787297741
tp3706
(Vjemmywalker.pixnet.net
p3707
F0.0028971000803575207
tp3708
(Vblade.nagaokaut.ac.jp
p3709
F0.0024790205130732737
tp3710
(Vruby-auf-schienen.de
p3711
F0.0022711603195847024
tp3712
(Vrubyclub.blogspot.com
p3713
F0.0021561004694637754
tp3714
(Vhelp.rallydev.com
p3715
F0.002068458282306121
tp3716
(Vruby-doc.com
p3717
F0.0019892545575918353
tp3718
(Vrailsdoc.com
p3719
F0.0019050279129559802
tp3720
(Vtheadmin.org
p3721
F0.0019036383809625046
tp3722
(Vbebo.com
p3723
F0.0018038020923432463
tp3724
(Vpine.fm
p3725
F0.001572538640588942
tp3726
(Vsldn.softlayer.com
p3727
F0.0015296219648572567
tp3728
(Vrubyinstaller.org
p3729
F0.0015030799755354062
tp3730
(Vfoad.simplon.co
p3731
F0.0014549651702471815
tp3732
(Vrusrails.ru
p3733
F0.001415963079495097
tp3734
(Vcharliewaite.me
p3735
F0.001348086772597759
tp3736
tp3737
s((S'technion.ac.il'
p3738
tp3739
(ttp3740
(ts((S'github.io'
p3741
tp3742
(ttp3743
((Vlukecarbis.github.io
p3744
F0.019639527656929768
tp3745
(Vbuke.github.io
p3746
F0.013217398454201612
tp3747
(Vbriangordon.github.io
p3748
F0.009287699283311393
tp3749
(Vgpeyre.github.io
p3750
F0.008611401092566274
tp3751
(V6889692.github.io
p3752
F0.008225091134009764
tp3753
(Vmattsharpe.github.io
p3754
F0.00815808798985246
tp3755
(Vkalakuh.github.io
p3756
F0.007584589614740369
tp3757
(Vstevejwikeley.github.io
p3758
F0.00743578488101414
tp3759
(Vgovlab.github.io
p3760
F0.005946039187036417
tp3761
(Vlopezrj.github.io
p3762
F0.005642699636979904
tp3763
(Vrweather.github.io
p3764
F0.005466472303206997
tp3765
(Vharrydeluxe.github.io
p3766
F0.005292730375055698
tp3767
(Vfavoorr.github.io
p3768
F0.004616774648508087
tp3769
(Vthink2011.github.io
p3770
F0.004302731567056891
tp3771
(Vlxc-webpanel.github.io
p3772
F0.00421468554494567
tp3773
(Viamtrask.github.io
p3774
F0.003928938799817474
tp3775
(Vgit.github.io
p3776
F0.0037792006892635455
tp3777
(Vjakiestfu.github.io
p3778
F0.0036454348083036284
tp3779
(Vigorescobar.github.io
p3780
F0.0036386593204775024
tp3781
(Vwxfengyun.github.io
p3782
F0.0036010132128431577
tp3783
tp3784
s((S'alpha.com'
p3785
tp3786
(ttp3787
((Vflashmusictracks.com
p3788
F0.03084234066343645
tp3789
(Vveexinc.com
p3790
F0.02566152206439976
tp3791
(Valphayouthfilmseries.com
p3792
F0.01272843204485028
tp3793
(Valphagame.com
p3794
F0.012381591705825314
tp3795
(Vbedsdirect-ardmore.com
p3796
F0.007470136665633929
tp3797
(Vkk-alpha.com
p3798
F0.007401414359343161
tp3799
(Valphagroup.com
p3800
F0.007136390264685519
tp3801
(Vwearealpha.ca
p3802
F0.005797101449275362
tp3803
(Valfa.com
p3804
F0.004664162782205082
tp3805
(Vteluguweb.in
p3806
F0.003982892274792836
tp3807
(Vnoram-eng.com
p3808
F0.00393360081818897
tp3809
(Veshre.eu
p3810
F0.0037174721189591076
tp3811
(Vnewsumontheweb.org
p3812
F0.0036302495318888766
tp3813
(Vcheck-alpha.com
p3814
F0.0031749589122964292
tp3815
(Valfa-chemistry.com
p3816
F0.002835487213043241
tp3817
(Vsolarpowerrocks.com
p3818
F0.002806772470347807
tp3819
(Vkerryexpress.com
p3820
F0.0027217594622241706
tp3821
(Vlkp.com
p3822
F0.002395657870110425
tp3823
(Vcroline.com
p3824
F0.0017521257407884566
tp3825
(Vaksci.com
p3826
F0.0016539834760689266
tp3827
tp3828
s((S'scirra.com'
p3829
tp3830
(ttp3831
((Vc2community.ru
p3832
F0.007406235634299808
tp3833
(Vforums.tigsource.com
p3834
F0.006516674763500749
tp3835
(Vschwer-muta.blogspot.com
p3836
F0.0023252657005772242
tp3837
(Vwayofthepixel.net
p3838
F0.001771588111111012
tp3839
(Vblog.rubukkit.org
p3840
F0.001722506455389649
tp3841
(Vgamedev.ru
p3842
F0.00155671710308373
tp3843
(Velm-lang.org
p3844
F0.001454633678371806
tp3845
(Vkaamelott.co
p3846
F0.0014379499425883405
tp3847
(Vapp.mopub.com
p3848
F0.0013974901440273661
tp3849
(Vgame.9128.com
p3850
F0.001325856745272391
tp3851
(Vbases-hacking.org
p3852
F0.0012120643217503788
tp3853
(Va710594.byethost24.com
p3854
F0.0011639507815098104
tp3855
(Vyoyogames.com
p3856
F0.0010952749740584789
tp3857
(Vforums.wasabistudio.ca
p3858
F0.0010359152424912791
tp3859
(Velbitcoin.org
p3860
F0.0010213289204327799
tp3861
(Vstencyl.com
p3862
F0.0009509958272804534
tp3863
(Vfilmin.es
p3864
F0.000825167958358985
tp3865
(Vwowgame.jp
p3866
F0.0007702468672979726
tp3867
(Vcollaboration.swisscom.com
p3868
F0.0007476651600406859
tp3869
(Vfpl78.free.fr
p3870
F0.000719450980093071
tp3871
tp3872
s((S'chromium.org'
p3873
tp3874
(ttp3875
((Vdeveloper.chrome.com
p3876
F0.022100752027343448
tp3877
(Vjohnlewis.ie
p3878
F0.008052545533720222
tp3879
(Vimperialviolet.org
p3880
F0.004177426369874129
tp3881
(Vdownload-chromium.appspot.com
p3882
F0.004009500944262519
tp3883
(Vscotthelme.co.uk
p3884
F0.003532999099854658
tp3885
(Vcode.google.com
p3886
F0.002697460919000486
tp3887
(Vchromium.googlesource.com
p3888
F0.0020873460363834335
tp3889
(Vproductforums.google.com
p3890
F0.001335644399033382
tp3891
(Vwiki.archlinux.org
p3892
F0.0012934590063155952
tp3893
(Vkb.sitecore.net
p3894
F0.001156154586531049
tp3895
(Vblogmicrosoftbrasil.com.br
p3896
F0.0010548510155260927
tp3897
(Vexample.com
p3898
F0.0003803379258623619
tp3899
(Vdownloads.yahoo.com
p3900
F0.00034267692060830046
tp3901
(Vjava.com
p3902
F0.00031751464182818584
tp3903
(Vminutoms.com.br
p3904
F0.00029505951595761227
tp3905
(Vmattcutts.com
p3906
F0.0002391419420138638
tp3907
(Vgigaom.com
p3908
F0.00023660680057301445
tp3909
(Vcorom.vn
p3910
F0.00023047213023705282
tp3911
(Vvpnhelp.homeawaycorp.com
p3912
F0.0002284515048063452
tp3913
tp3914
s((S'mapbox.com'
p3915
tp3916
(ttp3917
((Vleafletjs.com
p3918
F0.006776474048673657
tp3919
(Vaxt.es
p3920
F0.004903544740889539
tp3921
(Vaudio.de
p3922
F0.002446311132466927
tp3923
(Vhelp.pinterest.com
p3924
F0.002309147933372557
tp3925
(Vbl.ocks.org
p3926
F0.0019948152231505575
tp3927
(Vopenstreetmap.org
p3928
F0.0017800319088303231
tp3929
(Vweatheranalytics.slack.com
p3930
F0.001595527962004445
tp3931
(Vsilkco.hipchat.com
p3932
F0.0015026812776871065
tp3933
(Vcharity.org
p3934
F0.001456835457272847
tp3935
(Vpostgis.refractions.net
p3936
F0.0013324898664654238
tp3937
(Vknightcenter.utexas.edu
p3938
F0.0013041501458502557
tp3939
(Vopenlayers.org
p3940
F0.0012678446342292145
tp3941
(Vskikluberlach.ch
p3942
F0.001168450487852876
tp3943
(Vjeanabbiateci.cartodb.com
p3944
F0.0011632982368822817
tp3945
(Vmaps.stamen.com
p3946
F0.0011243722479106313
tp3947
(Vvisual.ly
p3948
F0.0009135851548380657
tp3949
(Vcartodb.com
p3950
F0.0008342804494771836
tp3951
(Vip-ts.ru
p3952
F0.0008181712732816332
tp3953
(Vgis.stackexchange.com
p3954
F0.0008168538612022074
tp3955
(Vbitme.org
p3956
F0.0007534203427784824
tp3957
tp3958
s((S'spacerogue.net'
p3959
tp3960
(ttp3961
((Vhackernews.net
p3962
F0.024155455904334825
tp3963
(Vinfosyssec.com
p3964
F0.004150334332487894
tp3965
(Vhackernews.com
p3966
F0.0014944332361951729
tp3967
(Vcryptome.org
p3968
F0.00023388730759197143
tp3969
(Vthehackernews.com
p3970
F0.000122848694061342
tp3971
(Vveooz.com
p3972
F9.796456354560474e-05
tp3973
(Vfilterbypass.me
p3974
F7.876594125299797e-05
tp3975
(Vfiles.t-square.gatech.edu
p3976
F3.667372426806653e-05
tp3977
(Vassembla.com
p3978
F5.356854781678878e-06
tp3979
(Vtechcrunch.com
p3980
F2.394271525133206e-06
tp3981
(Vt.co
p3982
F4.0062931302635475e-07
tp3983
(Vstackoverflow.com
p3984
F3.5988874690424153e-07
tp3985
(Vnews.ycombinator.com
p3986
F3.0522565362431473e-07
tp3987
(Veksisozluk.com
p3988
F2.9312384389517315e-07
tp3989
(Vduckduckgo.com
p3990
F2.4303376673617145e-07
tp3991
(Vmashable.com
p3992
F2.337746074512313e-07
tp3993
(Vsnt146.mail.live.com
p3994
F9.130484595356827e-08
tp3995
(Vgoogle.com
p3996
F4.3152848834315e-08
tp3997
(Vgoogle.ca
p3998
F8.15280842751372e-09
tp3999
(Vfacebook.com
p4000
F4.5654615426760247e-10
tp4001
tp4002
s((S'alpha28.com'
p4003
tp4004
(ttp4005
(ts((S'beta10.com'
p4006
tp4007
(ttp4008
(ts((S'oranlooney.com'
p4009
tp4010
(ttp4011
((Vnpmjs.org
p4012
F9.37878187396508e-06
tp4013
(Vsearch.disconnect.me
p4014
F2.222519934059104e-06
tp4015
(Vgithub.com
p4016
F1.2404606312831473e-07
tp4017
(Vgoogle.com.ua
p4018
F1.1512227389007056e-07
tp4019
(Vbing.com
p4020
F4.6492935284599696e-08
tp4021
tp4022
s((S'backbonetutorials.com'
p4023
tp4024
(ttp4025
((Vrjduran.net
p4026
F0.005066166586997112
tp4027
(Vstash.sinclairstoryline.com
p4028
F0.004937799652761186
tp4029
(Vchina-herb-co.myshopify.com
p4030
F0.004731209454154787
tp4031
(Vpanda3d.org
p4032
F0.0044343415562579595
tp4033
(Valertify.com
p4034
F0.003870331254822104
tp4035
(Vstevenschobert.com
p4036
F0.00360101451658977
tp4037
(Vmoodle.ncirl.ie
p4038
F0.003352232553153303
tp4039
(Vthomasdavis.github.io
p4040
F0.003305601245957393
tp4041
(Vkapitalguiden.no
p4042
F0.0032637178139367025
tp4043
(Vblog.andyet.com
p4044
F0.0027620852402745998
tp4045
(Vbackbonejs.org
p4046
F0.002495619542375247
tp4047
(Vbackboneindex.com
p4048
F0.0024065540194572453
tp4049
(Vaiken.basecamphq.com
p4050
F0.002299121287059312
tp4051
(Vmts.dev.aiken.ua
p4052
F0.002203448127606518
tp4053
(Vregistry.jsonresume.org
p4054
F0.002124866500533998
tp4055
(Vbackbonejs.zeef.com
p4056
F0.0020697148967729695
tp4057
(Vbackbone.codeschool.com
p4058
F0.0020682939932176072
tp4059
(Vtechtalkshq.com
p4060
F0.0018981575217655396
tp4061
(Vdocumentscloud.github.com
p4062
F0.0018705846030910049
tp4063
(Vsitthetest.com
p4064
F0.001827157891038142
tp4065
tp4066
s((S'ebay.com'
p4067
tp4068
(ttp4069
((Vamazon.com
p4070
F0.010715418955713561
tp4071
(Vpaypal.com
p4072
F0.004491756406860376
tp4073
(Vetsy.com
p4074
F0.003662715716951191
tp4075
(Vslickdeals.net
p4076
F0.003069012319460808
tp4077
(Valiexpress.com
p4078
F0.0028328755606823754
tp4079
(Vus-mg6.mail.yahoo.com
p4080
F0.0019084091674699396
tp4081
(Vwalmart.com
p4082
F0.0017906265490819154
tp4083
(Ve.mail.ru
p4084
F0.0016764064461063679
tp4085
(Vgoogle.com
p4086
F0.0010756325212520402
tp4087
(Vautobia.com
p4088
F0.0008751469412171619
tp4089
(Vbestbuy.com
p4090
F0.0006417003644546833
tp4091
(Vnewegg.com
p4092
F0.0005644308027097123
tp4093
(Vmail.aol.com
p4094
F0.0004919381996496611
tp4095
tp4096
s((S'alpha4.com'
p4097
tp4098
(ttp4099
((Vgoogle.com.au
p4100
F8.213878316722479e-08
tp4101
tp4102
s((S'beadworksphiladelphia.com'
p4103
tp4104
(ttp4105
(ts((S'js2coffee.org'
p4106
tp4107
(ttp4108
((Vcoffeescript.org
p4109
F0.02403601296273028
tp4110
(Vmarkdotto.com
p4111
F0.005252514264432705
tp4112
(Vapi.jquery.com
p4113
F0.00357281252711641
tp4114
(Vtwitter.github.io
p4115
F0.0024109253293020856
tp4116
(Vfabricjs.com
p4117
F0.002098906052196327
tp4118
(Vatmospherejs.com
p4119
F0.0020051451935951983
tp4120
(Vpricemania.developer3.cz
p4121
F0.001954454153921506
tp4122
(Vinterone.de
p4123
F0.001889860252037865
tp4124
(Vbackbonejs.org
p4125
F0.0016524226073758618
tp4126
(Vshashankshetty.wordpress.com
p4127
F0.0015940524041622571
tp4128
(Vhtml2slim.herokuapp.com
p4129
F0.001486480127681469
tp4130
(Vplnkr.co
p4131
F0.001417112728794347
tp4132
(Vwebpack.github.io
p4133
F0.0013926971883895002
tp4134
(Vcoffeescriptlove.com
p4135
F0.0013925155542500076
tp4136
(Vsatellizer.herokuapp.com
p4137
F0.0013897405960784026
tp4138
(Vhtml2haml.herokuapp.com
p4139
F0.0012901440927272467
tp4140
(Vsearchdiscovery.com
p4141
F0.0012827879039783538
tp4142
(Vvisjs.org
p4143
F0.0012348514023426435
tp4144
(Vrightinbox.desk.com
p4145
F0.0011828622717916515
tp4146
(Vemberjs.jsbin.com
p4147
F0.0011601727623598602
tp4148
tp4149
s((S'herokuapp.com'
p4150
tp4151
(ttp4152
((Vsr-prod-icloud-proxy.herokuapp.com
p4153
F0.08161429214060793
tp4154
(Vandroid-arsenal.herokuapp.com
p4155
F0.07801101682298646
tp4156
(Vadvoca.com
p4157
F0.02923353690290205
tp4158
(Vgovuk-verify.herokuapp.com
p4159
F0.02790615001777462
tp4160
(Vmalcolmahoy.com
p4161
F0.022625781482584106
tp4162
(Vlaas.herokuapp.com
p4163
F0.008699556603244092
tp4164
(Vsmr-candidates.herokuapp.com
p4165
F0.007872684682073946
tp4166
(Vsfmdemo.herokuapp.com
p4167
F0.006455193363710713
tp4168
(Vospc-taxes.herokuapp.com
p4169
F0.0061363899502141946
tp4170
(Vremembr.herokuapp.com
p4171
F0.0059229458273964185
tp4172
(Vstackedit-beta.herokuapp.com
p4173
F0.005875879718490083
tp4174
(Vroskilde.dev.umwelt.dk
p4175
F0.005602763201122328
tp4176
(Vnetshowmefront.herokuapp.com
p4177
F0.005175252881674901
tp4178
(Vneighbormate.com
p4179
F0.004572710409386998
tp4180
(Vsantbook.herokuapp.com
p4181
F0.0042283874839730475
tp4182
(Vsfdc-styleguide.herokuapp.com
p4183
F0.003398698656172439
tp4184
(Vthesportsphysio.wordpress.com
p4185
F0.0033295640155798466
tp4186
(Vdicks-api.herokuapp.com
p4187
F0.00273224043715847
tp4188
(Vmbahroni.us
p4189
F0.0015688217323094706
tp4190
(Vpapertrailapp.com
p4191
F0.00042209412837909606
tp4192
tp4193
s((S'spotad.co'
p4194
tp4195
(ttp4196
((Vinnolance.com
p4197
F0.002733964248159832
tp4198
(Vnewincite.com
p4199
F0.0021574973031283713
tp4200
(Vui.servesharp.net
p4201
F0.0003960637357950218
tp4202
(Vjira.millennialmedia.com
p4203
F0.00036140992389132194
tp4204
(Vmovinstream.com
p4205
F4.124136508918446e-05
tp4206
(Vhwzone.co.il
p4207
F1.7154933461951347e-05
tp4208
(Vsubtitle.co.il
p4209
F7.854194729049916e-06
tp4210
(Vlinkedin.com
p4211
F1.6123254398713075e-07
tp4212
(Vvimeo.com
p4213
F9.877902401742443e-08
tp4214
(Vgoogle.co.uk
p4215
F9.113462281788802e-08
tp4216
(Vfacebook.com
p4217
F7.059035289641063e-09
tp4218
tp4219
s((S'beta11.com'
p4220
tp4221
(ttp4222
(ts((S'alpha44.com'
p4223
tp4224
(ttp4225
(ts((S'alpha50.com'
p4226
tp4227
(ttp4228
(ts((S'welcometonightvale.com'
p4229
tp4230
(ttp4231
((Vkaramicrabbit.tumblr.com
p4232
F0.046660274848194315
tp4233
(Vassbutt-inthetardis-withsherlock.tumblr.com
p4234
F0.02699022905654333
tp4235
(Vheard-comic.com
p4236
F0.02576808721506442
tp4237
(Vnightvale.libsyn.com
p4238
F0.0030840219412858728
tp4239
(Vnightvale.bandcamp.com
p4240
F0.0029100392034955014
tp4241
(Vforum.ianti-virus.com
p4242
F0.0009595825158807621
tp4243
(Vtopatoco.com
p4244
F8.365148782536246e-05
tp4245
(Vpodbay.fm
p4246
F1.5005313972050512e-05
tp4247
(Vnationstates.net
p4248
F1.3306299935942108e-05
tp4249
(Vkhanacademy.org
p4250
F3.1321865143484366e-06
tp4251
(Vitunes.apple.com
p4252
F1.3008854342133617e-06
tp4253
(Vp1.dntrck.com
p4254
F5.811641924690855e-07
tp4255
(Vamazon.co.uk
p4256
F4.0711242932196677e-07
tp4257
(Vetsy.com
p4258
F2.412140427903423e-07
tp4259
(Vtumblr.com
p4260
F8.782749462968333e-08
tp4261
(Vmail.google.com
p4262
F2.9178958487822285e-08
tp4263
(Vgoogle.com
p4264
F1.0780567744388767e-08
tp4265
(Vyoutube.com
p4266
F4.510915729903013e-10
tp4267
tp4268
s((S'apidock.com'
p4269
tp4270
(ttp4271
((Vapi.rubyonrails.org
p4272
F0.004283722809508841
tp4273
(Vlogentries.com
p4274
F0.0031281175847644965
tp4275
(Vguides.rubyonrails.org
p4276
F0.0014298972896033487
tp4277
(Vbsonspec.org
p4278
F0.0013823136499941477
tp4279
(Vadtaily.hackpad.com
p4280
F0.0013067944421232297
tp4281
(Vadmin.revieworld.com
p4282
F0.0012428262182843334
tp4283
(Vsportngin.atlassian.net
p4284
F0.000914667802116352
tp4285
(Vrailsdoc.com
p4286
F0.0008941412847720574
tp4287
(Vgsubbarao.com
p4288
F0.0008810756888817209
tp4289
(Vruby-doc.org
p4290
F0.000875561057367794
tp4291
(Vgotealeaf.campfirenow.com
p4292
F0.0008217247009736729
tp4293
(Vruby-forum.com
p4294
F0.0007341966194683126
tp4295
(Vrequiremind.com
p4296
F0.0006038566509753178
tp4297
(V3edge.in
p4298
F0.0006037040162545684
tp4299
(Vcapterrapaulo.aws.af.cm
p4300
F0.0005021993641797336
tp4301
(Vstrftimer.com
p4302
F0.0005021070563973819
tp4303
(Vclojuredocs.org
p4304
F0.0004751783760686909
tp4305
(Vwebmail.abril.com.br
p4306
F0.00046069404857109657
tp4307
(Vnvcad.nvidia.com
p4308
F0.0004513071790077689
tp4309
(Vruby.about.com
p4310
F0.0004484059714551321
tp4311
tp4312
s((S'techonthenet.com'
p4313
tp4314
(ttp4315
(ts((S'xing.com'
p4316
tp4317
(ttp4318
((Vstepstone.de
p4319
F0.0015170579001096234
tp4320
(Vspiegel.de
p4321
F0.0009870102205989382
tp4322
(Vsmartredirect.de
p4323
F0.0008656418910552316
tp4324
(Vkununu.com
p4325
F0.0008500644918979894
tp4326
(Vtu-harburg.academia.edu
p4327
F0.0007250172468395831
tp4328
(Vgruenderszene.de
p4329
F0.0006160545464338925
tp4330
(Vt3n.de
p4331
F0.0005494073061703604
tp4332
(Vopenbc.de
p4333
F0.0005282185824034381
tp4334
(Vbusiness-webmail.t-online.de
p4335
F0.00039136039083473073
tp4336
(Vlizaa.de
p4337
F0.00036584645585642674
tp4338
(Vespace.sbb.ch
p4339
F0.00036162796813019727
tp4340
(Vorf.at
p4341
F0.0003373444213756619
tp4342
(Vwuv.de
p4343
F0.00032833919049934745
tp4344
(Vkunde.comdirect.de
p4345
F0.0003001408379996149
tp4346
(Vde.linkedin.com
p4347
F0.00029778258826698294
tp4348
(Vexperteer.de
p4349
F0.00028717027437245716
tp4350
(Vna20.salesforce.com
p4351
F0.00027828180103067144
tp4352
(Vbbs.clutchfans.net
p4353
F0.0002183433086419262
tp4354
(Vbgl.maknesium.de
p4355
F0.00021813978836609884
tp4356
tp4357
s((S'kickstarter.com'
p4358
tp4359
(ttp4360
((Vindiegogo.com
p4361
F0.006044589196122378
tp4362
(Vboardgamegeek.com
p4363
F0.002967470579344699
tp4364
(Vkicktraq.com
p4365
F0.0016820810006756592
tp4366
(Vkck.st
p4367
F0.0012093648592350532
tp4368
(Vmassdrop.com
p4369
F0.00087235769793054
tp4370
(Vcoolstuffinc.com
p4371
F0.0006201030948794028
tp4372
(Vthunderclap.it
p4373
F0.0005545280608785909
tp4374
(Vgofundme.com
p4375
F0.0004185638677770289
tp4376
(Vwasteland2.org
p4377
F0.0003310376988044957
tp4378
(Vdudeiwantthat.com
p4379
F0.00030026142653187977
tp4380
(Vmomastore.org
p4381
F0.00019395910733544547
tp4382
(Vustart.org
p4383
F0.0001747273452737386
tp4384
(V99designs.co.uk
p4385
F0.00017261508673220832
tp4386
(Vtrictrac.net
p4387
F0.00017158398885538806
tp4388
(Vtechcrunch.com
p4389
F0.00015226764246498048
tp4390
(Vkickended.com
p4391
F0.00014808523909796067
tp4392
tp4393
s((S'somethingpositive.com'
p4394
tp4395
(ttp4396
((Vsomethingpostive.net
p4397
F0.05551369002763124
tp4398
(Vjezebel.com
p4399
F4.424084024843979e-06
tp4400
(Vsmbc-comics.com
p4401
F3.576337317918497e-06
tp4402
(Vamazon.co.uk
p4403
F2.8458752349683427e-07
tp4404
(Vtwitter.com
p4405
F1.9658182515494668e-08
tp4406
(Vreddit.com
p4407
F1.4299505429861048e-08
tp4408
tp4409
s((S'banrate.com'
p4410
tp4411
(ttp4412
((Vadvertiser.bankrate.com
p4413
F0.010417933438728768
tp4414
(Vmycfe.com
p4415
F0.003697223187641567
tp4416
(Vlowermybills.com
p4417
F0.000577498241663914
tp4418
(Vsalliemae.com
p4419
F4.9130725485894754e-05
tp4420
(Vdictionary.goo.ne.jp
p4421
F3.7425394069492426e-05
tp4422
(Vally.com
p4423
F1.4405003035318033e-05
tp4424
(Vpost.craigslist.org
p4425
F1.8668535426783176e-06
tp4426
(Vwellsfargo.com
p4427
F1.5658914407910743e-06
tp4428
(Vfinance.yahoo.com
p4429
F8.480322713302284e-07
tp4430
(Vebay.com
p4431
F1.287045916505256e-07
tp4432
tp4433
s((S'verborgh.org'
p4434
tp4435
(ttp4436
(ts((S'infosecisland.com'
p4437
tp4438
(ttp4439
(ts((S'widdershinscomic.com'
p4440
tp4441
(ttp4442
((Vletsaskviolet.com
p4443
F0.023339778372803054
tp4444
(Vthe-whiteboard.com
p4445
F0.02297513496899636
tp4446
(Vineffableaether.com
p4447
F0.018733703512249688
tp4448
(Vpuckcomics.com
p4449
F0.010880843347775311
tp4450
(Valiendice.com
p4451
F0.0095586849274735
tp4452
(Vcasualvillain.com
p4453
F0.007030130604618646
tp4454
(Vmarryme.keenspot.com
p4455
F0.00618793397842423
tp4456
(Vprecociouscomic.com
p4457
F0.006100743140697935
tp4458
(Vrice-boy.com
p4459
F0.004656766063375279
tp4460
(Vthearchipelago.smackjeeves.com
p4461
F0.002923735751237376
tp4462
(Vsmbhax.com
p4463
F0.0025248584102409368
tp4464
(Vbetweenfailures.com
p4465
F0.0018146924062114364
tp4466
(Vwncomic.com
p4467
F0.0017688444965095805
tp4468
(Vthegamercat.com
p4469
F0.0015217058359325555
tp4470
(Vweregeek.com
p4471
F0.0014803237802496064
tp4472
(Vnerf-this.com
p4473
F0.0013742114952235965
tp4474
tp4475
s((S'alpha15.com'
p4476
tp4477
(ttp4478
((Vmail.midco.net
p4479
F9.645216776247045e-05
tp4480
(Vinvest.ameritrade.com
p4481
F2.2621790287289574e-05
tp4482
(Vnews.newsmax.com
p4483
F9.012522674943768e-06
tp4484
(Vgoogle.com
p4485
F2.344631383637394e-09
tp4486
tp4487
s((S'githubusercontent.com'
p4488
tp4489
(ttp4490
((Vgist.github.com
p4491
F0.0683521379597651
tp4492
(Vrawgit.com
p4493
F0.004681318158194077
tp4494
(Vget.rvm.io
p4495
F0.0024688836762393703
tp4496
(Vgit.io
p4497
F0.0017625401674807473
tp4498
(Vhtmlpreview.github.io
p4499
F0.0016873868286427472
tp4500
(Vj.mp
p4501
F0.0014034738364627076
tp4502
(Vmysqltuner.pl
p4503
F0.0013031784757683278
tp4504
(Vbotoflegends.com
p4505
F0.0007909564762299546
tp4506
(Vzpanelcp.com
p4507
F0.0006691757360483263
tp4508
(Vteddysun.com
p4509
F0.0006024164679786914
tp4510
(Vdanielgibbs.co.uk
p4511
F0.0004724781478856603
tp4512
(Vapp.leehuu.cn
p4513
F0.0004249577816094249
tp4514
(Vinstall.ohmyz.sh
p4515
F0.0003363897946269826
tp4516
(Vbrew.sh
p4517
F0.00032717832283826433
tp4518
(Vzzj.86639.com
p4519
F0.0003248079592420554
tp4520
(Vallaboutghost.com
p4521
F0.00027711649858186296
tp4522
tp4523
s((S'viralstat.com'
p4524
tp4525
(ttp4526
((Vpinkmodel.net
p4527
F0.0017848051986943372
tp4528
(Vfreefuckvids.com
p4529
F0.0014829190614814261
tp4530
(Vpilka.pl
p4531
F0.0009659169311439217
tp4532
(Vfecebook.pl
p4533
F0.0008786702789778136
tp4534
(Vs.arclk.net
p4535
F0.0003530647843698747
tp4536
(Vmediaseed.info
p4537
F0.0002946011861157822
tp4538
(Vparkingcrew.net
p4539
F0.00020676923076923078
tp4540
(Vtraxter-online.tk
p4541
F0.00016920064779676585
tp4542
(Vsales-force.pl
p4543
F0.00016920064779676585
tp4544
(Vfilmihdizlesene.tk
p4545
F0.00016920064779676585
tp4546
(Vmxvzz.exclusive-rewards.sweepjellyfish.biz
p4547
F0.00016920064779676585
tp4548
(Vsklep.superpower.pl
p4549
F0.00016920064779676585
tp4550
(Vmoczulski.biz
p4551
F0.00016920064779676585
tp4552
tp4553
s((S'dock.com'
p4554
tp4555
(ttp4556
((Vdocks.qc.ca
p4557
F0.06434729912128474
tp4558
(Vdockandslip.com
p4559
F0.06212746446584136
tp4560
(Vtessera.com
p4561
F0.005609478693919016
tp4562
(Vedu.americanvhs.com
p4563
F0.0009426078168425553
tp4564
(Vv3.mercusuar.info
p4565
F5.262204832870827e-06
tp4566
(Vsafecart.com
p4567
F1.0612495775718263e-06
tp4568
tp4569
s((S'fabiensanglard.net'
p4570
tp4571
(ttp4572
((Vnom.com
p4573
F0.016733385481372414
tp4574
(Vmeet.emulex.com
p4575
F0.009327642729015897
tp4576
(Vemulex.my.salesforce.com
p4577
F0.009142718564326422
tp4578
(Vasicweb.emulex.com
p4579
F0.007491289198606272
tp4580
(Vopenhighschoolcourses.org
p4581
F0.006642895061989392
tp4582
(Vneilblevins.com
p4583
F0.004470560344097675
tp4584
(Vlinor.fr
p4585
F0.0038202984095753404
tp4586
(Vhmsconfluence.activision.com
p4587
F0.003148796306750467
tp4588
(Vdevinsmith.net
p4589
F0.002372270790317621
tp4590
(Vhobbygamedev.com
p4591
F0.0022267112008906844
tp4592
(Vthink-like-a-git.net
p4593
F0.002052212874160923
tp4594
(Vgamedev.stackexchange.com
p4595
F0.0019690283982804094
tp4596
(Vgp32spain.com
p4597
F0.0015787369595053969
tp4598
(Vsda.se
p4599
F0.0014976407646989833
tp4600
(Vbenefitsmedical.com
p4601
F0.0014063662602922299
tp4602
(Vengineering.zenpayroll.com
p4603
F0.0013555184723144803
tp4604
(Vblog.yourkarma.com
p4605
F0.0011144507108844686
tp4606
(Vshoutem.slack.com
p4607
F0.0007275420982314113
tp4608
(Vwiki.mcselec.com
p4609
F0.0004583651642475172
tp4610
(Vopengl.org
p4611
F0.000321510536147959
tp4612
tp4613
s((S'girlgeniusonline.com'
p4614
tp4615
(ttp4616
((Vgunnerkrigg.com
p4617
F0.01767159739001341
tp4618
(Vschlockmercenary.com
p4619
F0.010575660601482408
tp4620
(Vfreefall.purrsia.com
p4621
F0.009560981321730415
tp4622
(Vsluggy.com
p4623
F0.00904143804193216
tp4624
(Vegscomics.com
p4625
F0.005509161471307016
tp4626
(Vgrrlpowercomic.com
p4627
F0.005249945116816697
tp4628
(Vweregeek.com
p4629
F0.004451691369450159
tp4630
(Vdrmcninja.com
p4631
F0.003358334547927928
tp4632
(Vquantumvibe.com
p4633
F0.0033437697304085274
tp4634
(Vgiantitp.com
p4635
F0.0031847824127843247
tp4636
(Vscarygoround.com
p4637
F0.0027004569761357165
tp4638
(Vuniversalhub.com
p4639
F0.0018591146664278212
tp4640
(Vevil-inc.com
p4641
F0.001599747315566798
tp4642
(Vthedreamlandchronicles.com
p4643
F0.0012656027853518302
tp4644
tp4645
s((S'symplicity.com'
p4646
tp4647
(ttp4648
((Vcareer.berkeley.edu
p4649
F0.02610738668888367
tp4650
(Vcareerservicesapps.rit.edu
p4651
F0.023787876193260383
tp4652
(Vshibboleth.usc.edu
p4653
F0.02172824995539614
tp4654
(Vmbacareers.wharton.upenn.edu
p4655
F0.00973378562495862
tp4656
(Vsso.brown.edu
p4657
F0.009455217182466424
tp4658
(Vcareer.arizona.edu
p4659
F0.00606440565597298
tp4660
(Vcas.rutgers.edu
p4661
F0.005206815946573473
tp4662
(Vlogin.uiowa.edu
p4663
F0.0034028206626909078
tp4664
(Vaccessuh.uh.edu
p4665
F0.0027956600196839512
tp4666
(Vcas.fsu.edu
p4667
F0.0018849546355613987
tp4668
(Vcas.insead.edu
p4669
F0.0015471822878699156
tp4670
(Vcas1.tcnj.edu
p4671
F0.0015437155112862225
tp4672
(Vlogin.uconn.edu
p4673
F0.0014757149121507258
tp4674
(Vcareerservices.princeton.edu
p4675
F0.0013794404730910073
tp4676
(Vpassportyork.yorku.ca
p4677
F0.0011847234267562596
tp4678
tp4679
s((S'92.195'
p4680
tp4681
(ttp4682
(ts((S'acnenomor.com'
p4683
tp4684
(ttp4685
((Vsetareasemany.persianblog.ir
p4686
F0.004590559213576927
tp4687
(Vpanelbiurou.uniterm.pl
p4688
F0.001165427076049414
tp4689
(Vgoldenraccoon.tistory.com
p4690
F0.0011206906117195389
tp4691
(Valpha-mconsole.netmarble.net
p4692
F0.0010040460071774379
tp4693
(Vbeta.ssl.webservices.travelzoo.com
p4694
F0.0007673275079081712
tp4695
(Vjpj.gov.my
p4696
F0.0006220694566398409
tp4697
(Vblog.otrs.org
p4698
F0.0005895419469622798
tp4699
(Vadblogcat.com
p4700
F0.0005817426308271652
tp4701
(Vanswerques.com
p4702
F0.0005379210312714628
tp4703
(Vxiexingwen.com
p4704
F0.000471817428617734
tp4705
(Vgoogle.co.jp
p4706
F2.9066968336392337e-08
tp4707
tp4708
s((S'alpha30.com'
p4709
tp4710
(ttp4711
(ts((S'dorkly.com'
p4712
tp4713
(ttp4714
((Vcollegehumor.com
p4715
F0.00532996727307274
tp4716
(Vdidyouknowgaming.com
p4717
F0.0021633027780272383
tp4718
(Vnetlore.ru
p4719
F0.0013772662965528448
tp4720
(Vawkwardzombie.com
p4721
F0.0011546861484157086
tp4722
(Vbrawlinthefamily.keenspot.com
p4723
F0.001025083503038372
tp4724
(Vexplosm.net
p4725
F0.0009121791532666129
tp4726
(Vdorktower.com
p4727
F0.0007780467559879749
tp4728
(Vbunicomic.com
p4729
F0.0007688771325575398
tp4730
(Vpenny-arcade.com
p4731
F0.000697397505029458
tp4732
(Vforums.tigsource.com
p4733
F0.0006230253345583321
tp4734
(Vsyacartoonist.com
p4735
F0.0005622097830873088
tp4736
(Vdangerouslychloe.com
p4737
F0.0004875689986759523
tp4738
(Vblessings.thecomicseries.com
p4739
F0.0004383328772759553
tp4740
(Vtrenchescomic.com
p4741
F0.00042936677189025536
tp4742
(Vsurvivingtheworld.net
p4743
F0.00038241257511459256
tp4744
(Vdraconicsonic.deviantart.com
p4745
F0.0002444842155108139
tp4746
tp4747
s((S'i24news.com'
p4748
tp4749
(ttp4750
((Vi24.fr
p4751
F0.027440891828984442
tp4752
(Vacomstrategies.com
p4753
F0.015776699029126214
tp4754
(Vi24newsz.com
p4755
F0.00636604774535809
tp4756
(Vonrtv.org
p4757
F0.0019839558354179244
tp4758
(Vswisslife.fr
p4759
F0.0004350869228004464
tp4760
(Vhikashop.com
p4761
F0.0002257925671909288
tp4762
(Vplayon.tv
p4763
F0.00019844988589131564
tp4764
(Vorientation.etudiants.edu.ci
p4765
F3.955148614709198e-05
tp4766
(Vpwcaptive.bezeq.co.il
p4767
F3.3055242774763706e-05
tp4768
(Vfrance24.com
p4769
F2.166589720869962e-05
tp4770
(Vteletext.ch
p4771
F1.8962878683502148e-05
tp4772
(Vcursorinfo.co.il
p4773
F1.4044857871555963e-05
tp4774
(Vsearch.surfcanyon.com
p4775
F9.431071880723038e-06
tp4776
(Vvice.com
p4777
F7.655092682856089e-06
tp4778
(Vfnac.com
p4779
F7.273570477915768e-06
tp4780
(Vthepiratebay.se
p4781
F4.258584344053828e-07
tp4782
(Vfr.yahoo.com
p4783
F2.0290568820791026e-07
tp4784
(Vespn.go.com
p4785
F1.522494629780817e-07
tp4786
(Vnu.nl
p4787
F1.1186829285417949e-07
tp4788
(Vgoogle.co.il
p4789
F9.201272115550461e-08
tp4790
tp4791
s((S'angular-rails.com'
p4792
tp4793
(ttp4794
((Vdemo-recruiting.mhm-hr.com
p4795
F0.011459862255842836
tp4796
(Vamberbit.com
p4797
F0.009136130339439904
tp4798
(Vangularonrails.com
p4799
F0.003601859459946197
tp4800
(Vdev.interfolio.com
p4801
F0.0029229933521301636
tp4802
(Vpotykacze-4m.pl
p4803
F0.0026392876823573773
tp4804
(Valexpotrykus.com
p4805
F0.0026026684200432864
tp4806
(Vintridea.com
p4807
F0.0011511073601185176
tp4808
(Vprogramando.la
p4809
F0.0008055244330206434
tp4810
(Vahadees.com
p4811
F0.0006826907847667109
tp4812
(Vyearofmoo.com
p4813
F0.0003659278775412728
tp4814
(Vhoneybadger.io
p4815
F0.0003133140446486377
tp4816
(Vslatestudio.com
p4817
F0.00030754008049527323
tp4818
(Vegghead.io
p4819
F0.00028647113221448453
tp4820
(Vnaluzie.onet.pl
p4821
F4.823788592959177e-05
tp4822
(Vscotch.io
p4823
F4.3581747338826194e-05
tp4824
(Vapi.jquery.com
p4825
F2.7340318442941523e-05
tp4826
(Vinteractivepython.org
p4827
F1.5106459870851388e-05
tp4828
(Vpinboard.in
p4829
F1.1987355819752743e-05
tp4830
(Vsouthwest.com
p4831
F5.259489660213136e-06
tp4832
(Vwykop.pl
p4833
F3.724426316229092e-06
tp4834
tp4835
s((S'johnlewis.ie'
p4836
tp4837
(ttp4838
((Vcoreboot.org
p4839
F0.02854268245491835
tp4840
(Vdistroshare.com
p4841
F0.016549572788962446
tp4842
(Vwebmail.w14a.comcast.net
p4843
F0.013918136600019624
tp4844
(Vdeconetworks.com
p4845
F0.007967123011370798
tp4846
(Vjeanlouisnguyen.blogspot.ca
p4847
F0.005415745410279979
tp4848
(Vpilaresdelcodigo.wordpress.com
p4849
F0.004368068633605357
tp4850
(Vae.sjsu.edu
p4851
F0.00432630123544891
tp4852
(Vsenk9.wordpress.com
p4853
F0.0035087719298245615
tp4854
(Vreadditing.herokuapp.com
p4855
F0.0031414092774758665
tp4856
(Vanderswallin.net
p4857
F0.0027987907111832813
tp4858
(Vgeorgakopoulos.org
p4859
F0.001107007252449383
tp4860
(Vzupimages.net
p4861
F0.0010530772654731792
tp4862
(Vjoomla.quantumcs.com
p4863
F0.0007784613047770943
tp4864
(Vchromium.org
p4865
F0.0007239176971487771
tp4866
(Vciteworld.com
p4867
F0.000622003528792297
tp4868
(Vtechreport.com
p4869
F0.0003636459011841565
tp4870
(Vfunhousegames.co
p4871
F0.00029423524559166105
tp4872
(Vbuddypress.org
p4873
F0.00017586529805995192
tp4874
(Vwiki.archlinux.org
p4875
F0.00013728228690694814
tp4876
(Vtvxs.gr
p4877
F9.757876076671679e-05
tp4878
tp4879
s((S'alpha0.com'
p4880
tp4881
(ttp4882
(ts((S'coreboot.org'
p4883
tp4884
(ttp4885
((Vhappyassassin.net
p4886
F0.059476348436577016
tp4887
(Vgit.buildroot.net
p4888
F0.02452952891923749
tp4889
(Vflashrom.org
p4890
F0.017701817587736517
tp4891
(Vbrmlab.cz
p4892
F0.013296603505499648
tp4893
(Vtiny.wiki.kernel.org
p4894
F0.012337571525115207
tp4895
(V86duino.com
p4896
F0.010515115478500344
tp4897
(Veskolar.com
p4898
F0.009344584495521896
tp4899
(Vjohnlewis.ie
p4900
F0.006332038626695642
tp4901
(Vseabios.org
p4902
F0.00443494523109805
tp4903
(Vsavebydiy.com
p4904
F0.0036583215796897038
tp4905
(Vlists.denx.de
p4906
F0.0029219143576826195
tp4907
(Vdonate.ccf.org.tw
p4908
F0.0027590143659023876
tp4909
(Vmetacloud.jira.com
p4910
F0.002028728663370954
tp4911
(Vembeddedlinux.org.cn
p4912
F0.0018237464363575382
tp4913
(Vfsf.org
p4914
F0.0017019026720611005
tp4915
(Vdev.milaap.org
p4916
F0.0011945877468052004
tp4917
(Vwiki.archlinux.org
p4918
F0.0007416826313193679
tp4919
(Vhitech.vesti.ru
p4920
F0.00033012905439744935
tp4921
(Vmark.intel.com
p4922
F0.00029483913576752523
tp4923
(Vlinux.softpedia.com
p4924
F2.1233992224112045e-05
tp4925
tp4926
s((S'alpha42.com'
p4927
tp4928
(ttp4929
(ts((S'walla.co.il'
p4930
tp4931
(ttp4932
((Vynet.co.il
p4933
F0.020681855597970564
tp4934
(Vsport5.co.il
p4935
F0.01671716174222901
tp4936
(Vone.co.il
p4937
F0.0158659102755873
tp4938
(Vmako.co.il
p4939
F0.01332301405197086
tp4940
(Vnrg.co.il
p4941
F0.008862240216676337
tp4942
(Vgoogle.co.il
p4943
F0.007271907105170784
tp4944
(Vhaaretz.co.il
p4945
F0.005973013842627749
tp4946
(Vrotter.net
p4947
F0.005844035385500475
tp4948
(Vnana10.co.il
p4949
F0.005317331090295053
tp4950
(Vglobes.co.il
p4951
F0.004428857379564541
tp4952
tp4953
s((S'railscasts.com'
p4954
tp4955
(ttp4956
(ts((S'beta0.com'
p4957
tp4958
(ttp4959
(ts((S'beta6.com'
p4960
tp4961
(ttp4962
(ts((S'alpha8.com'
p4963
tp4964
(ttp4965
(ts((S'nfl.com'
p4966
tp4967
(ttp4968
((Vfootball.fantasysports.yahoo.com
p4969
F0.007118450008223653
tp4970
(Vgames.espn.go.com
p4971
F0.006384126691819737
tp4972
(Vbleacherreport.com
p4973
F0.0035534989465389375
tp4974
(Vprofootballtalk.nbcsports.com
p4975
F0.002629749985507015
tp4976
(Vrotoworld.com
p4977
F0.002425580012493785
tp4978
(Vnba.com
p4979
F0.00221712362184621
tp4980
(Vmlb.mlb.com
p4981
F0.001903702388693045
tp4982
(Vcbssports.com
p4983
F0.0018706806382148141
tp4984
(Vnhl.com
p4985
F0.0012985868086497264
tp4986
(Vfoxsports.com
p4987
F0.0006708944857844707
tp4988
(Vsi.com
p4989
F0.0006645089812610093
tp4990
(Vdallascowboys.com
p4991
F0.0006258338700505362
tp4992
(Vfantasypros.com
p4993
F0.0005158616315129335
tp4994
(Vpackers.com
p4995
F0.0004871439676007591
tp4996
tp4997
s((S'alpha47.com'
p4998
tp4999
(ttp5000
(ts((S'usenet.org'
p5001
tp5002
(ttp5003
(ts((S'instagram.com'
p5004
tp5005
(ttp5006
((Vask.fm
p5007
F0.009839861689494809
tp5008
(Vtwitter.com
p5009
F0.00852219868530378
tp5010
(Vt.co
p5011
F0.00590372865211456
tp5012
(Vtumblr.com
p5013
F0.0028467374135406447
tp5014
(Vbuzzfeed.com
p5015
F0.0021394192027941565
tp5016
(Viconosquare.com
p5017
F0.0021111893321816588
tp5018
(Vfacebook.com
p5019
F0.00192459481539883
tp5020
(Vvk.com
p5021
F0.0017823909564906018
tp5022
(Vwebsta.me
p5023
F0.001677039473359781
tp5024
(Vpinterest.com
p5025
F0.0016538952803498866
tp5026
(Vtwitch.tv
p5027
F0.000413087885165486
tp5028
(Vsprashivai.ru
p5029
F0.00037472447172838525
tp5030
tp5031
s((S'beta2.com'
p5032
tp5033
(ttp5034
((Vlogopond.com
p5035
F8.342355902882032e-05
tp5036
tp5037
s((S'imgur.com'
p5038
tp5039
(ttp5040
((Veksisozluk.com
p5041
F0.007959158123693156
tp5042
(Vsteamcommunity.com
p5043
F0.005482409223054582
tp5044
(Vl.moapi.net
p5045
F0.0042747932543380305
tp5046
(Vptt.cc
p5047
F0.004205827649589891
tp5048
(Vreddit.com
p5049
F0.002423451953582919
tp5050
(Vus.battle.net
p5051
F0.0023017082856949867
tp5052
(Vprntscr.com
p5053
F0.002184980056042118
tp5054
(Viamchucky.github.io
p5055
F0.002029496111172061
tp5056
(Vplurk.com
p5057
F0.0012164439471213228
tp5058
(Vgamefaqs.com
p5059
F0.0011121531273015387
tp5060
(Vflashback.org
p5061
F0.0010824160224589597
tp5062
(Vtwitch.tv
p5063
F0.0008429300641815612
tp5064
(Vboards.4chan.org
p5065
F0.0008128220671250406
tp5066
tp5067
s((S'guru99.com'
p5068
tp5069
(ttp5070
((Vtoolsqa.com
p5071
F0.005719466566131465
tp5072
(Vabap101.com
p5073
F0.003011493349875067
tp5074
(Vregistria.app.box.com
p5075
F0.0026405273456051367
tp5076
(Vhanelsoft.vn
p5077
F0.002062561850334693
tp5078
(Vassertselenium.com
p5079
F0.00195169518565124
tp5080
(Vseleniummadeeasy.blogspot.co.uk
p5081
F0.0017882739008798492
tp5082
(Vsaptraininghub.com
p5083
F0.0017882409332036706
tp5084
(Vqtpfaq.wordpress.com
p5085
F0.0017873677324844871
tp5086
(Vcodeodor.com
p5087
F0.0016453585640558656
tp5088
(Vmanage.hivelocity.net
p5089
F0.001623640201331385
tp5090
(Vsoftwaretestinggenius.com
p5091
F0.001583393157862956
tp5092
(Vcommunity.stresstimulus.com
p5093
F0.001557093159406643
tp5094
(Vtennisworlditalia.com
p5095
F0.0012915493611922993
tp5096
(Vroqit.sharepoint.com
p5097
F0.0010722141775454032
tp5098
(Vsyrinx.catsone.com
p5099
F0.0009775579010200494
tp5100
(Vculverlabs.co
p5101
F0.0009439906846807562
tp5102
(Vwebmail.trigma.co.in
p5103
F0.0008988027832973669
tp5104
(Vnewtours.demoaut.com
p5105
F0.0008537480868080438
tp5106
(Vajmadison.com
p5107
F0.0008427717137978187
tp5108
(Vin.playstation.com
p5109
F0.0008242438736899647
tp5110
tp5111
s((S'google.co.il'
p5112
tp5113
(ttp5114
((Vynet.co.il
p5115
F0.02090290556127998
tp5116
(Vwalla.co.il
p5117
F0.010178080865357519
tp5118
(Vmako.co.il
p5119
F0.009531641570181064
tp5120
(Vhe.wikipedia.org
p5121
F0.005168147982441724
tp5122
(Vone.co.il
p5123
F0.004797051193030695
tp5124
(Vsport5.co.il
p5125
F0.004629557192589989
tp5126
(Vpanet.co.il
p5127
F0.004466318634153449
tp5128
(Vyad2.co.il
p5129
F0.004239283102327047
tp5130
(Vfxp.co.il
p5131
F0.004224135214989242
tp5132
(Vil.msn.com
p5133
F0.0025525166492135123
tp5134
(Vjewishjournal.com
p5135
F0.0016738899904644618
tp5136
(Vhaaretz.co.il
p5137
F0.0011658029360413589
tp5138
tp5139
s((S'foobar2000.com'
p5140
tp5141
(ttp5142
((Vmorbo.org
p5143
F0.031915159700857905
tp5144
(Vjdk8.java.net
p5145
F0.0036444231186665292
tp5146
(Vforum.powerampapp.com
p5147
F0.0026170710255915223
tp5148
(Vdbpoweramp.com
p5149
F0.0008974646623289207
tp5150
(Vjriver.com
p5151
F0.00033570030497519226
tp5152
(Vpodsvojostreho.net
p5153
F0.00014945816684828672
tp5154
(Vteksyndicate.com
p5155
F1.1823333348362995e-05
tp5156
(Vtrojmiasto.pl
p5157
F5.731231896333478e-06
tp5158
(Vricardo.ch
p5159
F3.7479474663832534e-06
tp5160
(Vus-mg204.mail.yahoo.com
p5161
F1.5779104558357893e-06
tp5162
(Vboards.4chan.org
p5163
F1.1310967365085483e-06
tp5164
(Vnetvibes.com
p5165
F1.0671421974257503e-06
tp5166
(Vtheguardian.com
p5167
F7.685661734505484e-07
tp5168
(Varstechnica.com
p5169
F6.992041308980053e-07
tp5170
(Vsearch.yahoo.co.jp
p5171
F6.754668573135203e-07
tp5172
(Ven.eazel.com
p5173
F5.318138091329666e-07
tp5174
(Vandroidpolice.com
p5175
F3.6786215539942405e-07
tp5176
(Vkickstarter.com
p5177
F2.241460998950497e-07
tp5178
(Vgoogle.com.tw
p5179
F1.301859356429909e-07
tp5180
(Vgoogle.lv
p5181
F1.037835278431857e-07
tp5182
tp5183
s((S'alpha14.com'
p5184
tp5185
(ttp5186
((Vdofusbook.net
p5187
F0.0006337329293461555
tp5188
tp5189
s((S'awardsgirl.biz'
p5190
tp5191
(ttp5192
((Vsecure.bidvertiser.com
p5193
F0.00460334122367181
tp5194
(Vr2r9.genuinessllinked.com
p5195
F0.002314006383011437
tp5196
(Vclick.blueseek.com
p5197
F0.0007148759907150507
tp5198
(Vmahboobii.blogfa.com
p5199
F0.0005257772530499803
tp5200
(Vcdn.hyperpromote.com
p5201
F0.0003485878222948513
tp5202
(Vwowbetas.blogspot.ca
p5203
F0.000142360237836504
tp5204
(Vrlated.net
p5205
F0.00014134541993724264
tp5206
(Vbbs.i3estzone.com
p5207
F0.00013579391914830054
tp5208
(Vmoviestudiozen.com
p5209
F0.00012159902720778233
tp5210
(Vfreedvdvideo.com
p5211
F0.00011962463498465174
tp5212
(Vfacebook.com
p5213
F2.4335852352645226e-10
tp5214
tp5215
s((S'hotmail.com'
p5216
tp5217
(ttp5218
((Vstartpagina.nl
p5219
F0.0033795478641330968
tp5220
(Vsignout.live.com
p5221
F0.0019536193173443693
tp5222
(Vaccount.mojang.com
p5223
F0.0011799134425937946
tp5224
(Vde.msn.com
p5225
F0.0009699166517050574
tp5226
(Vgoogle.co.ve
p5227
F0.0006409109624436532
tp5228
(Vpesquisaweb.com.br
p5229
F0.0006155523385053518
tp5230
(Vlogin.skype.com
p5231
F0.0005895501588447668
tp5232
(Vsearch.sidecubes.com
p5233
F0.0005731926797966754
tp5234
(Vfr.wow.com
p5235
F0.0005031414370583318
tp5236
(Vsearch.hao123.com.br
p5237
F0.0004901181822968964
tp5238
(Vtwitch.tv
p5239
F0.00040739971987316105
tp5240
(Vaccount.live.com
p5241
F0.0003368996069412944
tp5242
(Vhumblebundle.com
p5243
F0.00032895974347243637
tp5244
(Vsearch.findwide.com
p5245
F0.00028479862167211977
tp5246
(Vminecraft.net
p5247
F0.00024431603156685087
tp5248
(Vgoogle.com.ec
p5249
F0.00021696344549993276
tp5250
(Vus.battle.net
p5251
F0.00020060590540145736
tp5252
(Vstore.steampowered.com
p5253
F0.00018927089713552498
tp5254
(Vsteamcommunity.com
p5255
F0.0001840770810935155
tp5256
tp5257
s((S'chrome.com'
p5258
tp5259
(ttp5260
(ts((S'alpha3.com'
p5261
tp5262
(ttp5263
((Vanimeq.com.br
p5264
F2.1789299758136615e-06
tp5265
tp5266
s((S'amazon.co.uk'
p5267
tp5268
(ttp5269
((Vhotukdeals.com
p5270
F0.009607538119142368
tp5271
(Vebay.co.uk
p5272
F0.008784920218691808
tp5273
(Vsignup.ask4.com
p5274
F0.004451023000148134
tp5275
(Vargos.co.uk
p5276
F0.003516693019612358
tp5277
(Vgoogle.co.uk
p5278
F0.0033173248895694944
tp5279
(Vuk-mg42.mail.yahoo.com
p5280
F0.0026420618576403648
tp5281
(Vbbc.co.uk
p5282
F0.00241704974016918
tp5283
(Vlovefilm.com
p5284
F0.0018107881897302233
tp5285
(Vtesco.com
p5286
F0.0017671562317682302
tp5287
(Vgame.co.uk
p5288
F0.0012513572163597596
tp5289
(Vjohnlewis.com
p5290
F0.0006249988359875704
tp5291
(Vbtmail.bt.com
p5292
F0.00044421611594085137
tp5293
tp5294
s((S'cnn.com'
p5295
tp5296
(ttp5297
((Vfoxnews.com
p5298
F0.009751597910114911
tp5299
(Vbbc.com
p5300
F0.005892603475884948
tp5301
(Vespn.go.com
p5302
F0.004059713146900848
tp5303
(Vnbcnews.com
p5304
F0.003469040787817493
tp5305
(Vhuffingtonpost.com
p5306
F0.00279218492106268
tp5307
(Vdrudgereport.com
p5308
F0.0025788851669479645
tp5309
(Vusatoday.com
p5310
F0.002350168276944478
tp5311
(Vnytimes.com
p5312
F0.0021954026682273874
tp5313
(Vtmz.com
p5314
F0.002106953344949263
tp5315
(Vtimesofindia.indiatimes.com
p5316
F0.0008456093331558665
tp5317
(Vcbc.ca
p5318
F0.0007994184819109773
tp5319
(Vweather.com
p5320
F0.0006272870295140185
tp5321
tp5322
s((S'netshaker.co.uk'
p5323
tp5324
(ttp5325
((Vs.viralstat.com
p5326
F0.08303781984556848
tp5327
(Vbdizz.exclusiverewards.awardsgirl.biz
p5328
F0.018150694621282857
tp5329
(Vlovely-mature.net
p5330
F0.017122762063005892
tp5331
(Vbigjuicymelons.com
p5332
F0.011049723756906077
tp5333
(Vnakedebonybeauties.com
p5334
F0.008958246055020248
tp5335
(Vstolenvideos.net
p5336
F0.003976740870233645
tp5337
(Vwordsjournal.com
p5338
F0.0032121879588839944
tp5339
(Varcadenewsco.com
p5340
F0.002776322682032478
tp5341
(Vclick.trafficholder.com
p5342
F0.0008243004934314452
tp5343
(Vmediaseed.info
p5344
F0.0006353511983892364
tp5345
(Vgermanporntube.biz
p5346
F0.0005585864040069265
tp5347
(Vgo.trafficshop.com
p5348
F0.00034242830071300385
tp5349
(Vlargepornfilms.com
p5350
F0.00010685187436135079
tp5351
(Vsexmovies1.com
p5352
F5.778871482713951e-05
tp5353
(Vhourfreeporn.com
p5354
F1.0513650990155937e-05
tp5355
(Vhugedomains.com
p5356
F3.578901096140947e-06
tp5357
(Vbestvideos.xxx
p5358
F1.6135779356125929e-06
tp5359
(Vclick.cpvrdr.com
p5360
F8.692509107025027e-07
tp5361
(Vpornvideoxo.com
p5362
F2.976233159891486e-07
tp5363
(Voffers.bycontext.com
p5364
F9.440065557229909e-08
tp5365
tp5366
s((S'webtoolsdepot.com'
p5367
tp5368
(ttp5369
((Vprofessionalsnapshots.com
p5370
F0.017618641659562378
tp5371
(Vcre8tivenerd.com
p5372
F0.00807511737089202
tp5373
(Vdev.nlpcaptcha.in
p5374
F0.004782560338115894
tp5375
(Vinspiretrends.com
p5376
F0.0015197327803194605
tp5377
(Vdesigngeekz.com
p5378
F0.000996928070480496
tp5379
(Vqueness.com
p5380
F0.0006477910325789059
tp5381
(Vcode-tricks.com
p5382
F0.0005812920831247679
tp5383
(Vosvaldas.info
p5384
F0.0003197584708108852
tp5385
(Vtripwiremagazine.com
p5386
F0.00027976264551275184
tp5387
(Va2hosting.com
p5388
F7.450280208503889e-05
tp5389
(Vdramas.se
p5390
F5.78730381289527e-05
tp5391
(Vspeckyboy.com
p5392
F5.0024360975788805e-05
tp5393
(Vthecodeplayer.com
p5394
F2.70973169345298e-05
tp5395
(Vmobikwik.com
p5396
F2.582786325170353e-05
tp5397
(Vsemrush.com
p5398
F9.329826641895646e-06
tp5399
(Vvogella.com
p5400
F7.439604361840037e-06
tp5401
(Valjazeera.net
p5402
F7.428452217481951e-06
tp5403
(Vtw.gigacircle.com
p5404
F6.6539489052900315e-06
tp5405
(Vtympanus.net
p5406
F3.1460042522631246e-06
tp5407
(Vcolorzilla.com
p5408
F2.84315777023646e-06
tp5409
tp5410
s((S'office365.com'
p5411
tp5412
(ttp5413
((Vlogin.microsoftonline.com
p5414
F0.007675838044212189
tp5415
(Vportal.office.com
p5416
F0.006357817724876709
tp5417
(Vlogin.gatech.edu
p5418
F0.0022264042628608355
tp5419
(Vmail.gatech.edu
p5420
F0.0013440675078087258
tp5421
(Vlearn.gonzaga.edu
p5422
F0.0008405594326063179
tp5423
(Vdalhousie.blackboard.com
p5424
F0.0007556814273107322
tp5425
(Vbblearn.utk.edu
p5426
F0.0006507405969042097
tp5427
(Vmy.ysu.edu
p5428
F0.000571543177925408
tp5429
(Vneisd.net
p5430
F0.0004677560882873483
tp5431
(Vuwm.courses.wisconsin.edu
p5432
F0.0004554388037539254
tp5433
(Vmail.micromedia.fi
p5434
F0.00042392549726942563
tp5435
(Vcygnus.cc.kuleuven.be
p5436
F0.00042123996108882014
tp5437
(Vhotels.innstanttravel.com
p5438
F0.00040988607041772394
tp5439
(Vmail.jgu.edu.in
p5440
F0.0003785184420860687
tp5441
(Vwww4.uwm.edu
p5442
F0.0003575867127568184
tp5443
(Vdominican.powerschool.com
p5444
F0.0003340018353748156
tp5445
(Vuk.leader.weightwatchers.com
p5446
F0.0003315338893572389
tp5447
(Vskedsmoskolen.sharepoint.com
p5448
F0.0003157615320187347
tp5449
(Vpioneerweb.grinnell.edu
p5450
F0.0003106155503508925
tp5451
(Vucc.edu.co
p5452
F0.00030644804140647966
tp5453
tp5454
s((S'highlightjs.org'
p5455
tp5456
(ttp5457
((Vpc035860.github.io
p5458
F0.010335118319770248
tp5459
(Vnewday.name
p5460
F0.007221323816427815
tp5461
(V0719fe55bbae4d421d6b3e0dc691d65fae7b028e.googledrive.com
p5462
F0.006422626357133111
tp5463
(Vronoaldo-159361.use1.nitrousbox.com
p5464
F0.002660013683440678
tp5465
(Vsugarrushva.my03.com
p5466
F0.002246395765697844
tp5467
(Vsoftwaremaniacs.org
p5468
F0.002030453152175975
tp5469
(Vprismjs.com
p5470
F0.002014716480822872
tp5471
(Vmaxiang.info
p5472
F0.001863840502840374
tp5473
(Vcp-hosting.jino.ru
p5474
F0.00170624855891169
tp5475
(Vh.it-dev.ithome.com.tw
p5476
F0.0010742351837380157
tp5477
(Vdev.docs.umi-cms.ru
p5478
F0.0010494647729657875
tp5479
(Vchartjs.org
p5480
F0.0010486345805046495
tp5481
(Vdown.chinaz.com
p5482
F0.001011902412418411
tp5483
(Vwebdesignshock.com
p5484
F0.0009830343547259544
tp5485
(Vindianconsultancyinfo.blogspot.in
p5486
F0.0009330088085303663
tp5487
(Vgetskel.com
p5488
F0.000928254071250259
tp5489
(Vithome.slack.com
p5490
F0.000822522283999647
tp5491
(Vtrac.intranet.peoplesearchmedia.com
p5492
F0.000816316730891586
tp5493
(Vbi-landtrust.org
p5494
F0.0007971797551772396
tp5495
(Vaahanblog.com
p5496
F0.0007859217495301555
tp5497
tp5498
s((S'stackoverflow.com'
p5499
tp5500
(ttp5501
(ts((S'cracked.com'
p5502
tp5503
(ttp5504
((Vlistverse.com
p5505
F0.002726385758898505
tp5506
(Vcollegehumor.com
p5507
F0.002107328674389131
tp5508
(Varchive.today
p5509
F0.0016765785990839604
tp5510
(Vescapistmagazine.com
p5511
F0.0016443018805989268
tp5512
(Vdorkly.com
p5513
F0.0015727526783965238
tp5514
(Vsmbc-comics.com
p5515
F0.0014025142688979721
tp5516
(Vtheonion.com
p5517
F0.0012152073952430848
tp5518
(Voddee.com
p5519
F0.0008038470483622185
tp5520
(Vavclub.com
p5521
F0.0007375924550347175
tp5522
(Vexplosm.net
p5523
F0.0007325112118358349
tp5524
(Vthechive.com
p5525
F0.0006896736374762467
tp5526
(Vmentalfloss.com
p5527
F0.0004837719810559199
tp5528
(Vbuzzfeed.com
p5529
F0.00045508882873294493
tp5530
tp5531
s((S'beta8.com'
p5532
tp5533
(ttp5534
(ts((S'blogspot.co.uk'
p5535
tp5536
(ttp5537
((Vsoccersportthai.blogspot.co.uk
p5538
F0.0707374040707374
tp5539
(Vproofreadmyfile.blogspot.com
p5540
F0.030689329556185082
tp5541
(Vibrahimyamanabdullahi.blogspot.co.uk
p5542
F0.017033585087578337
tp5543
(Vsapbasissociety.blogspot.co.uk
p5544
F0.015119098559406645
tp5545
(Vpersianbooks2.blogspot.co.uk
p5546
F0.01447080599024062
tp5547
(Vblogsofnote.blogspot.co.uk
p5548
F0.014427657547298217
tp5549
(Vkizomba-zouk.blogspot.co.uk
p5550
F0.012347802817439838
tp5551
(Vbmackie.blogspot.co.uk
p5552
F0.01162535643781531
tp5553
(Vsherrysbeautyandfashion.blogspot.co.uk
p5554
F0.011378935939196526
tp5555
(Vmwholt.blogspot.co.uk
p5556
F0.011096992799661162
tp5557
(Vhongleili.blogspot.co.uk
p5558
F0.010588425476883283
tp5559
(Vportableappz.blogspot.co.uk
p5560
F0.008682119747727087
tp5561
(Vjandjalpacas.blogspot.co.uk
p5562
F0.006606792608650769
tp5563
(Vsuitcaseboy.blogspot.co.uk
p5564
F0.0065030737184372306
tp5565
(Vsliekje.blogspot.co.uk
p5566
F0.006483803155788567
tp5567
(Vyourcreativefuel.blogspot.co.uk
p5568
F0.006483803155788567
tp5569
(Vmonica-or.blogspot.co.uk
p5570
F0.006322861094645326
tp5571
(Vsleazybeats.blogspot.co.uk
p5572
F0.0062287104622871054
tp5573
(Vquickshout.blogspot.co.uk
p5574
F0.005905511811023622
tp5575
(Vblogger.co.uk
p5576
F0.00456841015757446
tp5577
tp5578
s((S'lwn.net'
p5579
tp5580
(ttp5581
((Vsuccessfulsoftware.net
p5582
F0.005252112500049234
tp5583
(Vlinuxfr.org
p5584
F0.004822843418206723
tp5585
(Vghzl.co
p5586
F0.0034472746606284085
tp5587
(Vphoronix.com
p5588
F0.002768949835679411
tp5589
(Vlinux-bg.org
p5590
F0.0026851094101852297
tp5591
(Vbugs.freedesktop.org
p5592
F0.002523399741763606
tp5593
(Vrt.wiki.kernel.org
p5594
F0.002237663304438635
tp5595
(Vrajalanetti.com
p5596
F0.002206267253682163
tp5597
(Vsimepar.br
p5598
F0.0018997695554617766
tp5599
(Vlxer.com
p5600
F0.0016418547532840177
tp5601
(Vplanet.postgresql.org
p5602
F0.0016138535921117138
tp5603
(Vnorrod.nl
p5604
F0.0014726421294774892
tp5605
(Vwebmail.delaval.com
p5606
F0.001380474439094912
tp5607
(Velementarynow.com
p5608
F0.0012930064543167485
tp5609
(Vusers.csc.calpoly.edu
p5610
F0.001283081096542379
tp5611
(Vbeyond3d.com
p5612
F0.0012644611077741394
tp5613
(V100ask.org
p5614
F0.0012163660952326189
tp5615
(Vanandtech.com
p5616
F0.001147878137408774
tp5617
(Vohjelmointiputka.net
p5618
F0.00110908323285851
tp5619
(Vwebmail.alltele.net
p5620
F0.0010886146327560872
tp5621
tp5622
s((S'keyvalue.org'
p5623
tp5624
(ttp5625
((Vrubygems.org
p5626
F1.8680492428768945e-05
tp5627
(Vgithub.com
p5628
F3.475709217831192e-07
tp5629
tp5630
s((S'espn.com.ar'
p5631
tp5632
(ttp5633
((Vscrum.com.ar
p5634
F0.010993594299895673
tp5635
(Vespndeportes.espn.go.com
p5636
F0.007175210794359291
tp5637
(Vespndeportes.com.ar
p5638
F0.00467576688317078
tp5639
(Vaplenorugby.com.ar
p5640
F0.003594119177539684
tp5641
(Vxdvideos.blogspot.de
p5642
F0.0025050439398247824
tp5643
(Vresultados.com
p5644
F0.0019467364624908923
tp5645
(Vrugbyfun.com.ar
p5646
F0.001777218018291617
tp5647
(Vrugbytime.com
p5648
F0.0017688796243421857
tp5649
(Vmanagerzone.com
p5650
F0.001547500413386392
tp5651
(Vunsa.edu.pe
p5652
F0.0013063543469877495
tp5653
(Ves.atpworldtour.com
p5654
F0.000966622250736153
tp5655
(Vtycsports.com
p5656
F0.0008485692676388447
tp5657
(Vtorneoriverplatense.foroargentina.net
p5658
F0.0007318500107197493
tp5659
(Vuar.com.ar
p5660
F0.0006951635653525864
tp5661
(Vbasquetcaliente.com
p5662
F0.0005458159235797727
tp5663
(Vtenfieldigital.com.uy
p5664
F0.0004922685071378933
tp5665
(Vurubasket.com
p5666
F0.0004907004701968754
tp5667
tp5668
s((S'linkedin.com'
p5669
tp5670
(ttp5671
((Vxing.com
p5672
F0.0035272738274342397
tp5673
(Vus-mg6.mail.yahoo.com
p5674
F0.0034621026445398524
tp5675
(Vmail.google.com
p5676
F0.00285240789862983
tp5677
(Vtwitter.com
p5678
F0.0023210936167840177
tp5679
(Ve.mail.ru
p5680
F0.0017568898115882413
tp5681
(Vviadeo.com
p5682
F0.0017304525049372677
tp5683
(Vindeed.com
p5684
F0.001351932687287556
tp5685
(Vdub126.mail.live.com
p5686
F0.0012331686466150727
tp5687
(Vapi.addthis.com
p5688
F0.000836236539960899
tp5689
(Vfacebook.com
p5690
F0.0007638182750437176
tp5691
(Vbehance.net
p5692
F0.00029182320364485996
tp5693
(Voutlook.office365.com
p5694
F0.0002846521831975362
tp5695
tp5696
s((S'alibaba.com'
p5697
tp5698
(ttp5699
(ts((S'mobileread.com'
p5700
tp5701
(ttp5702
(ts((S'alpha46.com'
p5703
tp5704
(ttp5705
(ts((S'oracle-base.com'
p5706
tp5707
(ttp5708
(ts((S'alpha43.com'
p5709
tp5710
(ttp5711
(ts((S'alpha19.com'
p5712
tp5713
(ttp5714
(ts((S'ebay.co'
p5715
tp5716
(ttp5717
((Vhellospy.com
p5718
F0.005177550920724857
tp5719
(Vrebelsmarket.com
p5720
F0.0005491041467531676
tp5721
(Vshapefit.com
p5722
F0.0004141026011421527
tp5723
(Vdandwiki.com
p5724
F0.0003587106615425603
tp5725
(Vlastcall.com
p5726
F0.00026525258064012805
tp5727
(Vteenvogue.com
p5728
F0.00015161079116054492
tp5729
(Vtechtimes.com
p5730
F0.00011506358240409716
tp5731
(Velitesecurity.org
p5732
F9.430181295235401e-05
tp5733
(Vi.rietumu.lv
p5734
F7.968053663914909e-05
tp5735
(Vbigbadtoystore.com
p5736
F6.218557419049928e-05
tp5737
(Vrense.com
p5738
F1.8313178990648464e-05
tp5739
(Vjofogas.hu
p5740
F7.2650310444479825e-06
tp5741
(Vs.taobao.com
p5742
F4.016817948772722e-06
tp5743
(Vkeep.google.com
p5744
F3.7294146250969885e-06
tp5745
(Vsweet-page.com
p5746
F6.001653733854772e-07
tp5747
(Vamazon.com
p5748
F5.676054551839604e-07
tp5749
(Vgoogle.com.br
p5750
F1.2066006231720475e-08
tp5751
(Vgoogle.com
p5752
F6.338193108873472e-09
tp5753
(Vfacebook.com
p5754
F3.8903125658133814e-10
tp5755
tp5756
s((S'beta9.com'
p5757
tp5758
(ttp5759
(ts((S'caltech.edu'
p5760
tp5761
(ttp5762
(ts((S'sarasoueidan.com'
p5763
tp5764
(ttp5765
(ts((S'mozilla.org'
p5766
tp5767
(ttp5768
((Vtrovi.com
p5769
F0.003908185540139704
tp5770
(Vastromenda.com
p5771
F0.003661281447262505
tp5772
(Vdefault-search.net
p5773
F0.003546628603773007
tp5774
(Vyandex.ru
p5775
F0.003418356746361168
tp5776
(Vhome.tb.ask.com
p5777
F0.002485574080687845
tp5778
(Vmystartsearch.com
p5779
F0.002372836999030979
tp5780
(Vgroovorio.com
p5781
F0.0021940789678751077
tp5782
(Vcr4.gogorithm.com
p5783
F0.0014396275046440782
tp5784
(Vistartsurf.com
p5785
F0.001407008639371235
tp5786
(Vcr2.gogorithm.com
p5787
F0.0011775681487276746
tp5788
(Vvosteran.com
p5789
F0.0011286580230675245
tp5790
(Vupdatesoftnow.com
p5791
F0.0011115485450116163
tp5792
(Vsearch.yahoo.com
p5793
F0.0010762443747588434
tp5794
(Vsweet-page.com
p5795
F0.0009996025717427229
tp5796
(Vhd-plugin.com
p5797
F0.0009837360668146014
tp5798
(Vget.adobe.com
p5799
F0.0008646924779831686
tp5800
(Vcij.campaignism.com
p5801
F0.0007996086228882707
tp5802
(Vieonline.microsoft.com
p5803
F0.0007893274514678609
tp5804
(Vaz307127.vo.msecnd.net
p5805
F0.0007404118225709963
tp5806
tp5807
s((S'brentozar.com'
p5808
tp5809
(ttp5810
(ts((S'wolframalpha.com'
p5811
tp5812
(ttp5813
((Vwebassign.net
p5814
F0.006517849643425926
tp5815
(Vmathworld.wolfram.com
p5816
F0.003393997804121385
tp5817
(Vtutorial.math.lamar.edu
p5818
F0.0032305370516692486
tp5819
(Vmathxl.com
p5820
F0.002903553433297141
tp5821
(Vsymbolab.com
p5822
F0.0026494218523835946
tp5823
(Vpurplemath.com
p5824
F0.0023617804926934385
tp5825
(Vquest.cns.utexas.edu
p5826
F0.0022502976628350187
tp5827
(Vmath.stackexchange.com
p5828
F0.0021096126650983816
tp5829
(Vdesmos.com
p5830
F0.0016572406004577939
tp5831
(Vchegg.com
p5832
F0.0011195735650166758
tp5833
(Vmathway.com
p5834
F0.0008791764257050895
tp5835
tp5836
s((S'webssearches.com'
p5837
tp5838
(ttp5839
((Vapps.facebook.com
p5840
F0.0021935335744632054
tp5841
(Voffers.bycontext.com
p5842
F0.0020862308063040167
tp5843
(Voffer.alibaba.com
p5844
F0.0020701312153313836
tp5845
(Vcr2.gogorithm.com
p5846
F0.0018717007128681296
tp5847
(Vgenesis-offers.com
p5848
F0.0018132036619243768
tp5849
(Vfriv.com
p5850
F0.001731956243723461
tp5851
(Vcr3.gogorithm.com
p5852
F0.0015787268353865457
tp5853
(Vcdn.regiedepub.com
p5854
F0.0011559891140969405
tp5855
(Vtuneuppro.com
p5856
F0.0011187338752717364
tp5857
(Vgty.campaignism.com
p5858
F0.0009354430470577684
tp5859
(Vmegaoferta.net
p5860
F0.0008819582476484195
tp5861
(Valh.gogorithm.com
p5862
F0.0007192514956077569
tp5863
(Vlp.ilividnewtab.com
p5864
F0.0006971578420989229
tp5865
(Vzym.tollbahsuburban.com
p5866
F0.0006637015040444586
tp5867
(Vavira.com
p5868
F0.0006519336861994229
tp5869
(Veasydriverpro.com
p5870
F0.0005909675721103702
tp5871
(Vcache.icmwebserv.com
p5872
F0.0005497025356421287
tp5873
(Vxnxx.com
p5874
F0.0005015555867557102
tp5875
(Vyoutube.com
p5876
F0.0004991988529966611
tp5877
tp5878
s((S'joyent.com'
p5879
tp5880
(ttp5881
((Vcampaignanalytics.myacxiomtest.com
p5882
F0.007656653535002253
tp5883
(Vnumber-none.com
p5884
F0.005462783823445065
tp5885
(Vpkgsrc.smartos.org
p5886
F0.005407598258175054
tp5887
(Vapi.test.welike.ru
p5888
F0.004273914611325554
tp5889
(Vlescoupains.slack.com
p5890
F0.0033319372702312815
tp5891
(Vgadgetsvooriphone.nl
p5892
F0.003100892886924377
tp5893
(Veinsights.atlassian.net
p5894
F0.002615584326266742
tp5895
(Vonehungrymind.com
p5896
F0.002407876940074788
tp5897
(Vinternap.com
p5898
F0.0022029664249209368
tp5899
(Vengineering.gosquared.com
p5900
F0.0018869293852964656
tp5901
(Vspringpad.com
p5902
F0.0017024582812026898
tp5903
(Vsmartos.org
p5904
F0.0016777105888884866
tp5905
(Vjoyentcloud.com
p5906
F0.001627445909835359
tp5907
(Vnodejs.org
p5908
F0.001574777926200704
tp5909
(Vdev3.unique-cottages.com
p5910
F0.0014837016016750098
tp5911
(Vmediotype.com
p5912
F0.0014024307406130148
tp5913
(Vdeldan.com
p5914
F0.001394599847901454
tp5915
(Vnodeweekly.com
p5916
F0.001343872013715105
tp5917
(Vhueniverse.com
p5918
F0.0012569674115744031
tp5919
(Vmy.joyentcloud.com
p5920
F0.0012517293629356347
tp5921
tp5922
s((S'toyota.com'
p5923
tp5924
(ttp5925
((Vqa.specificmedia.com
p5926
F0.02042095613104565
tp5927
(Vautomobiles.honda.com
p5928
F0.016338080322730805
tp5929
(Vnissanusa.com
p5930
F0.009795714948433232
tp5931
(Vlexus.com
p5932
F0.0067516003806337745
tp5933
(Vford.com
p5934
F0.00559533209166779
tp5935
(Vchevrolet.com
p5936
F0.005139097555811134
tp5937
(Vhyundaiusa.com
p5938
F0.0050815929254295995
tp5939
(Vsubaru.com
p5940
F0.0049315665645608174
tp5941
(Vtoyotafinancial.com
p5942
F0.003137881281160016
tp5943
(Vmazdausa.com
p5944
F0.0014695901289885416
tp5945
(Vkia.com
p5946
F0.0013766102337624071
tp5947
(Vvw.com
p5948
F0.0013534451070939724
tp5949
(Vtoyotadurability.com
p5950
F0.0012774832505814773
tp5951
(Vtickets.theportalgrp.com
p5952
F0.001198841472260434
tp5953
(Vscion.com
p5954
F0.0011852406513489999
tp5955
tp5956
s((S'yahoo.com'
p5957
tp5958
(ttp5959
((Vsearch.safefinder.com
p5960
F0.009634514947491827
tp5961
(Vfacebook.com
p5962
F0.009307743324214716
tp5963
(Vgoogle.com
p5964
F0.007993397163605226
tp5965
(Vdefault-search.net
p5966
F0.00638461452160443
tp5967
(Vyoutube.com
p5968
F0.00588895962389419
tp5969
(Vistart.webssearches.com
p5970
F0.004950212773619762
tp5971
(Vmysearch.avg.com
p5972
F0.003889205065770996
tp5973
(Vtrovi.com
p5974
F0.003690493176671326
tp5975
(Vreddit.com
p5976
F0.003380895730880115
tp5977
(Vmsn.com
p5978
F0.0033709754356519212
tp5979
(Vhome.tb.ask.com
p5980
F0.003246479649348346
tp5981
(Vbing.com
p5982
F0.001870128319245984
tp5983
(Vcr2.gogorithm.com
p5984
F0.0017706224180467011
tp5985
tp5986
s((S'live.com'
p5987
tp5988
(ttp5989
((Vhotmail.com
p5990
F0.03407584705530906
tp5991
(Vgoogle.com.br
p5992
F0.009265640436663175
tp5993
(Vmsn.com
p5994
F0.005826312472339241
tp5995
(Voutlook.com
p5996
F0.005581978726363533
tp5997
(Vistart.webssearches.com
p5998
F0.004093831585578022
tp5999
(Vfacebook.com
p6000
F0.004037818878021313
tp6001
(Vtrovi.com
p6002
F0.0035716095806425908
tp6003
(Vsearch.safefinder.com
p6004
F0.0032300633341410773
tp6005
(Vsearch.sidecubes.com
p6006
F0.0025310821336464863
tp6007
(Vhome.tb.ask.com
p6008
F0.0021570512124755577
tp6009
(Vistartsurf.com
p6010
F0.0010630926812854498
tp6011
(Vsearch.ask.com
p6012
F0.0009246157662065858
tp6013
tp6014
s((S'trovi.com'
p6015
tp6016
(ttp6017
((Vbing.com
p6018
F0.004212441284699453
tp6019
(Vapps.facebook.com
p6020
F0.0030083022471033304
tp6021
(Voffers.bycontext.com
p6022
F0.0029297262233523636
tp6023
(Vgroovorio.com
p6024
F0.0029130750852486807
tp6025
(Vastromenda.com
p6026
F0.0028937860789622753
tp6027
(Vreimageplus.com
p6028
F0.00243956162408757
tp6029
(Vsafecart.com
p6030
F0.0014653320469006084
tp6031
(Vtuneuppro.com
p6032
F0.001189551762306356
tp6033
(Valh.gogorithm.com
p6034
F0.0011530157550193704
tp6035
(Vcr2.gogorithm.com
p6036
F0.0011365290965476328
tp6037
(Vvosteran.com
p6038
F0.0007473469568090073
tp6039
(Vzym.tollbahsuburban.com
p6040
F0.0006226184951174459
tp6041
(Vanyprotect.com
p6042
F0.0006114114084377105
tp6043
(Vcdn.regiedepub.com
p6044
F0.0005553433080517209
tp6045
(Vgenesis-offers.com
p6046
F0.0005458160518087363
tp6047
(Vgty.campaignism.com
p6048
F0.0005249554641133994
tp6049
tp6050
s((S'giflike.com'
p6051
tp6052
(ttp6053
((V192.168.33.10.xip.io
p6054
F0.0029944838455476758
tp6055
(Vprmptr.com
p6056
F0.0027936549891153916
tp6057
(Vdev.comingsoon.net
p6058
F0.0027169735774319596
tp6059
(Vkonwertujplika.pl
p6060
F0.002401999311191374
tp6061
(Vbulletinboards.1800runaway.org
p6062
F0.0020535507537810926
tp6063
(Vquick-break.net
p6064
F0.001965415682500802
tp6065
(Vgoogleglass.blog.jp
p6066
F0.001888773352221067
tp6067
(Vevolutionmedia.pl
p6068
F0.001575418658488921
tp6069
(Vyt2gif.com
p6070
F0.0015676074246532394
tp6071
(Vcomicbooksfrombrazil.tumblr.com
p6072
F0.001191175510736897
tp6073
(Vbeiz.jp
p6074
F0.0010855741344639473
tp6075
(Vmcclan.joriscoenen.nl
p6076
F0.0009896366918257403
tp6077
(Vcollegefootball.rivals.com
p6078
F0.0007786256730771759
tp6079
(Vanpfoto.nl
p6080
F0.00061065570348849
tp6081
(Vjstatham.com
p6082
F0.0005371080090636977
tp6083
(Vstereotronique.com
p6084
F0.000497382524465003
tp6085
(Vmongolia.seesaa.net
p6086
F0.00046012774022502435
tp6087
(V538.nl
p6088
F0.00045926873481025435
tp6089
(Veverydayhero.com.au
p6090
F0.0004583765311216065
tp6091
(Vgifmake.com
p6092
F0.00042351304067237734
tp6093
tp6094
s((S'codinghorror.com'
p6095
tp6096
(ttp6097
(ts((S'lego.com'
p6098
tp6099
(ttp6100
(ts((S'alpha32.com'
p6101
tp6102
(ttp6103
(ts((S'shawarma-time.com'
p6104
tp6105
(ttp6106
(ts((S'nodejs.org'
p6107
tp6108
(ttp6109
((Vnpmjs.org
p6110
F0.052409661337086105
tp6111
(Vjoyent.com
p6112
F0.007351561156388441
tp6113
(Vsublime.wbond.net
p6114
F0.003073132718141977
tp6115
(Vdocs.angularjs.org
p6116
F0.001574110665611822
tp6117
(Vdevcenter.heroku.com
p6118
F0.0015366532457436828
tp6119
(Vgithub.com
p6120
F0.0012227627639955184
tp6121
(Vcnodejs.org
p6122
F0.0010209300693521325
tp6123
(Vexpressjs.com
p6124
F0.0008330170388315085
tp6125
(V4.cn
p6126
F0.0006356454753574265
tp6127
(Vhowtonode.org
p6128
F0.0006255531085389839
tp6129
(Vjetbrains.com
p6130
F0.0005101985440803224
tp6131
(Vcordova.apache.org
p6132
F0.0004781782751358757
tp6133
(Vjxcore.com
p6134
F0.0004499365153167975
tp6135
(Vgit-scm.com
p6136
F0.00037663157036173423
tp6137
(Vmongodb.org
p6138
F0.00037044058643897516
tp6139
(Vnodeschool.io
p6140
F0.00032931842272583485
tp6141
(Vandrew.cmu.edu
p6142
F0.0003280903620817059
tp6143
tp6144
s((S'alpha31.com'
p6145
tp6146
(ttp6147
(ts((S'practicingruby.com'
p6148
tp6149
(ttp6150
((Velmcitycraftworks.org
p6151
F0.023109641123805664
tp6152
(Vhartsem.edu
p6153
F0.01576023487552252
tp6154
(Vvdumoulin.github.io
p6155
F0.014616148715765574
tp6156
(Vblog.rubybestpractices.com
p6157
F0.014336265722118734
tp6158
(Vletter.ly
p6159
F0.009270472292980331
tp6160
(Vfabioanselmo.github.io
p6161
F0.007632800412583806
tp6162
(Vnas.int.stangl.co.za
p6163
F0.006892014145900156
tp6164
(Vpracticalruby.com
p6165
F0.006233190950798924
tp6166
(Vjamesfriend.com.au
p6167
F0.004684389272748566
tp6168
(Vdevblog.avdi.org
p6169
F0.0029803058169662632
tp6170
(Vrubytechlist.com
p6171
F0.0027833693680260445
tp6172
(Vstats.fanjas.com
p6173
F0.002452099050482813
tp6174
(Vcodon.com
p6175
F0.002302760390183461
tp6176
(Vtestingeducation.org
p6177
F0.0022754087308275747
tp6178
(Vherdt.de
p6179
F0.0022693966419629025
tp6180
(Vrubyoffrails.com
p6181
F0.0021707508112341948
tp6182
(Vcodecoreyvr.slack.com
p6183
F0.001842643106583627
tp6184
(Vdaniel.haxx.se
p6185
F0.0017404757300328755
tp6186
(Vschibsted.service-now.com
p6187
F0.0012539919721074684
tp6188
(Vallin.qiita.com
p6189
F0.0011750421056754533
tp6190
tp6191
s((S'localhost.'
p6192
tp6193
(ttp6194
(ts((S'ureddit.com'
p6195
tp6196
(ttp6197
((Vbeginnerscpp.com
p6198
F0.006572671888598781
tp6199
(Vfatsecret.com.au
p6200
F0.004678948612723494
tp6201
(V3pod.com.au
p6202
F0.004578399016372226
tp6203
(Vdev.solita.fi
p6204
F0.00436173082109968
tp6205
(Vwebcourseworks.com
p6206
F0.003127216921718232
tp6207
(Vthehybridathlete.com
p6208
F0.0023514834745883392
tp6209
(Vtelecommuterjobs.net
p6210
F0.002200164380097364
tp6211
(Vlocal.brookings.k12.sd.us
p6212
F0.002117690013996227
tp6213
(Vevasdigital.co
p6214
F0.0018805682450380422
tp6215
(Vuniversityofreddit.com
p6216
F0.0013201869970415694
tp6217
(Vludosoul.wordpress.com
p6218
F0.0012700212020068434
tp6219
(Vmole-reads.tumblr.com
p6220
F0.0012221340955459448
tp6221
(Vwipp.energy.gov
p6222
F0.001025010250102501
tp6223
(Vmail.yoox.biz
p6224
F0.0010156743254000932
tp6225
(Vapexbookcompany.com
p6226
F0.0010100822701702092
tp6227
(Vcodeception.com
p6228
F0.0009424400667020082
tp6229
(Vincidentalcomplexity.com
p6230
F0.0009344921035417251
tp6231
(Vdogfalo.github.io
p6232
F0.0009123859517560306
tp6233
(Vacsf.com.au
p6234
F0.0008911864087341653
tp6235
(Vwindenergyfoundation.org
p6236
F0.0008400938928468477
tp6237
tp6238
s((S'paulund.co.uk'
p6239
tp6240
(ttp6241
((Vdesignfloat.com
p6242
F0.014682317874154185
tp6243
(Vtikslus.com
p6244
F0.009972109256922046
tp6245
(Vtuflow.com
p6246
F0.00941413071944854
tp6247
(Vthemeswordpressfree.com
p6248
F0.0064874181764638375
tp6249
(V1dex.ch
p6250
F0.005137631363583222
tp6251
(Vcodingfusion.com
p6252
F0.005027579500723988
tp6253
(Vwp-tips.net
p6254
F0.004666974061316192
tp6255
(Vdanangsmartphone.vn
p6256
F0.004652234916816997
tp6257
(Vtak.ee
p6258
F0.004626630229509653
tp6259
(Venjoycss.com
p6260
F0.004177601750527054
tp6261
(Ve-kitap.org
p6262
F0.004108657082764539
tp6263
(Vpurecssmenu.com
p6264
F0.0039179659775167705
tp6265
(Vccs.seemysite.us
p6266
F0.003615513921040149
tp6267
(Vpro.agence-hybrid.com
p6268
F0.003342605497371602
tp6269
(Vhobium.com
p6270
F0.003266090976893467
tp6271
(Vwplift.com
p6272
F0.0028646937118022783
tp6273
(Vsimplemediacode.info
p6274
F0.002693832260479542
tp6275
(Vcubic-bezier.com
p6276
F0.002685931857532827
tp6277
(Vleagueoflegends-wiki.com
p6278
F0.00265266660471949
tp6279
(Vgmgcongress.com
p6280
F0.0025931240388389495
tp6281
tp6282
s((S'stackexchange.com'
p6283
tp6284
(ttp6285
((Vdrupal.org
p6286
F0.0018087338073138374
tp6287
(Vsuperuser.com
p6288
F0.0017565770216195539
tp6289
(Vstackoverflow.com
p6290
F0.0017298447513904261
tp6291
(Vexchange.jacobs-university.de
p6292
F0.0017227839744996746
tp6293
(Vencrypted.google.com
p6294
F0.0016974100217127502
tp6295
(Vstartpage.com
p6296
F0.0011022911608110297
tp6297
(Vknightsandmerchants.net
p6298
F0.0010559136442041205
tp6299
(Vcourses.edx.org
p6300
F0.0009489679492966093
tp6301
(Vwen.lu
p6302
F0.0007011318157478892
tp6303
(Vdev53.mainlinemenswear.co.uk
p6304
F0.0004911855144103377
tp6305
(Vbodytonicmusic.com
p6306
F0.0004665108146013598
tp6307
(Vwpsites.net
p6308
F0.00045658378453616134
tp6309
(Vmathoverflow.net
p6310
F0.00038500259922329095
tp6311
(Vbuildwithcraft.com
p6312
F0.00036671354486146547
tp6313
(Vshkspr.mobi
p6314
F0.00034314590131385466
tp6315
tp6316
s((S'alpha45.com'
p6317
tp6318
(ttp6319
(ts((S'marionettejs.com'
p6320
tp6321
(ttp6322
((Vnetguru.co
p6323
F0.004179512576203563
tp6324
(Vradiodev.djazz.se
p6325
F0.003777872461298111
tp6326
(Vbackbonemarionette.readthedocs.org
p6327
F0.0035891628757557417
tp6328
(Vbackbonejs.org
p6329
F0.00338275404730614
tp6330
(Vmojotech.com
p6331
F0.0025241453350434147
tp6332
(Vjira.westpac.co.nz
p6333
F0.0016843049374121672
tp6334
(Vneat.bourbon.io
p6335
F0.001541424203294707
tp6336
(Vmi.tv
p6337
F0.0013908046961791426
tp6338
(Vvictorsavkin.com
p6339
F0.0013447376959585082
tp6340
(Vplottablejs.org
p6341
F0.001268975589454481
tp6342
(Vbackbonerails.com
p6343
F0.0012360838244924689
tp6344
(Vapp.codegrid.net
p6345
F0.001163886158911156
tp6346
(Vsanlamdigital.co.za
p6347
F0.001099227051454295
tp6348
(Vstream.sanlam.co.za
p6349
F0.0010781394393674915
tp6350
(Vd3gblc8a9weyfb.cloudfront.net
p6351
F0.0010371620433850157
tp6352
(Vatlassian.bldstools.com
p6353
F0.0009999689932095128
tp6354
(Vaccounts.hullapp.io
p6355
F0.0009223059085072539
tp6356
(Vde.droidcon.com
p6357
F0.0008280114777445569
tp6358
(Vforum.acidtu.be
p6359
F0.0007090679449586008
tp6360
(Vconfluence.rmp-oudan.net
p6361
F0.0006990816078409367
tp6362
tp6363
s((S'baidu.com'
p6364
tp6365
(ttp6366
((Vweibo.com
p6367
F0.027237351880198574
tp6368
(Vbilibili.com
p6369
F0.015872227198823714
tp6370
(Vuser.qzone.qq.com
p6371
F0.013327046598158254
tp6372
(Vgoogle.com.hk
p6373
F0.012046312454520806
tp6374
(Vs.taobao.com
p6375
F0.00874462576261445
tp6376
(Vdouban.com
p6377
F0.008413626118841796
tp6378
(Vacfun.tv
p6379
F0.007379018265028736
tp6380
(Vrenren.com
p6381
F0.007066561429865499
tp6382
(Vzhihu.com
p6383
F0.005108085147881503
tp6384
(Vyouku.com
p6385
F0.004951436561725886
tp6386
(Vhao123.com
p6387
F0.0028257992460768403
tp6388
(Vv.youku.com
p6389
F0.002222559857311278
tp6390
tp6391
s((S'docks.qc.ca'
p6392
tp6393
(ttp6394
((Vgoogle.com
p6395
F1.8234564997169045e-08
tp6396
tp6397
s((S'.'
p6398
tp6399
(ttp6400
(ts((S'alpha17.com'
p6401
tp6402
(ttp6403
(ts((S'collegehumor.com'
p6404
tp6405
(ttp6406
((Vdorkly.com
p6407
F0.008021933011457285
tp6408
(Vepicfail.com
p6409
F0.0012799687830245953
tp6410
(Vcracked.com
p6411
F0.0010912017310832412
tp6412
(Vwebmail.iac.com
p6413
F0.0010835730286289731
tp6414
(Vfunnyordie.com
p6415
F0.0008083489140107018
tp6416
(Vbitboard.com
p6417
F0.0007468065544100305
tp6418
(Vjakeandamir.com
p6419
F0.000684379580816286
tp6420
(Vsmosh.com
p6421
F0.0005418167439286141
tp6422
(Votaku-streamers.com
p6423
F0.0004226580805814449
tp6424
(Vescapistmagazine.com
p6425
F0.00037066058045890797
tp6426
(Vkillsometime.com
p6427
F0.0003187066730836541
tp6428
(Vexplosm.net
p6429
F0.00020320890175623739
tp6430
(Vslowrobot.com
p6431
F0.00019192407440080052
tp6432
(Vbreak.com
p6433
F0.00014199769895208476
tp6434
(Vcockenblog.tumblr.com
p6435
F0.00013743128785720813
tp6436
tp6437
s((S'safefinder.com'
p6438
tp6439
(ttp6440
((Vca.search.yahoo.com
p6441
F0.0029244510928526416
tp6442
(Vpornhub.com
p6443
F0.001289683158149094
tp6444
(Vapps.facebook.com
p6445
F0.0012647655096910647
tp6446
(Vtuneuppro.com
p6447
F0.0010544851280576753
tp6448
(Vyouporn.com
p6449
F0.0009827774222949221
tp6450
(Vgoogle.co.za
p6451
F0.0009601737530226502
tp6452
(Vfeed.snapdo.com
p6453
F0.0009272621782743603
tp6454
(Vroblox.com
p6455
F0.0007794440513365415
tp6456
(Vxnxx.com
p6457
F0.0006499708133725999
tp6458
(Vlenovo.com
p6459
F0.0006219854391525674
tp6460
(Vmozilla.org
p6461
F0.0004626983764898858
tp6462
(Vstart.sweetpacks.com
p6463
F0.00037309378931740285
tp6464
(Vmypcbackup.com
p6465
F0.00034282324813356824
tp6466
(Vreimageplus.com
p6467
F0.00030580678293120657
tp6468
tp6469
s((S'machonmeir.net'
p6470
tp6471
(ttp6472
((Vheb.machonora.co.il
p6473
F0.029002781088597537
tp6474
(Vjava4developers.com
p6475
F0.014888147039637771
tp6476
(Vpolloalacerveza.net
p6477
F0.0076491775277561175
tp6478
(Vblogs.haaretz.co.il
p6479
F0.0003847481746756713
tp6480
(Vdaat.ac.il
p6481
F0.00027566871658616553
tp6482
(Vde.giveawayoftheday.com
p6483
F0.00021326767274075617
tp6484
(Vaurora-israel.co.il
p6485
F0.0001214345009017726
tp6486
(Vtime100.ru
p6487
F7.434543967636661e-05
tp6488
(Vjssnews.com
p6489
F5.5182887124508044e-05
tp6490
(Vd.co.il
p6491
F4.879871076648798e-05
tp6492
(Vlukyanchenko.donetsk.ua
p6493
F3.604043881396682e-05
tp6494
(Vfincaraiz.com.co
p6495
F3.412630786408771e-05
tp6496
(Vstatic.bestsocialfeed.com
p6497
F3.0072721777110772e-05
tp6498
(Vhe.wikipedia.org
p6499
F5.486249593194593e-06
tp6500
(Vtranslate.google.de
p6501
F4.921660586178725e-06
tp6502
(Vcxz.to
p6503
F4.716191392479089e-06
tp6504
(Vukrinform.ua
p6505
F4.369652023853493e-06
tp6506
(Vmako.co.il
p6507
F1.874362769907174e-06
tp6508
(Vdub121.mail.live.com
p6509
F2.4786804665218696e-07
tp6510
(Vgoogle.fr
p6511
F2.7931584446728225e-08
tp6512
tp6513
s((S'thoughtbot.com'
p6514
tp6515
(ttp6516
((Vupcase.com
p6517
F0.024989667086915485
tp6518
(Vformkeep.com
p6519
F0.014646203355550037
tp6520
(Vjameschambers.co
p6521
F0.008357425242515544
tp6522
(Vtammersaleh.com
p6523
F0.004943316112993391
tp6524
(Vhoundci.com
p6525
F0.004806836698868746
tp6526
(Vsiyelo.com
p6527
F0.002945051927677963
tp6528
(Vgiantrobots.fm
p6529
F0.00211715962498671
tp6530
(Vmapsdesign.tumblr.com
p6531
F0.002099795643319399
tp6532
(Vapeth.com
p6533
F0.0019577595682550466
tp6534
(Vdevblog.avdi.org
p6535
F0.0019100218616960073
tp6536
(Vacademicwork.se
p6537
F0.0017322341701425485
tp6538
(Vrinse.io
p6539
F0.001560292892647523
tp6540
(Vatomic.io
p6541
F0.0014838520150369518
tp6542
(Vmartialcodex.com
p6543
F0.0014348262119961987
tp6544
(Vlvh.me
p6545
F0.0013953332488518147
tp6546
(Vbrightnewt.com
p6547
F0.0013170589638774016
tp6548
(Vsetentaydos.com
p6549
F0.0012088216882618495
tp6550
(Vryanterry.net
p6551
F0.0011578899857040137
tp6552
(Vdrp.io
p6553
F0.0011536686663590216
tp6554
(Vlaurium.nusii.com
p6555
F0.001150569134284429
tp6556
tp6557
s((S'chabad.org'
p6558
tp6559
(ttp6560
((Vaish.com
p6561
F0.01054631331832647
tp6562
(Vcollive.com
p6563
F0.004970635902076991
tp6564
(Vmychabad.org
p6565
F0.00479952306765223
tp6566
(Vchabadorg.clhosting.org
p6567
F0.0026968763395004464
tp6568
(Vmechon-mamre.org
p6569
F0.0023557864688366643
tp6570
(Vkinus.com
p6571
F0.0020396592651405697
tp6572
(Vtorahcafe.com
p6573
F0.001940989808469816
tp6574
(Vdailytehillim.com
p6575
F0.0015873698084554664
tp6576
(Vhebcal.com
p6577
F0.0014436713269138249
tp6578
(V24jewish.wordpress.com
p6579
F0.0013219416815438239
tp6580
(Vcabad.org
p6581
F0.0012176026736432492
tp6582
(Vcrownheights.info
p6583
F0.0011202900423400895
tp6584
(Vtorahanytime.com
p6585
F0.001078311000246013
tp6586
(Valislam.org
p6587
F0.0008990103735309587
tp6588
(Vchabadmanagement.com
p6589
F0.0008384592362293009
tp6590
(Vcesjds.org
p6591
F0.0007915022233819323
tp6592
(Vbooks.google.dz
p6593
F0.0007632211907478664
tp6594
(Vdaat.ac.il
p6595
F0.0007604603296922424
tp6596
(Vkabbalaonline.org
p6597
F0.000751615258682406
tp6598
(Vlchaimweekly.org
p6599
F0.0007106067441943094
tp6600
tp6601
s((S'alpha7.com'
p6602
tp6603
(ttp6604
(ts((S'techcrunch.com'
p6605
tp6606
(ttp6607
((Vventurebeat.com
p6608
F0.0024037609708602837
tp6609
(Vmashable.com
p6610
F0.002277152232552824
tp6611
(Vtechmeme.com
p6612
F0.002102955620560181
tp6613
(Vpando.com
p6614
F0.0020474406626040174
tp6615
(Vrecode.net
p6616
F0.0018864342868544382
tp6617
(Vvalleywag.gawker.com
p6618
F0.0018795175515385783
tp6619
(Vnews.ycombinator.com
p6620
F0.0018683397079593117
tp6621
(Vthenextweb.com
p6622
F0.0017588173685099972
tp6623
(Vengadget.com
p6624
F0.0015970751891468925
tp6625
(Vcrunchbase.com
p6626
F0.0008626965652541891
tp6627
(Vgeekwire.com
p6628
F0.0005407513019916513
tp6629
(Vnewspicks.com
p6630
F0.0004418912807186634
tp6631
tp6632
s((S'alphapixel.com'
p6633
tp6634
(ttp6635
((Vwfvrj.petrobras.com.br
p6636
F0.008663177057381214
tp6637
(Vmundopositivo.com.br
p6638
F0.00018420454425057862
tp6639
(Vgoogle.ae
p6640
F1.5531341005293674e-07
tp6641
(Vgoogle.com.pk
p6642
F1.0732731449454997e-07
tp6643
tp6644
s((S'beta5.com'
p6645
tp6646
(ttp6647
(ts((S'npmjs.com'
p6648
tp6649
(ttp6650
((Vnodesource.com
p6651
F0.002475681191626671
tp6652
(Vcodeforgeek.com
p6653
F0.0015223448358876865
tp6654
(Vjjasonclark.com
p6655
F0.0012831416081046803
tp6656
(Vizs.me
p6657
F0.0007100516689384093
tp6658
(Vtrans.intel.com
p6659
F0.0004883046672334489
tp6660
(Valamut.optimizasas.com
p6661
F0.0004459434402893469
tp6662
(Vblog.nodejs.org
p6663
F0.00042721844760140005
tp6664
(Vnodejsmodules.org
p6665
F0.0004185635432821385
tp6666
(Vapp.fastly.com
p6667
F0.00041488571345869955
tp6668
(Vnpm-inc.slack.com
p6669
F0.00036155499200505155
tp6670
(Vchabotspace.org
p6671
F0.0003207799923645326
tp6672
(Vaccel.com
p6673
F0.0002820650338676678
tp6674
(Vscottksmith.com
p6675
F0.00021685254027261461
tp6676
(Vnasdaqprivatemarket.com
p6677
F0.00019315488793301982
tp6678
(Vgithub.fctechno.com
p6679
F0.0001924153372516093
tp6680
(Vhapijs.com
p6681
F0.0001878925730829334
tp6682
(Vnpm.com
p6683
F0.0001531924863591102
tp6684
(Vlocal.roskilde-festival.dk
p6685
F0.00015076612999214429
tp6686
(Vws-i.org
p6687
F0.00014700851801278407
tp6688
(Vbooks.google.co.in
p6689
F3.5309301524327415e-05
tp6690
tp6691
s((S'theoldreader.com'
p6692
tp6693
(ttp6694
((Vcluborlov.blogspot.com.br
p6695
F0.001629483712195623
tp6696
(Vhome.nielskim.nl
p6697
F0.001583765973314186
tp6698
(Vboards.cruisecritic.com
p6699
F0.001485453300561661
tp6700
(Vdtmpower.net
p6701
F0.0014122945690184302
tp6702
(Vmail.luetzen.dk
p6703
F0.0011100585027773505
tp6704
(Vportal.filadelfia.br
p6705
F0.0008692568306636837
tp6706
(Vgigabitescafe.com
p6707
F0.0007618165206089385
tp6708
(Vdelphifeeds.com
p6709
F0.0005999661440565003
tp6710
(Vbrusselnieuws.be
p6711
F0.0005860492509324877
tp6712
(Vtheaquilareport.com
p6713
F0.0005821878023734192
tp6714
(Vradionacional.com.ar
p6715
F0.0005543664620062667
tp6716
(Vvott.ru
p6717
F0.0004978213381410596
tp6718
(Vunz.com
p6719
F0.0004920895591088345
tp6720
(Vone.npr.org
p6721
F0.0004875921931996698
tp6722
(Vforum.pdnk.org
p6723
F0.00046894424078728703
tp6724
(Vwebmail.wmich.edu
p6725
F0.0004127460638011333
tp6726
(Vylilauta.org
p6727
F0.0003986461030724298
tp6728
(Vivorytower.com
p6729
F0.0003872626065568982
tp6730
(Vhomebrewchatter.com
p6731
F0.0003844828465516838
tp6732
(Vs126-pl.ogame.gameforge.com
p6733
F0.0003813682539531203
tp6734
tp6735
s((S'testy.com'
p6736
tp6737
(ttp6738
((Vgoogle.com
p6739
F5.7582840045330454e-09
tp6740
(Vfacebook.com
p6741
F4.906167885604807e-10
tp6742
tp6743
s((S'9gag.com'
p6744
tp6745
(ttp6746
((Vhugelol.com
p6747
F0.003233730888247263
tp6748
(Vmemecenter.com
p6749
F0.0025017981164674975
tp6750
(Vkwejk.pl
p6751
F0.0021561817990461748
tp6752
(Vmangareader.net
p6753
F0.001933358652853593
tp6754
(Vdumpert.nl
p6755
F0.0015286863776028295
tp6756
(Veksisozluk.com
p6757
F0.001271977269860276
tp6758
(Vtwitch.tv
p6759
F0.0012509446636704555
tp6760
(Vhiddenlol.com
p6761
F0.0010730062228643238
tp6762
(Vmangafox.me
p6763
F0.0006855088296482892
tp6764
(Vjeuxvideo.com
p6765
F0.0005999945477223184
tp6766
(Vhaivl.com
p6767
F0.0004240296668315654
tp6768
(Vmangahere.co
p6769
F0.0003718523999781129
tp6770
tp6771
s((S'pow.cx'
p6772
tp6773
(ttp6774
(ts((S'malwarebytes.org'
p6775
tp6776
(ttp6777
((Vsupport.mozilla.org
p6778
F0.002946039787681787
tp6779
(Vbleepingcomputer.com
p6780
F0.0023474999475237225
tp6781
(Vcomment-supprimer.com
p6782
F0.0018166374168833335
tp6783
(Vmalwaretips.com
p6784
F0.001629098375412804
tp6785
(Vcome-eliminare.com
p6786
F0.0015074407673850052
tp6787
(Varturogoga.com
p6788
F0.0012352271533589269
tp6789
(Vcommunity.norton.com
p6790
F0.0011850054985019177
tp6791
(Vcomo-eliminar.com
p6792
F0.001152007048775999
tp6793
(Vschoonepc.nl
p6794
F0.0010037166273452
tp6795
(V0427d7.se
p6796
F0.0009096205488029283
tp6797
(Vovermanforum.com
p6798
F0.0008884252668932268
tp6799
(Vsuperantispyware.com
p6800
F0.0007473313069392516
tp6801
(Vs.vgsgaming-ads.com
p6802
F0.0005204533027943224
tp6803
(Vforum.avast.com
p6804
F0.0004889239140342746
tp6805
(Vsecure.logmeinrescue.com
p6806
F0.00047870775669676827
tp6807
(Vkickass.to
p6808
F0.00037890471511992395
tp6809
(Vfile.net
p6810
F0.00035415702658305647
tp6811
tp6812
s((S'java4developers.com'
p6813
tp6814
(ttp6815
((Ves.scribd.com
p6816
F1.7118346571980739e-06
tp6817
tp6818
s((S'runnable.com'
p6819
tp6820
(ttp6821
(ts((S'youtube.com'
p6822
tp6823
(ttp6824
(ts((S'alpha9.com'
p6825
tp6826
(ttp6827
(ts((S'javascriptkit.com'
p6828
tp6829
(ttp6830
(ts((S'batsov.com'
p6831
tp6832
(ttp6833
((Vblog.rust-lang.org
p6834
F0.0025602059117481963
tp6835
(Vskanev.com
p6836
F0.0022080608194980154
tp6837
(Vbarisyuksel.com
p6838
F0.0017846249100858622
tp6839
(Vclever-cloud.com
p6840
F0.0017729664335737266
tp6841
(Vbotnets.fr
p6842
F0.0017378253485524707
tp6843
(Vemacs.sexy
p6844
F0.0017151187719749593
tp6845
(Vohtatblog.wordpress.com
p6846
F0.0014208184846155637
tp6847
(Vthatthinginswift.com
p6848
F0.0005549820740790072
tp6849
(Vemacswiki.org
p6850
F0.000361288776960209
tp6851
(Vgamasutra.com
p6852
F7.182796042938065e-05
tp6853
(Vcreditkarma.com
p6854
F4.846935431658113e-05
tp6855
(Vde.reddit.com
p6856
F2.1918490506820317e-05
tp6857
(Vgithub.com
p6858
F9.564137939050661e-06
tp6859
(Vpluralsight.com
p6860
F7.698149584786948e-06
tp6861
(Vencrypted.google.com
p6862
F3.904554290440822e-06
tp6863
(Vstackoverflow.com
p6864
F2.7530196598198716e-06
tp6865
(Vsearch.disconnect.me
p6866
F1.452201017759609e-06
tp6867
(Vstartpage.com
p6868
F4.5705844497747614e-07
tp6869
(Vgoogle.com.br
p6870
F2.7313056986275865e-08
tp6871
tp6872
s((S'alpha23.com'
p6873
tp6874
(ttp6875
(ts((S'livejournal.com'
p6876
tp6877
(ttp6878
((Vlenta.ru
p6879
F0.007630193552149961
tp6880
(Vecho.msk.ru
p6881
F0.005440124097184883
tp6882
(Vnewsru.com
p6883
F0.00489071664256173
tp6884
(Vrusvesna.su
p6885
F0.0048745836111702455
tp6886
(Vartlebedev.ru
p6887
F0.00466291265138468
tp6888
(Vnavalny.com
p6889
F0.004605537564307319
tp6890
(Vgazeta.ru
p6891
F0.004564734729053364
tp6892
(Vexler.ru
p6893
F0.004269929777672117
tp6894
(Vrbc.ru
p6895
F0.004190171181083074
tp6896
(Vvoicesevas.ru
p6897
F0.0032223065289894
tp6898
(Vd3.ru
p6899
F0.0009741109205437652
tp6900
tp6901
s((S'haaretz.com'
p6902
tp6903
(ttp6904
((Vjpost.com
p6905
F0.014067547171067995
tp6906
(Vynetnews.com
p6907
F0.011526345902491191
tp6908
(Vtimesofisrael.com
p6909
F0.009737221604697609
tp6910
(Vdebka.com
p6911
F0.005756065351502609
tp6912
(Vmondoweiss.net
p6913
F0.003963401689196985
tp6914
(Visraelnationalnews.com
p6915
F0.003928489795610394
tp6916
(Vvgd.no
p6917
F0.003789564838195706
tp6918
(Valquds.com
p6919
F0.0027098887785212515
tp6920
(V972mag.com
p6921
F0.0020296586149780326
tp6922
(Vmaannews.net
p6923
F0.0018625582862981458
tp6924
(Visraeltoday.co.il
p6925
F0.0016347667147140461
tp6926
(Vinformationclearinghouse.info
p6927
F0.0006405016317020539
tp6928
(Vbrecorder.com
p6929
F0.0006291039275881392
tp6930
(Vjeuxn1.com
p6931
F0.0005660736229760635
tp6932
tp6933
s((S'npmjs.org'
p6934
tp6935
(ttp6936
((Vnodejs.org
p6937
F0.010494459964947274
tp6938
(Vdavid-dm.org
p6939
F0.006542003267643495
tp6940
(Vnpm.org
p6941
F0.006134208234528082
tp6942
(Vgruntjs.com
p6943
F0.0029211295928985143
tp6944
(Vexpressjs.com
p6945
F0.0018580190969996859
tp6946
(Vnodejsmodules.org
p6947
F0.0011800901385269275
tp6948
(Vbower.io
p6949
F0.0011670803746021577
tp6950
(Vcnodejs.org
p6951
F0.0009502443704459891
tp6952
(Vdocs.phonegap.com
p6953
F0.0008210498882526792
tp6954
(Vtableless.com.br
p6955
F0.0005392750711791978
tp6956
(Vbuild.dojotoolkit.org
p6957
F0.0005254189745328796
tp6958
(Vnpmsearch.com
p6959
F0.0005250922833998067
tp6960
(Vtopsape.ru
p6961
F0.00047415424368048097
tp6962
(Vmongoosejs.com
p6963
F0.0004731517322995981
tp6964
(Vblog.modulus.io
p6965
F0.0004540619250656133
tp6966
(Vnpm.curasystems.com
p6967
F0.0004430193639247029
tp6968
(Vgithub.com
p6969
F0.0003485181562174436
tp6970
(Vforum.wp-parsi.com
p6971
F0.0003472306438609726
tp6972
(Vkarma-runner.github.io
p6973
F0.000329557526923341
tp6974
tp6975
s((S'rubyonrails.org'
p6976
tp6977
(ttp6978
((Vapidock.com
p6979
F0.011397494420702052
tp6980
(Vrubygems.org
p6981
F0.008203633250278028
tp6982
(Vgotealeaf.com
p6983
F0.005455874526601032
tp6984
(Vrailstutorial.org
p6985
F0.004871535033275358
tp6986
(Vruby-doc.org
p6987
F0.004805262911288739
tp6988
(Vruby-forum.com
p6989
F0.004490223826882239
tp6990
(Vruby-lang.org
p6991
F0.0032113084093923576
tp6992
(Vbloc.io
p6993
F0.00318059571273871
tp6994
(Vreinteractive.net
p6995
F0.001720967333430777
tp6996
(Vrelishapp.com
p6997
F0.0013700371245817546
tp6998
(Vjira.greenmile.com
p6999
F0.0012420964931221224
tp7000
(Vamberbit.com
p7001
F0.0011787522780099952
tp7002
(Vruby-china.org
p7003
F0.000915150624069657
tp7004
(Vrails.org
p7005
F0.0008464418997255876
tp7006
(Vrailsforzombies.org
p7007
F0.0007531036531073972
tp7008
tp7009
s((S'mhm-hr.com'
p7010
tp7011
(ttp7012
((Vpartners-staging.gohiring.com
p7013
F0.023547807416742516
tp7014
(Vmhm.hr.com
p7015
F0.01876128051676641
tp7016
(Vkonstanz.bewerbung.dvvbw.de
p7017
F0.016390721606705672
tp7018
(Vportal.karriere.constantin-medien.de
p7019
F0.014123536247430053
tp7020
(Vconstantin.mhmhr.com
p7021
F0.010708960281957435
tp7022
(Vicaro.com
p7023
F0.007290095525389642
tp7024
(Vagentur-swissweb.com
p7025
F0.006032532586448346
tp7026
(Vstackless.com
p7027
F0.0052765476302647695
tp7028
(Vorocrm.com
p7029
F0.002382913005577223
tp7030
(Vpraktikum.info
p7031
F0.002014930892971462
tp7032
(Velvery.net
p7033
F0.0018847286495582668
tp7034
(Vraygun.io
p7035
F0.0004864679387224136
tp7036
(Vmazda.de
p7037
F0.0002499347268682063
tp7038
(Vrobots.thoughtbot.com
p7039
F0.00011831605993741829
tp7040
(Vairpair.com
p7041
F5.9196679911923794e-05
tp7042
(Vgitlab.com
p7043
F4.343644317582452e-05
tp7044
(Vguides.rubyonrails.org
p7045
F3.226140959316058e-05
tp7046
(Vwrapbootstrap.com
p7047
F3.213475967735237e-05
tp7048
(Vtheatlantic.com
p7049
F6.564926755818538e-06
tp7050
(Vdeveloper.android.com
p7051
F5.659588584589765e-06
tp7052
tp7053
s((S'linuxjournal.com'
p7054
tp7055
(ttp7056
((Vplay0ad.com
p7057
F0.007972660221054225
tp7058
(Vgrc.com
p7059
F0.00647141761691918
tp7060
(Vislametinfo.fr
p7061
F0.003816693772624731
tp7062
(Vmfrtech.com
p7063
F0.003299980133259979
tp7064
(Vstaceypageonline.com
p7065
F0.002611479327291582
tp7066
(Vweb.tiscali.it
p7067
F0.002206592194180113
tp7068
(Vvuenosairez.com
p7069
F0.002110189065787111
tp7070
(Vgoogleblog.blogspot.ca
p7071
F0.0021021366248038047
tp7072
(Viso.linuxquestions.org
p7073
F0.00205698044304996
tp7074
(Vapp.flowkey.com
p7075
F0.002010494615044506
tp7076
(Vlxer.com
p7077
F0.0017342140696928467
tp7078
(Vpubservice.com
p7079
F0.0016237614530817824
tp7080
(Vswtch.com
p7081
F0.0016066199103156131
tp7082
(Vlinuxformat.co.uk.hypestat.com
p7083
F0.0015858338656718014
tp7084
(Vthemukt.com
p7085
F0.0015653612543401665
tp7086
(Vandroidlista.com
p7087
F0.0015486774962675757
tp7088
(Vmakerzone.mathworks.com
p7089
F0.0014968938741111305
tp7090
(Vlinuxstory.org
p7091
F0.001406172434392643
tp7092
(Vlinuxine.com
p7093
F0.0014034815981275438
tp7094
(Vchili-tv.it
p7095
F0.0013159468347682625
tp7096
tp7097
s((S'coffeescript.org'
p7098
tp7099
(ttp7100
((Vjs2coffee.org
p7101
F0.020693182805269154
tp7102
(Vcoffeescriptcookbook.com
p7103
F0.014455852566642792
tp7104
(Vjashkenas.github.io
p7105
F0.00597237858670336
tp7106
(Vqt.digia.com
p7107
F0.004797684021126827
tp7108
(Vsfx-preprod.stickyadstv.com
p7109
F0.0027912496327303117
tp7110
(Vjavascriptlint.com
p7111
F0.002506203361792715
tp7112
(Vpartners.lvh.me
p7113
F0.0023582097429332553
tp7114
(Varcturo.github.io
p7115
F0.0020018046119188045
tp7116
(Vzaach.github.io
p7117
F0.0015149175427134683
tp7118
(Vcodewars.com
p7119
F0.0013883333963012228
tp7120
(Vknockoutjs.com
p7121
F0.001286273833775628
tp7122
(Vunderscorejs.org
p7123
F0.0012831854535160887
tp7124
(Vricardo.cc
p7125
F0.0012189409076568609
tp7126
(Vmaxtaco.github.io
p7127
F0.001213609594430271
tp7128
(Vangular.ru
p7129
F0.0012103536082053226
tp7130
(Vevanhahn.com
p7131
F0.0011630444344667876
tp7132
(Vww2.coffescript.org
p7133
F0.001032622426625998
tp7134
(Vgateway.asebis.com
p7135
F0.0009404174612931528
tp7136
(Vlvh.me
p7137
F0.0008143742914703072
tp7138
(Vswdev.com
p7139
F0.0008014909843128782
tp7140
tp7141
s((S'beads.com'
p7142
tp7143
(ttp7144
((Vbeadworksphiladelphia.com
p7145
F0.09976689976689977
tp7146
(Vg5.com
p7147
F0.0072810692200279276
tp7148
(Visearch.omiga-plus.com
p7149
F1.055041652527835e-08
tp7150
tp7151
s((S'advoca.com'
p7152
tp7153
(ttp7154
((Vadvoca.basecamphq.com
p7155
F0.008621055760818787
tp7156
(Vblog.mtgprice.com
p7157
F0.004572319477706195
tp7158
tp7159
s.