(dp0
((S'alpha21.com'
p1
tp2
(ttp3
((Vnaver.com
p4
F1.1258501626907744e-07
tp5
tp6
s((S'gogorithm.com'
p7
tp8
(ttp9
(ts((S'ruby-toolbox.com'
p10
tp11
(ttp12
((Vrubytoolbox.com
p13
F0.0028217657755593615
tp14
(Vankane.github.io
p15
F0.0027867450266258315
tp16
(Vsimonecarletti.com
p17
F0.0022570789309152967
tp18
(Vgoogle.chn.im
p19
F0.0019127274010551762
tp20
(Vrubygems.org
p21
F0.0017247897487160796
tp22
(Vrubydev.ru
p23
F0.0017242912428428383
tp24
(Vruby-china.org
p25
F0.0016945777982200333
tp26
(Vintertwingly.net
p27
F0.0013847288490194014
tp28
(V3987.com
p29
F0.0012524451481177904
tp30
(Vprototypejs.org
p31
F0.0012326215985673007
tp32
(Vin-media.ru
p33
F0.0012279170722429207
tp34
(Vapotomo.de
p35
F0.0011713520749665328
tp36
(Vihower.tw
p37
F0.0011146665129195615
tp38
(Vforums.raml.org
p39
F0.0010388978058591572
tp40
(Vlibgosu.org
p41
F0.0010298288535778202
tp42
(Vfabricationgem.org
p43
F0.0010267945823296206
tp44
(Vryanfunduk.com
p45
F0.000990572769322465
tp46
(Vrubyjunky.com
p47
F0.00097829916886024
tp48
(Vsvyatov.ru
p49
F0.0008794594405349579
tp50
(Vadp.eease.com
p51
F0.0008370281860143508
tp52
tp53
s((S'alpha40.com'
p54
tp55
(ttp56
(ts((S'pocketworx.com'
p57
tp58
(ttp59
(ts((S'mojotech.com'
p60
tp61
(ttp62
(ts((S'mysql.com'
p63
tp64
(ttp65
((Vconfluence.atlassian.com
p66
F0.005367319764841898
tp67
(Vprofile.oracle.com
p68
F0.004564094474545355
tp69
(Vsearch.oracle.com
p70
F0.0024607855072709957
tp71
(Vphpmyadmin.1and1.fr
p72
F0.0020724723376035746
tp73
(Vdbadmin.one.com
p74
F0.001508270491192317
tp75
(Vmariadb.com
p76
F0.0012986103405912225
tp77
(Vp3nlmysqladm001.secureserver.net
p78
F0.0010597938268591593
tp79
(Vwindows.php.net
p80
F0.0010088579160753197
tp81
(Vphpmyadmin.wpengine.com
p82
F0.0009758129581882864
tp83
(Vmysqladmin.ipage.com
p84
F0.000807715283238552
tp85
(Vwfvrj.petrobras.com.br
p86
F0.0006780569361283955
tp87
(Vh.yandex-team.ru
p88
F0.0006146665542926394
tp89
(Vxie.lu
p90
F0.0005932938592555025
tp91
(Vhome.informatica.hva.nl
p92
F0.0005783871951367076
tp93
(Vcleardb.com
p94
F0.0005741331647147766
tp95
(Vdocs.djangoproject.com
p96
F0.0005424961020650444
tp97
(Vkaushik.net
p98
F0.0005323576744885704
tp99
(Vaa69d4ce54eba62df607457a17e36b4f5d1a4325.googledrive.com
p100
F0.0005311379083714999
tp101
(Vphpmyadmin.ukraine.com.ua
p102
F0.0005288701849433239
tp103
(Vdelphi.about.com
p104
F0.0005011819404719926
tp105
tp106
s((S'alpha29.com'
p107
tp108
(ttp109
(ts((S'alpha18.com'
p110
tp111
(ttp112
(ts((S'alpha34.com'
p113
tp114
(ttp115
((Vlivingsocial.com
p116
F9.079445109447686e-06
tp117
tp118
s((S'djangopackages.com'
p119
tp120
(ttp121
((Vapreche.net
p122
F0.020882769022286102
tp123
(Vdjango-avatar.readthedocs.org
p124
F0.009746893775378008
tp125
(Vdjangoproject.com
p126
F0.005727475751994577
tp127
(Vhackerluddite.wordpress.com
p128
F0.004126278944534195
tp129
(Vgit.wogon.eu
p130
F0.004072171407091843
tp131
(Vlocal.packer.streetvoice.com
p132
F0.0027112516945323093
tp133
(Vmezzanine.jupo.org
p134
F0.0024973213885595793
tp135
(Vdarwinconstruction.ca
p136
F0.0024349002367264117
tp137
(Vpanel.djangoeurope.com
p138
F0.0023059510461401764
tp139
(Vapibrowser.dev.rexsoftware.com
p140
F0.0018059605913599529
tp141
(Vralphminderhoud.com
p142
F0.001767590375185312
tp143
(Vlamia1026.tmweb.ru
p144
F0.0017604633993980351
tp145
(Vpinaxproject.com
p146
F0.0016632909015304959
tp147
(Vforums.pligg.com
p148
F0.0016274674506509869
tp149
(Vjeffknupp.com
p150
F0.001544138608216401
tp151
(Vwpj.cz
p152
F0.001265909401943342
tp153
(Vkristall-shatura.ru
p154
F0.0010253657596652765
tp155
(Vboard.shaturka.ru
p156
F0.001018887019789658
tp157
(Vdjango-report-builder.readthedocs.org
p158
F0.0009767865688568975
tp159
(Vhexvolt.blogspot.ru
p160
F0.0009338297045588438
tp161
tp162
s((S'webssearches.com'
p163
tp164
(ttp165
((Vapps.facebook.com
p166
F0.0021935335744632054
tp167
(Voffers.bycontext.com
p168
F0.0020862308063040167
tp169
(Voffer.alibaba.com
p170
F0.0020701312153313836
tp171
(Vcr2.gogorithm.com
p172
F0.0018717007128681296
tp173
(Vgenesis-offers.com
p174
F0.0018132036619243768
tp175
(Vfriv.com
p176
F0.001731956243723461
tp177
(Vcr3.gogorithm.com
p178
F0.0015787268353865457
tp179
(Vcdn.regiedepub.com
p180
F0.0011559891140969405
tp181
(Vtuneuppro.com
p182
F0.0011187338752717364
tp183
(Vgty.campaignism.com
p184
F0.0009354430470577684
tp185
(Vmegaoferta.net
p186
F0.0008819582476484195
tp187
(Valh.gogorithm.com
p188
F0.0007192514956077569
tp189
(Vlp.ilividnewtab.com
p190
F0.0006971578420989229
tp191
(Vzym.tollbahsuburban.com
p192
F0.0006637015040444586
tp193
(Vavira.com
p194
F0.0006519336861994229
tp195
(Veasydriverpro.com
p196
F0.0005909675721103702
tp197
(Vcache.icmwebserv.com
p198
F0.0005497025356421287
tp199
(Vxnxx.com
p200
F0.0005015555867557102
tp201
(Vyoutube.com
p202
F0.0004991988529966611
tp203
tp204
s((S'railsenvy.com'
p205
tp206
(ttp207
((Vproxylala.pw
p208
F0.07315634218289085
tp209
(Vafreshcup.wordpress.com
p210
F0.061630218687872766
tp211
(Vtheodinproject.com
p212
F0.000533130952642291
tp213
(Vforum.rubyonrails.pl
p214
F6.492624968274674e-05
tp215
(Vrailscasts.com
p216
F5.9049096962160154e-05
tp217
(Vkora-online.tv
p218
F5.540333318764308e-06
tp219
(Vyoutube.com
p220
F8.756484556477331e-10
tp221
tp222
s((S'python.org'
p223
tp224
(ttp225
((Vdjangopackages.com
p226
F0.028235770318671527
tp227
(Vdocs.djangoproject.com
p228
F0.011797606215775544
tp229
(Vpythonhosted.org
p230
F0.0072327330062755026
tp231
(Vwikidocs.net
p232
F0.00331444475734783
tp233
(Vnetworkx.github.io
p234
F0.0025721363577256035
tp235
(Vpython3wos.appspot.com
p236
F0.0017378741652830621
tp237
(Vconfluence.atlassian.com
p238
F0.001071124946390917
tp239
(Vpure-forum.org
p240
F0.0008837824192407215
tp241
(Vmoodle.macalester.edu
p242
F0.0007187880924060596
tp243
(Vdeveloper.foursquare.com
p244
F0.000605093370590939
tp245
(Vprogrammeerimine.cs.ut.ee
p246
F0.00043730836141456323
tp247
(Vtrailtiger.com
p248
F0.0004264912335899067
tp249
(Vvirtualenv.pypa.io
p250
F0.0004119807334448899
tp251
(Vliaoxuefeng.com
p252
F0.00039731681140257646
tp253
(Vpagekite.net
p254
F0.00038970019874352943
tp255
(Vh.yandex-team.ru
p256
F0.00032120697262060226
tp257
(Vreplicat.org
p258
F0.00030196437819484144
tp259
tp260
s((S'alpha35.com'
p261
tp262
(ttp263
(ts((S'rydia.net'
p264
tp265
(ttp266
((Vsincomics.com
p267
F0.021359696539829148
tp268
(Vhalflightcomics.com
p269
F0.012060105220756076
tp270
(Vstoryofthedoor.com
p271
F0.012027073087597992
tp272
(Valexanderthekid.tumblr.com
p273
F0.01121503814021068
tp274
(Vdcisgoingtohell.com
p275
F0.010699820225692566
tp276
(Vdubiouscompany.com
p277
F0.008778554737132042
tp278
(Vushala.smackjeeves.com
p279
F0.007147921459680803
tp280
(Vtrue-magic.com
p281
F0.006756772051863651
tp282
(Veqcomics.com
p283
F0.004581133879620812
tp284
(Vteamheartgold.deviantart.com
p285
F0.0041985387859174265
tp286
(Veverblue-comic.com
p287
F0.004143634823308365
tp288
(Vforgottenordercomic.com
p289
F0.003456092237085129
tp290
(Vamyachronicles.com
p291
F0.0028932456769697056
tp292
(Vblackbird.ashen-ray.com
p293
F0.002813647717287217
tp294
(Vhttydireth-vespera.smackjeeves.com
p295
F0.0020531153005398485
tp296
(Vdigitalextremes.slack.com
p297
F0.0016468962340205
tp298
(Vblindsprings.com
p299
F0.001613013680589577
tp300
(Vteahousecomic.com
p301
F0.0013120810467020735
tp302
(Vgiginuzlocke.smackjeeves.com
p303
F0.0011640229070923036
tp304
(Vegscomics.com
p305
F0.0010893065517749412
tp306
tp307
s((S'msn.com'
p308
tp309
(ttp310
((Vsignout.live.com
p311
F0.15308963021388675
tp312
(Vbing.com
p313
F0.004617366223358805
tp314
(Vsearch.safefinder.com
p315
F0.0021814650029844426
tp316
(Vapps.facebook.com
p317
F0.0020435143826556114
tp318
(Vtrovi.com
p319
F0.0016986842333237284
tp320
(Vsearch.ask.com
p321
F0.0016746763184673106
tp322
(Vastromenda.com
p323
F0.0015774510251515713
tp324
(Vcr2.gogorithm.com
p325
F0.0011036373266521172
tp326
(Vfoxsports.com
p327
F0.0010602432824249944
tp328
(Vyahoo.com
p329
F0.0009974446200310605
tp330
(Vgroovorio.com
p331
F0.0009212692482627997
tp332
(Valh.gogorithm.com
p333
F0.0007715535537510396
tp334
(Vyahoo.co.jp
p335
F0.0006108892755620947
tp336
(Vgoogle.com
p337
F0.00046769580803432013
tp338
tp339
s((S'alpha27.com'
p340
tp341
(ttp342
(ts((S'i24news.com'
p343
tp344
(ttp345
((Vi24.fr
p346
F0.027440891828984442
tp347
(Vacomstrategies.com
p348
F0.015776699029126214
tp349
(Vi24newsz.com
p350
F0.00636604774535809
tp351
(Vonrtv.org
p352
F0.0019839558354179244
tp353
(Vswisslife.fr
p354
F0.0004350869228004464
tp355
(Vhikashop.com
p356
F0.0002257925671909288
tp357
(Vplayon.tv
p358
F0.00019844988589131564
tp359
(Vorientation.etudiants.edu.ci
p360
F3.955148614709198e-05
tp361
(Vpwcaptive.bezeq.co.il
p362
F3.3055242774763706e-05
tp363
(Vfrance24.com
p364
F2.166589720869962e-05
tp365
(Vteletext.ch
p366
F1.8962878683502148e-05
tp367
(Vcursorinfo.co.il
p368
F1.4044857871555963e-05
tp369
(Vsearch.surfcanyon.com
p370
F9.431071880723038e-06
tp371
(Vvice.com
p372
F7.655092682856089e-06
tp373
(Vfnac.com
p374
F7.273570477915768e-06
tp375
(Vthepiratebay.se
p376
F4.258584344053828e-07
tp377
(Vfr.yahoo.com
p378
F2.0290568820791026e-07
tp379
(Vespn.go.com
p380
F1.522494629780817e-07
tp381
(Vnu.nl
p382
F1.1186829285417949e-07
tp383
(Vgoogle.co.il
p384
F9.201272115550461e-08
tp385
tp386
s((S'beta7.com'
p387
tp388
(ttp389
(ts((S'nuclearsquid.com'
p390
tp391
(ttp392
((Vmolotang.com
p393
F0.025083419629501783
tp394
(Vcrucible.corp.appnexus.com
p395
F0.0014309814038058852
tp396
(Vanswers.perforce.com
p397
F0.000850176451716394
tp398
(Vruby-forum.com
p399
F0.00012045186657374666
tp400
(Vx.sankuai.com
p401
F7.04903956835881e-05
tp402
(Vpinboard.in
p403
F7.1203116432007166e-06
tp404
(Vtheverge.com
p405
F2.8217985580072086e-06
tp406
(Vsuperuser.com
p407
F1.8128071291828394e-06
tp408
(Vstackoverflow.com
p409
F7.170873291331439e-07
tp410
(V8tracks.com
p411
F4.5838400205375003e-07
tp412
(Vgoogle.com.ph
p413
F6.325116749043523e-08
tp414
(Vgithub.com
p415
F2.4893524466823384e-08
tp416
(Vgoogle.com
p417
F2.4395329918893198e-08
tp418
(Vmail.google.com
p419
F9.62054693148217e-09
tp420
(Vfacebook.com
p421
F3.2707786008337474e-10
tp422
tp423
s((S'penny-arcade.com'
p424
tp425
(ttp426
(ts((S'thecodeplayer.com'
p427
tp428
(ttp429
((Vcodeplayer.com
p430
F0.006169198538037966
tp431
(Vdespreneur.com
p432
F0.004002593201770517
tp433
(Vblog.snowflake.ch
p434
F0.0034497095075786085
tp435
(Vmlens.musings.it
p436
F0.003154407312513716
tp437
(Vwebtoolsdepot.com
p438
F0.0030697803528614543
tp439
(Vlandor.com
p440
F0.0029902913281551484
tp441
(Vfluxbb.org
p442
F0.002989062148686003
tp443
(Vbigplans.megaplan.ru
p444
F0.002977363688220863
tp445
(Vflong.com
p446
F0.002873431528005646
tp447
(Vcolours.neilorangepeel.com
p448
F0.0025789769227982464
tp449
(Vpixellest.com
p450
F0.0023572234584632317
tp451
(Vdesigngeekz.com
p452
F0.002349597914892342
tp453
(Vcodeplay.lc
p454
F0.0022500570031144997
tp455
(Vtwittstrap.com
p456
F0.00200535501032168
tp457
(Vc3scustomsock.staging.wpengine.com
p458
F0.001962648430280709
tp459
(Vterrytsang.com
p460
F0.0019232375106991502
tp461
(Vcsssrstart.slack.com
p462
F0.0018884694245712224
tp463
(Vcjbarrymores.com
p464
F0.0018867538106282864
tp465
(Vraclette-suisse.ch
p466
F0.0018163026461781647
tp467
(Vissues.telephony.com
p468
F0.0018051181660850568
tp469
tp470
s((S'ureddit.com'
p471
tp472
(ttp473
((Vbeginnerscpp.com
p474
F0.006572671888598781
tp475
(Vfatsecret.com.au
p476
F0.004678948612723494
tp477
(V3pod.com.au
p478
F0.004578399016372226
tp479
(Vdev.solita.fi
p480
F0.00436173082109968
tp481
(Vwebcourseworks.com
p482
F0.003127216921718232
tp483
(Vthehybridathlete.com
p484
F0.0023514834745883392
tp485
(Vtelecommuterjobs.net
p486
F0.002200164380097364
tp487
(Vlocal.brookings.k12.sd.us
p488
F0.002117690013996227
tp489
(Vevasdigital.co
p490
F0.0018805682450380422
tp491
(Vuniversityofreddit.com
p492
F0.0013201869970415694
tp493
(Vludosoul.wordpress.com
p494
F0.0012700212020068434
tp495
(Vmole-reads.tumblr.com
p496
F0.0012221340955459448
tp497
(Vwipp.energy.gov
p498
F0.001025010250102501
tp499
(Vmail.yoox.biz
p500
F0.0010156743254000932
tp501
(Vapexbookcompany.com
p502
F0.0010100822701702092
tp503
(Vcodeception.com
p504
F0.0009424400667020082
tp505
(Vincidentalcomplexity.com
p506
F0.0009344921035417251
tp507
(Vdogfalo.github.io
p508
F0.0009123859517560306
tp509
(Vacsf.com.au
p510
F0.0008911864087341653
tp511
(Vwindenergyfoundation.org
p512
F0.0008400938928468477
tp513
tp514
s((S'foobar2000.com'
p515
tp516
(ttp517
((Vmorbo.org
p518
F0.031915159700857905
tp519
(Vjdk8.java.net
p520
F0.0036444231186665292
tp521
(Vforum.powerampapp.com
p522
F0.0026170710255915223
tp523
(Vdbpoweramp.com
p524
F0.0008974646623289207
tp525
(Vjriver.com
p526
F0.00033570030497519226
tp527
(Vpodsvojostreho.net
p528
F0.00014945816684828672
tp529
(Vteksyndicate.com
p530
F1.1823333348362995e-05
tp531
(Vtrojmiasto.pl
p532
F5.731231896333478e-06
tp533
(Vricardo.ch
p534
F3.7479474663832534e-06
tp535
(Vus-mg204.mail.yahoo.com
p536
F1.5779104558357893e-06
tp537
(Vboards.4chan.org
p538
F1.1310967365085483e-06
tp539
(Vnetvibes.com
p540
F1.0671421974257503e-06
tp541
(Vtheguardian.com
p542
F7.685661734505484e-07
tp543
(Varstechnica.com
p544
F6.992041308980053e-07
tp545
(Vsearch.yahoo.co.jp
p546
F6.754668573135203e-07
tp547
(Ven.eazel.com
p548
F5.318138091329666e-07
tp549
(Vandroidpolice.com
p550
F3.6786215539942405e-07
tp551
(Vkickstarter.com
p552
F2.241460998950497e-07
tp553
(Vgoogle.com.tw
p554
F1.301859356429909e-07
tp555
(Vgoogle.lv
p556
F1.037835278431857e-07
tp557
tp558
s((S'walla.co'
p559
tp560
(ttp561
((Vmspowerpack.com
p562
F0.00042286056172976963
tp563
(Vmslworld.egged.co.il
p564
F4.631610521254681e-05
tp565
(Vsimplestoolbar.com
p566
F4.4748032871714525e-05
tp567
(Vlink4u.co.il
p568
F8.555601488820286e-06
tp569
(Vpanet.co.il
p570
F2.0687343820870316e-06
tp571
(Vgoogle.co.il
p572
F1.3330927104853262e-06
tp573
(Vsearches.vi-view.com
p574
F1.4813106299849904e-07
tp575
(Vxnxx.com
p576
F9.644941531802667e-08
tp577
(Vmysearch.avg.com
p578
F3.890298355709239e-08
tp579
(Visearch.omiga-plus.com
p580
F3.272544785429898e-08
tp581
(Vistart.webssearches.com
p582
F2.1441877890798774e-08
tp583
(Vtrovi.com
p584
F1.6677189871460833e-08
tp585
(Vsweet-page.com
p586
F1.3795853007327792e-08
tp587
(Vmystartsearch.com
p588
F1.0474484448833913e-08
tp589
(Vvk.com
p590
F5.105423590911466e-09
tp591
(Vyoutube.com
p592
F5.776359629362245e-10
tp593
tp594
s((S'diasp.eu'
p595
tp596
(ttp597
((Vcybette.com
p598
F0.02790506560906111
tp599
(Vd.consumium.org
p600
F0.008538320796909941
tp601
(Vkolabsys.com
p602
F0.005063497897014986
tp603
(Vproverochka.businesscatalyst.com
p604
F0.00446202210729135
tp605
(Vawable.imgur.com
p606
F0.004351204351204351
tp607
(Vfantasylife.nintendo.com
p608
F0.004010262386895224
tp609
(Vpodupti.me
p610
F0.0020148652279036445
tp611
(Vforum.sportenter.co.il
p612
F0.001306915155467928
tp613
(Vfreefotohelp.ru
p614
F0.0008028673835125448
tp615
(Vfuckyouverymuch.dk
p616
F0.0004181940984847102
tp617
(Vredbox.com
p618
F4.213100135421364e-05
tp619
(Vnypost.com
p620
F1.7682904543184476e-05
tp621
(Vbeforeitsnews.com
p622
F1.6786280627496154e-05
tp623
(Vnaturalnews.com
p624
F1.2519575881711194e-05
tp625
(Vrus.postimees.ee
p626
F8.37074626064608e-06
tp627
(Vinfowars.com
p628
F8.345739769065305e-06
tp629
(Vya.ru
p630
F4.903540471922245e-06
tp631
(Vello.co
p632
F1.0571140123657e-06
tp633
(Vvimeo.com
p634
F7.446324075200837e-07
tp635
(Vwordpress.com
p636
F5.822044442670433e-07
tp637
tp638
s((S'nfl.com'
p639
tp640
(ttp641
((Vfootball.fantasysports.yahoo.com
p642
F0.007118450008223653
tp643
(Vgames.espn.go.com
p644
F0.006384126691819737
tp645
(Vbleacherreport.com
p646
F0.0035534989465389375
tp647
(Vprofootballtalk.nbcsports.com
p648
F0.002629749985507015
tp649
(Vrotoworld.com
p650
F0.002425580012493785
tp651
(Vnba.com
p652
F0.00221712362184621
tp653
(Vmlb.mlb.com
p654
F0.001903702388693045
tp655
(Vcbssports.com
p656
F0.0018706806382148141
tp657
(Vnhl.com
p658
F0.0012985868086497264
tp659
(Vfoxsports.com
p660
F0.0006708944857844707
tp661
(Vsi.com
p662
F0.0006645089812610093
tp663
(Vdallascowboys.com
p664
F0.0006258338700505362
tp665
(Vfantasypros.com
p666
F0.0005158616315129335
tp667
(Vpackers.com
p668
F0.0004871439676007591
tp669
tp670
s((S'nasa.gov'
p671
tp672
(ttp673
((Vnasa.jerusalem.com
p674
F0.0034835518377293096
tp675
(Vspaceweather.com
p676
F0.0033475442840786474
tp677
(Vspace.com
p678
F0.002945265177369104
tp679
(Vswpc.noaa.gov
p680
F0.002494603391767854
tp681
(Vesa.int
p682
F0.001361835042951779
tp683
(Vwhat-if.xkcd.com
p684
F0.0012732149429607702
tp685
(Vciclops.org
p686
F0.0012026940365659103
tp687
(Vcoasttocoastam.com
p688
F0.0011265697014438598
tp689
(Vmarssociety.de
p690
F0.00112391909362521
tp691
(Vweb.taskcracker.com
p692
F0.001026107590113099
tp693
(Vbibobuzz.com
p694
F0.0009696968425407064
tp695
(Vnanowerk.com
p696
F0.0008919591961055805
tp697
(Vbarnstormers.com
p698
F0.000739077425229431
tp699
(Vepod.usra.edu
p700
F0.000649929188302291
tp701
(Vroshihogan.blogspot.com
p702
F0.0006483939270824397
tp703
(Vsolarham.net
p704
F0.0006229008473932558
tp705
(Vharztourist.de
p706
F0.0005347227582500918
tp707
(Vgoehren-ruegen.de
p708
F0.0004998782773573379
tp709
(Vstats.mutu.sivit.org
p710
F0.0004962087088050525
tp711
tp712
s((S'sivers.org'
p713
tp714
(ttp715
((Vexamine.com
p716
F0.007219883173093456
tp717
(Vuwitechnology.com
p718
F0.006839846558005141
tp719
(Vtruefilms.com
p720
F0.0034328335396701663
tp721
(Vsitebeam.net
p722
F0.0032794691752359648
tp723
(Vdocs.withdraft.com
p724
F0.0030549495715956874
tp725
(Vmynavigatorweb.nl
p726
F0.0028599137643591107
tp727
(Vsingapore.recruit.net
p728
F0.0025840897233237402
tp729
(Vmarketplaceleaders.org
p730
F0.0025240834176874162
tp731
(Vblog.placeit.net
p732
F0.0020766650167739096
tp733
(Vkairosbio.com
p734
F0.0019437477085309572
tp735
(Vcenteroftheweb.com
p736
F0.0019412848515847046
tp737
(Valytadros.com
p738
F0.001937933895566251
tp739
(Vfullstackacademy.slack.com
p740
F0.0018748035385513495
tp741
(Vrailstutorial.org
p742
F0.0018368225687322617
tp743
(Vlintool.github.io
p744
F0.0018285739313244568
tp745
(Vhiretheworld.com
p746
F0.0018284838365313551
tp747
(Vadvancedlifeskills.com
p748
F0.0017834354092023132
tp749
(Vballcharts.com
p750
F0.0017386913484488426
tp751
(Vci.appveyor.com
p752
F0.001590201798643241
tp753
(Vblog.zackshapiro.com
p754
F0.0014996575814189902
tp755
tp756
s((S'mako.co.il'
p757
tp758
(ttp759
((Vynet.co.il
p760
F0.011501648380391862
tp761
(Vwalla.co.il
p762
F0.00755377749758904
tp763
(Vsport5.co.il
p764
F0.006583331507016732
tp765
(Vone.co.il
p766
F0.0059019222903439065
tp767
(Vnrg.co.il
p768
F0.005228495987774255
tp769
(V10tv.nana10.co.il
p770
F0.004148038854238269
tp771
(Vhaaretz.co.il
p772
F0.003253005553176228
tp773
(Vreshet.tv
p774
F0.002500336501581295
tp775
(Vnana10.co.il
p776
F0.0022548316724417413
tp777
(Vcalcalist.co.il
p778
F0.0018417326869460925
tp779
(Vrotter.net
p780
F0.0017081143185362219
tp781
(Vsdarot.tv
p782
F0.001147891993212563
tp783
(Vbeitar-jerusalem.net
p784
F0.0009314917537399742
tp785
(Vglobes.co.il
p786
F0.0008028600928230333
tp787
tp788
s((S'alpha6.com'
p789
tp790
(ttp791
(ts((S'apple.com'
p792
tp793
(ttp794
(ts((S'beta10.com'
p795
tp796
(ttp797
(ts((S'alpha37.com'
p798
tp799
(ttp800
(ts((S'alpha10.com'
p801
tp802
(ttp803
(ts((S'nnu.com'
p804
tp805
(ttp806
((Vportal.gowifi.com
p807
F0.10324091415329352
tp808
(Vhotels.bzone.co.il
p809
F0.0202482237831333
tp810
(Vb-zone.co.il
p811
F0.01436339286094733
tp812
(Vgetunpluggednow.com
p813
F0.007443598546503705
tp814
(Vgowifinavy.com
p815
F0.0060915480810140475
tp816
(Vwifilogin.comcast.net
p817
F0.0059170687009809314
tp818
(Vaccesspass.wifi.comcast.com
p819
F0.004982093876620559
tp820
(Vatharts.x10host.com
p821
F0.003123493531898279
tp822
(Ventreclick.com
p823
F0.002804543436267794
tp824
(Vanthonytyronehoward.me
p825
F0.0027966417592731
tp826
(Vgowifilive.com
p827
F0.0020510305747555887
tp828
(Vtelapi.com
p829
F0.0020247688396912325
tp830
(Vcobe.boisestate.edu
p831
F0.0019566129433473303
tp832
(Vamsterdam.info
p833
F0.0016212235700373582
tp834
(Vgsaelibrary.gsa.gov
p835
F0.0015439864000287116
tp836
(Vmilpaychart.com
p837
F0.0005447928848937411
tp838
(Vlegaljuice.com
p839
F0.0005411961401118149
tp840
(Vcreativetechworks.org
p841
F0.0005362949950816824
tp842
(Vanyabwile.com
p843
F0.0004842062167354266
tp844
(Vnetnearu.com
p845
F0.0004839271276564354
tp846
tp847
s((S'haaretz.com'
p848
tp849
(ttp850
((Vjpost.com
p851
F0.014067547171067995
tp852
(Vynetnews.com
p853
F0.011526345902491191
tp854
(Vtimesofisrael.com
p855
F0.009737221604697609
tp856
(Vdebka.com
p857
F0.005756065351502609
tp858
(Vmondoweiss.net
p859
F0.003963401689196985
tp860
(Visraelnationalnews.com
p861
F0.003928489795610394
tp862
(Vvgd.no
p863
F0.003789564838195706
tp864
(Valquds.com
p865
F0.0027098887785212515
tp866
(V972mag.com
p867
F0.0020296586149780326
tp868
(Vmaannews.net
p869
F0.0018625582862981458
tp870
(Visraeltoday.co.il
p871
F0.0016347667147140461
tp872
(Vinformationclearinghouse.info
p873
F0.0006405016317020539
tp874
(Vbrecorder.com
p875
F0.0006291039275881392
tp876
(Vjeuxn1.com
p877
F0.0005660736229760635
tp878
tp879
s((S'weibo.com'
p880
tp881
(ttp882
((Vdouban.com
p883
F0.010033428455514418
tp884
(Vrenren.com
p885
F0.009045850353562254
tp886
(Vt.sina.com.cn
p887
F0.006880941836228743
tp888
(Vtw.yahoo.com
p889
F0.005802552902936697
tp890
(Vzhihu.com
p891
F0.005182165066233723
tp892
(Vuser.qzone.qq.com
p893
F0.0048495719265918185
tp894
(Vcnbeta.com
p895
F0.004668699257089632
tp896
(Vtieba.baidu.com
p897
F0.003849861965094919
tp898
(Vbilibili.com
p899
F0.003729730318029248
tp900
(Vbbs.hupu.com
p901
F0.00204170365397691
tp902
(Vxiami.com
p903
F0.0009027472940131179
tp904
tp905
s((S'optimalblue.com'
p906
tp907
(ttp908
((Vcitrix.primelending.com
p909
F0.01983806998658364
tp910
(Vmyhome.ephmc.com
p911
F0.016720531392230547
tp912
(Vfidelitypassport.com
p913
F0.01087249587963097
tp914
(Vfwprodweb1.firstam.com
p915
F0.008999345804891831
tp916
(Vmbshighway.com
p917
F0.006312007531425715
tp918
(Vapp.mbslive.net
p919
F0.006148799715304694
tp920
(Vloanbright.com
p921
F0.005486635184313487
tp922
(Vcertmail.com
p923
F0.004539485775908838
tp924
(Vadmin.icanbuy.com
p925
F0.004302288065316919
tp926
(Vawh1-standard-v1.loankatalyst3.net
p927
F0.004188018819862747
tp928
(Vadvertiser.bankrate.com
p929
F0.0039302373731837726
tp930
(Vvalutrust.com
p931
F0.003728968651207271
tp932
(Vbayeq.sharepoint.com
p933
F0.0033966070386933695
tp934
(Vbestrateusa.com
p935
F0.002661144791224875
tp936
(Vmlive.benchmarklogin.com
p937
F0.002634990218954017
tp938
(Vadmin.mortgagedashboard.com
p939
F0.002564102564102564
tp940
(Vmandalaybay.com
p941
F0.002411923893121066
tp942
(Vlm.velocify.com
p943
F0.0022535245289155587
tp944
(Vsharepoint.alpinemc.com
p945
F0.001958819698411903
tp946
(Vgwrs.com
p947
F0.001636530069401655
tp948
tp949
s((S'commonplacebooks.com'
p950
tp951
(ttp952
((Vkramererik.deviantart.com
p953
F0.015912611627483142
tp954
(Vnightvale.libsyn.com
p955
F0.004891842165512066
tp956
(Vsickassbonedragon.tumblr.com
p957
F0.004180983198229754
tp958
(Vodpod.se
p959
F0.003780363823003958
tp960
(Vcommonplacebook.com
p961
F0.002837868418316484
tp962
(Vdisparition.info
p963
F0.002731468399736272
tp964
(Vsweetsweetlisteners.tumblr.com
p965
F0.0027084135934344316
tp966
(Vdiamond-wireless.com
p967
F0.002443815934311913
tp968
(Votterondeck.tumblr.com
p969
F0.002334534271636531
tp970
(Vtoplist.xyz
p971
F0.0016374744497521202
tp972
(Vhenrico.edmodo.com
p973
F0.0014302764872409473
tp974
(Vchinesedragons.sitedrop.com
p975
F0.0014083237567317876
tp976
(Vsteveandtony.co.vu
p977
F0.0013530789544898894
tp978
(Vjoinebookdownload.org
p979
F0.001352967599131936
tp980
(Vlib.westcler.org
p981
F0.0012731587578044632
tp982
(Vinnsmouthfreepress.com
p983
F0.0012646249514863704
tp984
(Vhun7ersgrove.blogspot.jp
p985
F0.0010866510538641687
tp986
(Vpodbay.fm
p987
F0.0009363738590677165
tp988
(Vdedicatedquill.blogspot.hu
p989
F0.0009038352374496415
tp990
(Vpaperalligator.com
p991
F0.0008161978166708405
tp992
tp993
s((S'alpha36.com'
p994
tp995
(ttp996
(ts((S'specificmedia.com'
p997
tp998
(ttp999
((Vbeads.com
p1000
F0.021363023057459657
tp1001
(Vdashboard.smartclip.net
p1002
F0.013864706261688271
tp1003
(Vshop.surftech.com
p1004
F0.011433198576288802
tp1005
(Vmd-perf.fr
p1006
F0.007154568986325085
tp1007
(Vvox.myvindico.com
p1008
F0.006954728523383112
tp1009
(Vthemoneytizer.com
p1010
F0.006210892729229304
tp1011
(Vradiumone.com
p1012
F0.004755053055868625
tp1013
(Vpubmatic.com
p1014
F0.0038626417971585818
tp1015
(Vsonobi.com
p1016
F0.003744923520228109
tp1017
(Vdash.saymedia.com
p1018
F0.003332725054985161
tp1019
(Vlift.openx.com
p1020
F0.002574935889351326
tp1021
(Vrainbowaspirins.deviantart.com
p1022
F0.0021626520292884876
tp1023
(Vonesourcehrsolutions.com
p1024
F0.0021504055050380927
tp1025
(Vcs.iupui.edu
p1026
F0.0021502552714554564
tp1027
(V4musclemen.com
p1028
F0.002036778398510242
tp1029
(Vteachushistory.org
p1030
F0.0020350710578977715
tp1031
(Vskinected.com
p1032
F0.0020127088185399235
tp1033
(Vvindico.com
p1034
F0.001944696534735984
tp1035
(Vpub.tlvmedia.com
p1036
F0.0016838661566957736
tp1037
(Vsfx.stickyadstv.com
p1038
F0.0016288757388475915
tp1039
tp1040
s((S'ebay.com'
p1041
tp1042
(ttp1043
((Vamazon.com
p1044
F0.010715418955713561
tp1045
(Vpaypal.com
p1046
F0.004491756406860376
tp1047
(Vetsy.com
p1048
F0.003662715716951191
tp1049
(Vslickdeals.net
p1050
F0.003069012319460808
tp1051
(Valiexpress.com
p1052
F0.0028328755606823754
tp1053
(Vus-mg6.mail.yahoo.com
p1054
F0.0019084091674699396
tp1055
(Vwalmart.com
p1056
F0.0017906265490819154
tp1057
(Ve.mail.ru
p1058
F0.0016764064461063679
tp1059
(Vgoogle.com
p1060
F0.0010756325212520402
tp1061
(Vautobia.com
p1062
F0.0008751469412171619
tp1063
(Vbestbuy.com
p1064
F0.0006417003644546833
tp1065
(Vnewegg.com
p1066
F0.0005644308027097123
tp1067
(Vmail.aol.com
p1068
F0.0004919381996496611
tp1069
tp1070
s((S'advoca.com'
p1071
tp1072
(ttp1073
((Vadvoca.basecamphq.com
p1074
F0.008621055760818787
tp1075
(Vblog.mtgprice.com
p1076
F0.004572319477706195
tp1077
tp1078
s((S'dropbox.com'
p1079
tp1080
(ttp1081
((Vapp.box.com
p1082
F0.0013404739791132872
tp1083
(Vonedrive.live.com
p1084
F0.0013325521252906328
tp1085
(Vmail.google.com
p1086
F0.0012791638643396106
tp1087
(Vwetransfer.com
p1088
F0.0012718690578820595
tp1089
(Vdl.dropboxusercontent.com
p1090
F0.001113213379752746
tp1091
(Vbasecamp.com
p1092
F0.0009847477842498521
tp1093
(Vevernote.com
p1094
F0.000911169342945063
tp1095
(Vtrello.com
p1096
F0.0007707266331317271
tp1097
(Vgoo.gl
p1098
F0.0005643067133763446
tp1099
(Vapp.asana.com
p1100
F0.0003447113809095475
tp1101
(Vpastebin.com
p1102
F0.0002867605076989273
tp1103
(Vbit.ly
p1104
F0.00028238188059720985
tp1105
(Vdb.tt
p1106
F0.00024846578865390364
tp1107
(Vodesk.com
p1108
F0.00023057830681953457
tp1109
tp1110
s((S'alpha42.com'
p1111
tp1112
(ttp1113
(ts((S'mhm-hr.com'
p1114
tp1115
(ttp1116
((Vpartners-staging.gohiring.com
p1117
F0.023547807416742516
tp1118
(Vmhm.hr.com
p1119
F0.01876128051676641
tp1120
(Vkonstanz.bewerbung.dvvbw.de
p1121
F0.016390721606705672
tp1122
(Vportal.karriere.constantin-medien.de
p1123
F0.014123536247430053
tp1124
(Vconstantin.mhmhr.com
p1125
F0.010708960281957435
tp1126
(Vicaro.com
p1127
F0.007290095525389642
tp1128
(Vagentur-swissweb.com
p1129
F0.006032532586448346
tp1130
(Vstackless.com
p1131
F0.0052765476302647695
tp1132
(Vorocrm.com
p1133
F0.002382913005577223
tp1134
(Vpraktikum.info
p1135
F0.002014930892971462
tp1136
(Velvery.net
p1137
F0.0018847286495582668
tp1138
(Vraygun.io
p1139
F0.0004864679387224136
tp1140
(Vmazda.de
p1141
F0.0002499347268682063
tp1142
(Vrobots.thoughtbot.com
p1143
F0.00011831605993741829
tp1144
(Vairpair.com
p1145
F5.9196679911923794e-05
tp1146
(Vgitlab.com
p1147
F4.343644317582452e-05
tp1148
(Vguides.rubyonrails.org
p1149
F3.226140959316058e-05
tp1150
(Vwrapbootstrap.com
p1151
F3.213475967735237e-05
tp1152
(Vtheatlantic.com
p1153
F6.564926755818538e-06
tp1154
(Vdeveloper.android.com
p1155
F5.659588584589765e-06
tp1156
tp1157
s((S'indeed.com'
p1158
tp1159
(ttp1160
((Vcareerbuilder.com
p1161
F0.005205264134006646
tp1162
(Vjobsearch.monster.com
p1163
F0.003781819305685634
tp1164
(Vsimplyhired.com
p1165
F0.0030653593206021374
tp1166
(Vglassdoor.com
p1167
F0.002995476275662268
tp1168
(Vdice.com
p1169
F0.0023170639004808885
tp1170
(Videalist.org
p1171
F0.001749540957292675
tp1172
(Vsnagajob.com
p1173
F0.0017122620956558675
tp1174
(Vnewyork.craigslist.org
p1175
F0.0010639517981285965
tp1176
(Vsfbay.craigslist.org
p1177
F0.0006482361474453595
tp1178
(Vusajobs.gov
p1179
F0.0006249689144564239
tp1180
(Vseek.com.au
p1181
F0.0006194835053579422
tp1182
(Vfindjobsfree.com
p1183
F0.0006114337471210921
tp1184
(Vjobofferguru.com
p1185
F0.0005988588395445259
tp1186
(Vlinkedin.com
p1187
F0.0005589435336134481
tp1188
(Vca-mg6.mail.yahoo.com
p1189
F0.00048355836822987284
tp1190
tp1191
s((S'cappuccino-project.org'
p1192
tp1193
(ttp1194
(ts((S'trovi.com'
p1195
tp1196
(ttp1197
((Vbing.com
p1198
F0.004212441284699453
tp1199
(Vapps.facebook.com
p1200
F0.0030083022471033304
tp1201
(Voffers.bycontext.com
p1202
F0.0029297262233523636
tp1203
(Vgroovorio.com
p1204
F0.0029130750852486807
tp1205
(Vastromenda.com
p1206
F0.0028937860789622753
tp1207
(Vreimageplus.com
p1208
F0.00243956162408757
tp1209
(Vsafecart.com
p1210
F0.0014653320469006084
tp1211
(Vtuneuppro.com
p1212
F0.001189551762306356
tp1213
(Valh.gogorithm.com
p1214
F0.0011530157550193704
tp1215
(Vcr2.gogorithm.com
p1216
F0.0011365290965476328
tp1217
(Vvosteran.com
p1218
F0.0007473469568090073
tp1219
(Vzym.tollbahsuburban.com
p1220
F0.0006226184951174459
tp1221
(Vanyprotect.com
p1222
F0.0006114114084377105
tp1223
(Vcdn.regiedepub.com
p1224
F0.0005553433080517209
tp1225
(Vgenesis-offers.com
p1226
F0.0005458160518087363
tp1227
(Vgty.campaignism.com
p1228
F0.0005249554641133994
tp1229
tp1230
s((S'w3schools.com'
p1231
tp1232
(ttp1233
((Vw3school.com
p1234
F0.011502063248230303
tp1235
(Vinfo343.ischool.uw.edu
p1236
F0.00222680914685972
tp1237
(Vhackthissite.org
p1238
F0.0020351576929919703
tp1239
(Vw3.org
p1240
F0.0016574297507289558
tp1241
(Vkb.iu.edu
p1242
F0.0013406884083077707
tp1243
(Vspidermarks.com
p1244
F0.0011385526915260464
tp1245
(Vtutorialspoint.com
p1246
F0.0009175821542880868
tp1247
(Vpicoctf.com
p1248
F0.0004549384568337717
tp1249
(Vw3shools.com
p1250
F0.00037857890125446626
tp1251
(Vapi.jquery.com
p1252
F0.0003059480826287719
tp1253
(Vmarianocalvo.com
p1254
F0.0002950192275021
tp1255
(Vprofit.notice.nl
p1256
F0.00028931787484113804
tp1257
(Vinsight.ccsf.edu
p1258
F0.00027594889236203874
tp1259
(Vxps.pk4labs.com
p1260
F0.0002748864938891834
tp1261
(Vtoster.ru
p1262
F0.00025806812375980776
tp1263
(Vkarlstads.itslearning.com
p1264
F0.00022547500963902747
tp1265
(Vhtmlgoodies.com
p1266
F0.00021626982800444284
tp1267
tp1268
s((S'beads.com'
p1269
tp1270
(ttp1271
((Vbeadworksphiladelphia.com
p1272
F0.09976689976689977
tp1273
(Vg5.com
p1274
F0.0072810692200279276
tp1275
(Visearch.omiga-plus.com
p1276
F1.055041652527835e-08
tp1277
tp1278
s((S'surrey.ac.uk'
p1279
tp1280
(ttp1281
((Vpod51031.outlook.com
p1282
F0.0017963586262663706
tp1283
(Vexchange.uml.edu
p1284
F0.0016144286007902184
tp1285
(Vproximity.instructure.com
p1286
F0.0015774356511539845
tp1287
(Vexchange.ict.usc.edu
p1288
F0.0015382841826919614
tp1289
(Vsavingcountrymusic.com
p1290
F0.0014328752846817757
tp1291
(Vkaggle.com
p1292
F0.001367232926914554
tp1293
(Vussu.co.uk
p1294
F0.0012484564641502206
tp1295
(Vsurrey.summon.serialssolutions.com
p1296
F0.0012332027866896894
tp1297
(Vthecompleteuniversityguide.co.uk
p1298
F0.0009841707655122726
tp1299
(Vuppmax.uu.se
p1300
F0.0009450092846242944
tp1301
(Vsurrey-uk.sona-systems.com
p1302
F0.0008319067088646201
tp1303
(Vukeas.com.tw
p1304
F0.0007918761171179304
tp1305
(Vlms.neumont.edu
p1306
F0.0007807936079197472
tp1307
(Vunitemps.com
p1308
F0.0007186507649313663
tp1309
(Vbda.uk.com
p1310
F0.0007096719081631982
tp1311
(Vcreativeplusonline.co.uk
p1312
F0.0006779957155228734
tp1313
(Vcancercentrelondon.co.uk
p1314
F0.0006776894018489342
tp1315
(Vgradintel.com
p1316
F0.0006630566913471102
tp1317
(Vprogramsinformationpeople.org
p1318
F0.0005993082113115775
tp1319
(Vemeraldinsight.com
p1320
F0.0005816681288147595
tp1321
tp1322
s((S'openstreetmap.org'
p1323
tp1324
(ttp1325
((Vmapbox.com
p1326
F0.021196561785209494
tp1327
(Vosm.org
p1328
F0.011739297739621646
tp1329
(Vdb-ip.com
p1330
F0.005607479423728669
tp1331
(Vstrassenweb.de
p1332
F0.003894011651161109
tp1333
(Vtools.wmflabs.org
p1334
F0.0025508034046964616
tp1335
(Vwegenforum.nl
p1336
F0.0023961384137083396
tp1337
(Vnelligandecouverte.ville.montreal.qc.ca
p1338
F0.001953534513151351
tp1339
(Vopenstreetmaps.org
p1340
F0.0016612734658339586
tp1341
(Varalbalkan.com
p1342
F0.0009930839030590363
tp1343
(Vwww-sbhome1.zv.uni-wuerzburg.de
p1344
F0.0009854903526855259
tp1345
(Vpanel.tarnow.net.pl
p1346
F0.0007606818821133027
tp1347
(Vadmin.parkme.com
p1348
F0.0007178456247658487
tp1349
(Vcarusocarsharing.com
p1350
F0.0006785000899689888
tp1351
(Vgeonb.maps.arcgis.com
p1352
F0.000641733324419534
tp1353
(Vcheckautopista.hol.es
p1354
F0.0005699729683061412
tp1355
(Vdownload.geofabrik.de
p1356
F0.0005104228163391527
tp1357
(Vgpsies.com
p1358
F0.0004712365359216927
tp1359
tp1360
s((S'iosreviews.net'
p1361
tp1362
(ttp1363
((Vfilter.usd262.net
p1364
F0.0006673834859664083
tp1365
(Va3.mzstatic.com
p1366
F7.803355442840422e-05
tp1367
(Vappszoom.com
p1368
F2.7909670351906058e-05
tp1369
(Vvimeo.com
p1370
F4.509971547090617e-07
tp1371
(Vgoogle.com.my
p1372
F1.679023567040801e-07
tp1373
(Vencrypted.google.com
p1374
F1.581442718563291e-07
tp1375
(Vduckduckgo.com
p1376
F1.2340433203180587e-07
tp1377
(Vtwitch.tv
p1378
F6.699834316704951e-08
tp1379
(Vgoogle.com
p1380
F1.7100833862031203e-08
tp1381
tp1382
s((S'superuser.com'
p1383
tp1384
(ttp1385
((Vstackexchange.com
p1386
F0.004099459401758269
tp1387
(Vlibc6.org
p1388
F0.0030590372069599944
tp1389
(Vencrypted.google.com
p1390
F0.001023749016786298
tp1391
(Vstartpage.com
p1392
F0.0008201129671354862
tp1393
(Vxie.lu
p1394
F0.0007714776591323591
tp1395
(Vforum.transmissionbt.com
p1396
F0.0007119466006968179
tp1397
(Vsmartredirect.de
p1398
F0.00047585572816905144
tp1399
(Vserverfault.com
p1400
F0.00047570928055575365
tp1401
(Vaskubuntu.com
p1402
F0.0004297365953529304
tp1403
(Vvirtualrouter.codeplex.com
p1404
F0.00036603824366120835
tp1405
(Ventiteinconnue.com
p1406
F0.0002567725344910978
tp1407
(Vservice.whiteclarke.com
p1408
F0.0002535906271887286
tp1409
(Vnetmechanic.dyndns.org
p1410
F0.000249944877301956
tp1411
(Vsocial.technet.microsoft.com
p1412
F0.0002398143987486882
tp1413
(Vcode5gaming.com
p1414
F0.00022645517687985438
tp1415
(Vmxc.ru
p1416
F0.00021803652826213085
tp1417
(Vwen.lu
p1418
F0.00021779296914272678
tp1419
(Vkldp.org
p1420
F0.0001614334562921192
tp1421
tp1422
s((S'go.com'
p1423
tp1424
(ttp1425
((Vespn.com
p1426
F0.03337306687118324
tp1427
(Vfootball.fantasysports.yahoo.com
p1428
F0.010176270463325858
tp1429
(Vnfl.com
p1430
F0.005620442665917183
tp1431
(Vbleacherreport.com
p1432
F0.0048811694849818545
tp1433
(Vcnn.com
p1434
F0.004507170523292394
tp1435
(Vrotoworld.com
p1436
F0.0042525769570422286
tp1437
(Vgrantland.com
p1438
F0.003965767010999959
tp1439
(Vdeadspin.com
p1440
F0.0037644745110197914
tp1441
(Vsi.com
p1442
F0.0018620011178298748
tp1443
(Vfoxnews.com
p1444
F0.0010016589832202306
tp1445
(Vnba.com
p1446
F0.0009297104408698922
tp1447
(Vcbssports.com
p1448
F0.0006828488904430898
tp1449
(Vreddit.com
p1450
F0.0006801618387432771
tp1451
tp1452
s((S'foxnews.com'
p1453
tp1454
(ttp1455
((Vdrudgereport.com
p1456
F0.014360589861415066
tp1457
(Vcnn.com
p1458
F0.010518728636185193
tp1459
(Vtheblaze.com
p1460
F0.004058442954851873
tp1461
(Vbreitbart.com
p1462
F0.003415615440433281
tp1463
(Vnbcnews.com
p1464
F0.003150060881601181
tp1465
(Vabcnews.go.com
p1466
F0.0025567798987414
tp1467
(Vusatoday.com
p1468
F0.00223799452308463
tp1469
(Vmsnbc.com
p1470
F0.0021865160095570365
tp1471
(Vcbsnews.com
p1472
F0.0021443860654524137
tp1473
(Vksl.com
p1474
F0.0013886712691915922
tp1475
(Vmy.yahoo.com
p1476
F0.0006859318677808678
tp1477
tp1478
s((S'readthedocs.org'
p1479
tp1480
(ttp1481
((Vpypi.python.org
p1482
F0.026089668216928447
tp1483
(Vhighlightjs.org
p1484
F0.01535948261085121
tp1485
(Vsublime.wbond.net
p1486
F0.014327829700159037
tp1487
(Vdocs.djangoproject.com
p1488
F0.010121020417527507
tp1489
(Vpythonhosted.org
p1490
F0.00487503259271451
tp1491
(Vpayplug.fr
p1492
F0.004101896504534612
tp1493
(Vgithub.com
p1494
F0.0034092001796401194
tp1495
(Vdjangopackages.com
p1496
F0.002420294612928265
tp1497
(Vbitbucket.org
p1498
F0.0012239493506668588
tp1499
(Vsource.opennews.org
p1500
F0.0006405103104172375
tp1501
(Vforge.puppetlabs.com
p1502
F0.000604560944942585
tp1503
(Vrapidsms.org
p1504
F0.0005515309123225041
tp1505
(Vsyncany.org
p1506
F0.00047629531326776487
tp1507
tp1508
s((S'bycontext.com'
p1509
tp1510
(ttp1511
(ts((S'regexper.com'
p1512
tp1513
(ttp1514
((Vstats.wefra.de
p1515
F0.01654884318766067
tp1516
(Vservices.balihoo.com
p1517
F0.011492809144005528
tp1518
(Virchelp.org
p1519
F0.009514896272032445
tp1520
(Vbalihoo.wikispaces.com
p1521
F0.008600634473034897
tp1522
(Vconfig.whatsapp.net
p1523
F0.008235261768587769
tp1524
(Vope.comlocal.com
p1525
F0.0054417942296446095
tp1526
(Vex-parrot.com
p1527
F0.005244206124024955
tp1528
(Vscriptular.com
p1529
F0.004299777068208656
tp1530
(Vquovo.slack.com
p1531
F0.004205529280171921
tp1532
(Vslant.co
p1533
F0.004089682490907161
tp1534
(Vifconfig.me
p1535
F0.003823109724905924
tp1536
(Vjex.im
p1537
F0.003593484437396034
tp1538
(Vregexpal.com
p1539
F0.003533949522620317
tp1540
(Vredmine.nokaut.pl
p1541
F0.003469110832330577
tp1542
(Vmyezapp.com
p1543
F0.0033483126266631424
tp1544
(Vosslab.msopentech.cn
p1545
F0.003287199672690848
tp1546
(Vregexcrossword.com
p1547
F0.0032797965438917417
tp1548
(Vflockhart.virtualave.net
p1549
F0.003141157502640796
tp1550
(Vww1.regexp.com
p1551
F0.0030955896640652257
tp1552
(Vwisepilgrim.tk
p1553
F0.0027548002769799186
tp1554
tp1555
s((S'lachainemeteo.com'
p1556
tp1557
(ttp1558
((Vmeteofrance.com
p1559
F0.0075587711547478635
tp1560
(Vmeteociel.fr
p1561
F0.006006151192205198
tp1562
(Vmeteo60.fr
p1563
F0.0034965202012868604
tp1564
(Vta-meteo.fr
p1565
F0.0033475312471654625
tp1566
(Vprevimeteo.com
p1567
F0.0029446393665404007
tp1568
(Vasiaflash.com
p1569
F0.002483790461450803
tp1570
(Vpleinchamp.com
p1571
F0.0024655505297938806
tp1572
(Vmeteosuisse.admin.ch
p1573
F0.0023087805637160255
tp1574
(Vtameteo.com
p1575
F0.0018151365845525743
tp1576
(Vmeteoconsult.fr
p1577
F0.0015009647542236712
tp1578
(Vpaysdefayence.blogspot.fr
p1579
F0.0008376001163114655
tp1580
(Vwebmail.orange.lu
p1581
F0.0007312643621048468
tp1582
(Vmeteo.msn.com
p1583
F0.0006733849861055666
tp1584
tp1585
s((S'overview.com'
p1586
tp1587
(ttp1588
((Vparadisefibers.net
p1589
F0.05606439078545656
tp1590
(Voverview.vi.com
p1591
F0.03834979662986636
tp1592
(Vuberblick.com
p1593
F0.01728932414460162
tp1594
(Vapp41.studyisland.com
p1595
F0.006039405626812569
tp1596
(Vconnection.naviance.com
p1597
F1.1817028408136294e-05
tp1598
(Vlinkedin.com
p1599
F1.8305126232117214e-07
tp1600
(Vgoogle.co.in
p1601
F1.2413457652013844e-08
tp1602
(Vfacebook.com
p1603
F5.505810400274314e-09
tp1604
(Vyoutube.com
p1605
F3.3168501529630095e-10
tp1606
tp1607
s((S'foobar2000.org'
p1608
tp1609
(ttp1610
((Vxiph.org
p1611
F0.012560316380569403
tp1612
(Vchromium.woolyss.com
p1613
F0.00955818180112687
tp1614
(Vnnc-board.com
p1615
F0.008407273052412243
tp1616
(Vseriosoft.org
p1617
F0.00812328805121656
tp1618
(Vifi-audio.com
p1619
F0.00682673706152465
tp1620
(Vthalassa.feralhosting.com
p1621
F0.006206348719177406
tp1622
(Vexactaudiocopy.de
p1623
F0.0059219804079789435
tp1624
(Vhydrogenaud.io
p1625
F0.004881531371685709
tp1626
(Vsrware.net
p1627
F0.0038989963128243216
tp1628
(Vopen-end-music.de
p1629
F0.0028752770792993695
tp1630
(Vforum.pskovonline.ru
p1631
F0.002540252362730567
tp1632
(Vforum.hdmovie.vn
p1633
F0.0019178192491957236
tp1634
(Vmassengeschmack.tv
p1635
F0.0017078779488777472
tp1636
(Vforums.ffshrine.org
p1637
F0.001649445296546487
tp1638
(Vsmsserver.itouchnet.co.za
p1639
F0.0015547791300949707
tp1640
(Vburrrn.net
p1641
F0.0013273025950887873
tp1642
(Vjenny317.pixnet.net
p1643
F0.0010201545082112753
tp1644
(V10file.com
p1645
F0.0009778273268755075
tp1646
tp1647
s((S't.co'
p1648
tp1649
(ttp1650
((Vtwitter.com
p1651
F0.01662514245459643
tp1652
(Vnetshaker.co.uk
p1653
F0.005702748047539814
tp1654
(Vovermanforum.com
p1655
F0.005168993771333038
tp1656
(Vvidshaker.com
p1657
F0.004333940142822799
tp1658
(Vhootsuite.com
p1659
F0.002525967849609657
tp1660
(Vpravda.com.ua
p1661
F0.0021821462081275064
tp1662
(Vlinkonym.appspot.com
p1663
F0.00116419829102206
tp1664
(Vnirist.com
p1665
F0.0007631574786724346
tp1666
(Vshortp.com
p1667
F0.0007615519848983666
tp1668
(Vyoutoo.be
p1669
F0.0004364089663812316
tp1670
(Vru.4game.com
p1671
F0.00023765488762786773
tp1672
(Vdiym.ag
p1673
F0.00022602564113454292
tp1674
(Vdl.dropboxusercontent.com
p1675
F0.00018622810739933932
tp1676
tp1677
s((S'netdna-ssl.com'
p1678
tp1679
(ttp1680
((Vservermat.info
p1681
F0.015230253887760331
tp1682
(Vfinedininglovers.com
p1683
F0.007828688392923909
tp1684
(Vblog.myfitnesspal.com
p1685
F0.006571678856628307
tp1686
(Vvisual.ly
p1687
F0.005523052877933682
tp1688
(Vredrow.co.uk
p1689
F0.0054794740749505135
tp1690
(Vgrainandmortar.com
p1691
F0.005173594116386273
tp1692
(Vskillsera.com
p1693
F0.004438460562360511
tp1694
(Vblank-box.net
p1695
F0.003202477829561559
tp1696
(Vkls-ukraine.com.ua
p1697
F0.0026298015359082477
tp1698
(Vfinerthings.in
p1699
F0.002208584819772735
tp1700
(Vhostedcloudy.com
p1701
F0.001929990552717578
tp1702
(Vzino.im
p1703
F0.0017095925364803445
tp1704
(Vsram.com
p1705
F0.0015705995916889095
tp1706
(Vs1magnettvcom.maynemyltf.netdna-cdn.com
p1707
F0.0013414146062946583
tp1708
(Vhomepath.com
p1709
F0.0010985648416592306
tp1710
(Vagents.equator.com
p1711
F0.000992105542015471
tp1712
(Vnewhdplugin.net
p1713
F0.0006650805674776797
tp1714
(Virvsluggage.com
p1715
F0.0006295881279719576
tp1716
(Vcool-tv.net
p1717
F0.0006268836631248746
tp1718
(Vbettielou.blogspot.com
p1719
F0.0005037569778605635
tp1720
tp1721
s((S'linuxjournal.com'
p1722
tp1723
(ttp1724
((Vplay0ad.com
p1725
F0.007972660221054225
tp1726
(Vgrc.com
p1727
F0.00647141761691918
tp1728
(Vislametinfo.fr
p1729
F0.003816693772624731
tp1730
(Vmfrtech.com
p1731
F0.003299980133259979
tp1732
(Vstaceypageonline.com
p1733
F0.002611479327291582
tp1734
(Vweb.tiscali.it
p1735
F0.002206592194180113
tp1736
(Vvuenosairez.com
p1737
F0.002110189065787111
tp1738
(Vgoogleblog.blogspot.ca
p1739
F0.0021021366248038047
tp1740
(Viso.linuxquestions.org
p1741
F0.00205698044304996
tp1742
(Vapp.flowkey.com
p1743
F0.002010494615044506
tp1744
(Vlxer.com
p1745
F0.0017342140696928467
tp1746
(Vpubservice.com
p1747
F0.0016237614530817824
tp1748
(Vswtch.com
p1749
F0.0016066199103156131
tp1750
(Vlinuxformat.co.uk.hypestat.com
p1751
F0.0015858338656718014
tp1752
(Vthemukt.com
p1753
F0.0015653612543401665
tp1754
(Vandroidlista.com
p1755
F0.0015486774962675757
tp1756
(Vmakerzone.mathworks.com
p1757
F0.0014968938741111305
tp1758
(Vlinuxstory.org
p1759
F0.001406172434392643
tp1760
(Vlinuxine.com
p1761
F0.0014034815981275438
tp1762
(Vchili-tv.it
p1763
F0.0013159468347682625
tp1764
tp1765
s((S'jpost.com'
p1766
tp1767
(ttp1768
((Vynetnews.com
p1769
F0.019729727580260547
tp1770
(Vtimesofisrael.com
p1771
F0.013226876605111307
tp1772
(Visraelnationalnews.com
p1773
F0.013208827532433675
tp1774
(Vhaaretz.com
p1775
F0.012848252060918228
tp1776
(Vdebka.com
p1777
F0.004871516997591442
tp1778
(Vtheyeshivaworld.com
p1779
F0.003525657873832931
tp1780
(Vhealthboards.com
p1781
F0.0021055161036497515
tp1782
(Vamerica.aljazeera.com
p1783
F0.0016146935179485093
tp1784
(Vforward.com
p1785
F0.0012287918863554067
tp1786
(Vjewishpress.com
p1787
F0.0009656112404776759
tp1788
(Vshawconnect.ca
p1789
F0.0008451680311466095
tp1790
(Vdagelijksestandaard.nl
p1791
F0.0006645158426549159
tp1792
(Vhealthplexus.net
p1793
F0.0006096268993029301
tp1794
(Vcopsplus.com
p1795
F0.0005756633899756009
tp1796
(Vmail.uncw.edu
p1797
F0.0005636696948299835
tp1798
(Vfreewarefiles.com
p1799
F0.0004879262444597728
tp1800
tp1801
s((S'alpha12.com'
p1802
tp1803
(ttp1804
(ts((S'osm.org'
p1805
tp1806
(ttp1807
((Vtileify-ags.herokuapp.com
p1808
F0.025611846996525408
tp1809
(Vlists.fossgis.de
p1810
F0.015710511417248538
tp1811
(Vosm.kcwu.csie.org
p1812
F0.015259251570042041
tp1813
(Vopenstreetmap.fr
p1814
F0.014881732964204185
tp1815
(Vweb.fulcrumapp.com
p1816
F0.011588471941892874
tp1817
(Vddtp.debian.net
p1818
F0.0033082363677846226
tp1819
(Vgst.dk
p1820
F0.0030583511849426727
tp1821
(Vtranquil-dusk-1191.herokuapp.com
p1822
F0.0029621244280930146
tp1823
(Vactop.clustertech.com
p1824
F0.0024018770738750746
tp1825
(Vplanet.openstreetmap.org
p1826
F0.0022462864859250026
tp1827
(Vforum.openstreetmap.org
p1828
F0.00199203187250996
tp1829
(Vin-berlin-brandenburg.com
p1830
F0.0017609681960170714
tp1831
(Vlaw.uj.edu.pl
p1832
F0.0014257841812997149
tp1833
(Vbeta.everypost.me
p1834
F0.0013285719771147717
tp1835
(Vleafletjs.com
p1836
F0.001191800008488604
tp1837
(Vmarket.ba
p1838
F0.0011574074074074073
tp1839
(Vtranslations.launchpad.net
p1840
F0.0010782441508502539
tp1841
(Vstadt-bremerhaven.de
p1842
F5.549050649917976e-05
tp1843
(Veniro.se
p1844
F4.805950506103557e-05
tp1845
(Vgithub.com
p1846
F4.784102050651656e-06
tp1847
tp1848
s((S'alpha44.com'
p1849
tp1850
(ttp1851
(ts((S'beadworksphiladelphia.com'
p1852
tp1853
(ttp1854
(ts((S'theenchanter.com'
p1855
tp1856
(ttp1857
(ts((S'mashable.com'
p1858
tp1859
(ttp1860
((Vtechcrunch.com
p1861
F0.003269554441150279
tp1862
(Vthenextweb.com
p1863
F0.0020893059576553882
tp1864
(Vtheverge.com
p1865
F0.0011964644051488723
tp1866
(Vengadget.com
p1867
F0.0011541180149668715
tp1868
(Vwired.com
p1869
F0.0010062199169788152
tp1870
(Vt.co
p1871
F0.001000532665223137
tp1872
(Vgizmodo.com
p1873
F0.0008873288390789227
tp1874
(Vbusinessinsider.com
p1875
F0.0007152040206950399
tp1876
(Vdigg.com
p1877
F0.0005093257403694798
tp1878
(Vmacrumors.com
p1879
F0.00048813763950878304
tp1880
(Vfastcompany.com
p1881
F0.0004186323234047929
tp1882
(Varstechnica.com
p1883
F0.00036950639928100704
tp1884
(Vfeedly.com
p1885
F0.000247658170357474
tp1886
tp1887
s((S'alpha2.com'
p1888
tp1889
(ttp1890
((Valpharooms.com
p1891
F0.003697445800052664
tp1892
(Vsculpteo.com
p1893
F0.00044483632406326206
tp1894
(Vuk.pinterest.com
p1895
F1.5539860296655933e-05
tp1896
(Vimgur.com
p1897
F1.9443935627705352e-07
tp1898
(Vdrive.google.com
p1899
F2.224820992362993e-08
tp1900
tp1901
s((S'designtaxi.com'
p1902
tp1903
(ttp1904
((Vnaturpixel.com
p1905
F0.002525569674668886
tp1906
(Vresearch.facebook.com
p1907
F0.0024447558932316087
tp1908
(Vmrhyde.com
p1909
F0.002101027503719101
tp1910
(Vpurpleheart.org
p1911
F0.0015727754663803514
tp1912
(Vedpuzzle.com
p1913
F0.0014091455933541925
tp1914
(Vallenby-pratt.com
p1915
F0.0012811653560782217
tp1916
(Valiciavera.com
p1917
F0.0012265785229286553
tp1918
(Vtheinspiration.com
p1919
F0.0011984722954081271
tp1920
(Vmodernhousemagazine.com
p1921
F0.0011556103820603895
tp1922
(Vhaebc.com
p1923
F0.0011554678439678909
tp1924
(Vhep.eiz.jp
p1925
F0.0011284011989747447
tp1926
(Vsomethingcomics.tumblr.com
p1927
F0.001076472847460011
tp1928
(Vmensstyleadvice.com
p1929
F0.0010069390317375387
tp1930
(Vjobisjob.de
p1931
F0.0009852059176329467
tp1932
(Vassets.gecapital.com.au
p1933
F0.0009332437835811571
tp1934
(Vcreativereview.co.uk
p1935
F0.000928881838058707
tp1936
(Vzombiesamurai.pl
p1937
F0.0009227463467303423
tp1938
(Vecsediekszer.hu
p1939
F0.0008745579998976046
tp1940
(Vkarne.pl
p1941
F0.0008697854085080444
tp1942
(Vilghirlandaio.com
p1943
F0.000848768909519732
tp1944
tp1945
s((S'alpha41.com'
p1946
tp1947
(ttp1948
(ts((S'alpha25.com'
p1949
tp1950
(ttp1951
(ts((S'diveintopython.net'
p1952
tp1953
(ttp1954
((Vluisartola.com
p1955
F0.01308713593306666
tp1956
(Vlearn.gramener.com
p1957
F0.0066802362512468775
tp1958
(Vdjango-chinese-docs-14.readthedocs.org
p1959
F0.006255710972095312
tp1960
(Vlignos.org
p1961
F0.003607044345427541
tp1962
(Vdocs.python.org
p1963
F0.0029514139252664086
tp1964
(Vdiveintopython3.net
p1965
F0.0024584698132149164
tp1966
(Vscipy.org
p1967
F0.00233695159956468
tp1968
(Vcalazan.com
p1969
F0.0018844901747393514
tp1970
(Vconnexus-jjm.appspot.com
p1971
F0.0016320116054158607
tp1972
(Vtour-sz.com
p1973
F0.0015841490518749704
tp1974
(Vsagemath.org
p1975
F0.0013459797709473023
tp1976
(Vapp.azendoo.com
p1977
F0.001330340715038685
tp1978
(Vgit.crl.vecna.com
p1979
F0.0011964902951342728
tp1980
(Vtechprom.ru
p1981
F0.0011357111225529769
tp1982
(Vmozgovipc.blogspot.co.il
p1983
F0.0008450978246330817
tp1984
(Vcforbeginners.com
p1985
F0.0006691024343003037
tp1986
(Vquality.mozilla.org
p1987
F0.0006626145240006626
tp1988
(Vvipod.ecommtools.com
p1989
F0.0006560723137483598
tp1990
(Vtrac.kit-xxi.com.ua
p1991
F0.0006007910415380251
tp1992
(Vwoodpecker.org.cn
p1993
F0.0005948740571413293
tp1994
tp1995
s((S'alpha26.com'
p1996
tp1997
(ttp1998
(ts((S'nytimes.com'
p1999
tp2000
(ttp2001
((Vwashingtonpost.com
p2002
F0.007781835726750785
tp2003
(Vonline.wsj.com
p2004
F0.004471839990720206
tp2005
(Vlatimes.com
p2006
F0.003074205326472215
tp2007
(Vcnn.com
p2008
F0.003029315111656876
tp2009
(Vhuffingtonpost.com
p2010
F0.0030189382440005403
tp2011
(Vnyt.com
p2012
F0.00284545940755657
tp2013
(Vbbc.com
p2014
F0.00266604934188989
tp2015
(Vslate.com
p2016
F0.0025174966981710172
tp2017
(Vnews.google.com
p2018
F0.0021314303237596937
tp2019
(Vtheguardian.com
p2020
F0.0018785749565554237
tp2021
(Vnpr.org
p2022
F0.0007064446455242241
tp2023
tp2024
s((S'github.com'
p2025
tp2026
(ttp2027
((Vcode.google.com
p2028
F0.00407012608671127
tp2029
(Vrubygems.org
p2030
F0.0035773462484789457
tp2031
(Vraw.githubusercontent.com
p2032
F0.0034577717855745157
tp2033
(Vstackoverflow.com
p2034
F0.003441503954031439
tp2035
(Vbitbucket.org
p2036
F0.003385212782873444
tp2037
(Vnpmjs.org
p2038
F0.002854017136546961
tp2039
(Vpypi.python.org
p2040
F0.002706602897481004
tp2041
(Vnews.ycombinator.com
p2042
F0.0019993154488276
tp2043
(Vgit-scm.com
p2044
F0.0019871032599025357
tp2045
(Vdocs.angularjs.org
p2046
F0.0012442907118560913
tp2047
(Vhaxiomic.github.io
p2048
F0.0006659055953985048
tp2049
(Vpivotaltracker.com
p2050
F0.0005625324970995607
tp2051
tp2052
s((S'alpha49.com'
p2053
tp2054
(ttp2055
(ts((S'bleepingcomputer.com'
p2056
tp2057
(ttp2058
((Vforums.malwarebytes.org
p2059
F0.014133110558044844
tp2060
(Vtoolslib.net
p2061
F0.009604761097288106
tp2062
(Vforums.techguy.org
p2063
F0.005599808649726676
tp2064
(Veasylist.adblockplus.org
p2065
F0.005464288494238814
tp2066
(Vforum.avast.com
p2067
F0.0023284922428071543
tp2068
(Vcommunity.mcafee.com
p2069
F0.002115762450095909
tp2070
(Vsupportatalliance.zendesk.com
p2071
F0.0018201070593856425
tp2072
(Vcombofix.org
p2073
F0.0017738837446607918
tp2074
(Vcomment-supprimer.com
p2075
F0.0017606388173824258
tp2076
(Vsurfright.nl
p2077
F0.0010393969965511157
tp2078
(Vcome-eliminare.com
p2079
F0.0008058871889142518
tp2080
(Vsupport.bullguard.com
p2081
F0.0006765552464745129
tp2082
(Vanswers.avira.com
p2083
F0.0006701063889255314
tp2084
(Vnonags.com
p2085
F0.0006179254116133074
tp2086
(Vforum.eset.com
p2087
F0.0006131790797156976
tp2088
(Vbroker4.gotoassist.com
p2089
F0.0005442813345531518
tp2090
(Vspywarefri.dk
p2091
F0.0004931542110596758
tp2092
tp2093
s((S'alpha11.com'
p2094
tp2095
(ttp2096
(ts((S'eksisozluk.com'
p2097
tp2098
(ttp2099
((Vradikal.com.tr
p2100
F0.0068966636038099716
tp2101
(Valkislarlayasiyorum.com
p2102
F0.005805885367388333
tp2103
(Vntvspor.net
p2104
F0.004710690766242146
tp2105
(Vhurriyet.com.tr
p2106
F0.004449236766384042
tp2107
(Vntvmsnbc.com
p2108
F0.004045211870764205
tp2109
(Vmilliyet.com.tr
p2110
F0.003908397864827673
tp2111
(Vrerererarara.net
p2112
F0.0038136682399826176
tp2113
(Vitusozluk.com
p2114
F0.0037077018061633126
tp2115
(Vforum.donanimhaber.com
p2116
F0.0036240961003998016
tp2117
(Vonedio.com
p2118
F0.0019602389998414882
tp2119
(Vt24.com.tr
p2120
F0.001171254414377725
tp2121
tp2122
s((S'runnable.com'
p2123
tp2124
(ttp2125
(ts((S'overapi.com'
p2126
tp2127
(ttp2128
((Vapis.pw
p2129
F0.007200668343131401
tp2130
(Vtroy.labs.daum.net
p2131
F0.00701409345452805
tp2132
(V121down.com
p2133
F0.005797076194085878
tp2134
(Vbullium.com
p2135
F0.005647792665666607
tp2136
(Vpittalis.hostings.co.uk
p2137
F0.005007780530559443
tp2138
(Vwebmail.garmin.com
p2139
F0.004804957073805288
tp2140
(Vbumpsdocumentarily.squarespace.com
p2141
F0.004158373405198481
tp2142
(Vorays.wd-works.com
p2143
F0.004110381077529567
tp2144
(Vbootgraph.net
p2145
F0.004030362627239939
tp2146
(Vredmine.infogene.fr
p2147
F0.0034291946192749156
tp2148
(Vmitarbeiter.hs-heilbronn.de
p2149
F0.003285460978893482
tp2150
(Vnote-pad.net
p2151
F0.0032399080437864043
tp2152
(Vupsideos.com
p2153
F0.0032079887740138428
tp2154
(Vscm.ulster.ac.uk
p2155
F0.002922858853657464
tp2156
(Vibmwebsphereportalserver.blogspot.pt
p2157
F0.0026748188381356852
tp2158
(Vytub3.com
p2159
F0.0026007381348067253
tp2160
(Vvertical3w.teamwork.com
p2161
F0.002595337661272785
tp2162
(Vfindpatent.ru
p2163
F0.0025676768503163972
tp2164
(Vcheat-sheets.org
p2165
F0.0022810455972986374
tp2166
(Vlocaltest.me
p2167
F0.002195967292517345
tp2168
tp2169
s((S'meditation.com'
p2170
tp2171
(ttp2172
((Vmedication.com
p2173
F0.015265354800238521
tp2174
(Vhoroscopedays.com
p2175
F0.0001161929383741703
tp2176
(Vbrilliant.org
p2177
F6.724553867879327e-05
tp2178
(Vamharicmovies.com
p2179
F5.362787984026289e-05
tp2180
(Vlequipe.fr
p2181
F7.816310148203357e-07
tp2182
(Ven.wikipedia.org
p2183
F5.252421832353988e-08
tp2184
(Vsearch.ask.com
p2185
F3.7740381291546105e-08
tp2186
(Vgoogle.ca
p2187
F3.648383286054617e-08
tp2188
(Vreddit.com
p2189
F1.058890587253285e-08
tp2190
(Vgoogle.co.in
p2191
F3.669238772897556e-09
tp2192
(Vfacebook.com
p2193
F1.5397755423834308e-09
tp2194
tp2195
s((S'alpha48.com'
p2196
tp2197
(ttp2198
(ts((S'taskrabbit.com'
p2199
tp2200
(ttp2201
(ts((S'bing.com'
p2202
tp2203
(ttp2204
((Vmsn.com
p2205
F0.016635658217342388
tp2206
(Vtrovi.com
p2207
F0.016555075479974354
tp2208
(Vbaidu.com
p2209
F0.003273251804980637
tp2210
(Vyahoo.com
p2211
F0.0027715540810384367
tp2212
(Vapps.facebook.com
p2213
F0.001965248831657405
tp2214
(Vamazon.com
p2215
F0.001769528353985467
tp2216
(Vyoutube.com
p2217
F0.0016330581196150912
tp2218
(Vistart.webssearches.com
p2219
F0.0016193109759660585
tp2220
(Vwww-search.net
p2221
F0.0015684668097458295
tp2222
(Vgoogle.com
p2223
F0.0015435173690071886
tp2224
(Vsearch.safefinder.com
p2225
F0.0015014238507027663
tp2226
(Vwebsearch.calcitapp.info
p2227
F0.0010834036777905153
tp2228
(Vcr2.gogorithm.com
p2229
F0.0010569179030244548
tp2230
(Vistart123.com
p2231
F0.0009062105420444925
tp2232
(Vreddit.com
p2233
F0.0008460113039214405
tp2234
(Vmystartsearch.com
p2235
F0.0008281261084001494
tp2236
tp2237
s((S'usenet.org'
p2238
tp2239
(ttp2240
(ts((S'underscorejs.org'
p2241
tp2242
(ttp2243
((Vbackbonejs.org
p2244
F0.039222457353583956
tp2245
(Vlodash.com
p2246
F0.010088033186646021
tp2247
(Vnpmjs.org
p2248
F0.009634296887257985
tp2249
(Vunderscore.org
p2250
F0.003705428047383178
tp2251
(Vapps.ripjar.com
p2252
F0.002173266454966447
tp2253
(Vcode.accursoft.com
p2254
F0.0021697462471221493
tp2255
(Vdocumentcloud.github.io
p2256
F0.00184364221624516
tp2257
(V2manydots.harvestapp.com
p2258
F0.0018039857985162405
tp2259
(Vsaratz.ch
p2260
F0.001663894348245135
tp2261
(Vwebmail.villa-bosch.de
p2262
F0.0013807770356892993
tp2263
(Vtech.pro
p2264
F0.0013804158667762318
tp2265
(Vrequirejs.org
p2266
F0.0012272006095745108
tp2267
(Vgit.corp.adobe.com
p2268
F0.0012072899135412783
tp2269
(Vatmospherejs.com
p2270
F0.0010363480512479175
tp2271
(Vmomentjs.com
p2272
F0.0010000112661189041
tp2273
(Vmongoosejs.com
p2274
F0.0009662738469342434
tp2275
(Vdruiddev01.cern.ch
p2276
F0.0009026188131905872
tp2277
(Vdocs.meteor.com
p2278
F0.0007997301032960305
tp2279
(Vparse.com
p2280
F0.0007765882205994752
tp2281
(Vapi.jquery.com
p2282
F0.0007427711251300164
tp2283
tp2284
s((S'news.com'
p2285
tp2286
(ttp2287
((Vtriadsportsgroupllcthebownet.freshbooks.com
p2288
F0.01454126318930815
tp2289
(Vconnect-securities.com
p2290
F0.009366792280461346
tp2291
(Vmtexpress.com
p2292
F0.008571347129582121
tp2293
(Vmobyaffiliates.com
p2294
F0.006339849230921682
tp2295
(Vmtthwnvk.exposure.co
p2296
F0.0033911039363203476
tp2297
(Vsecurepay.dancesoft.com
p2298
F0.003083712642298566
tp2299
(Vmoney.com
p2300
F0.0027744550770866564
tp2301
(Vsheridan.jira.com
p2302
F0.0021324345901694765
tp2303
(Vfumccolumbia.org
p2304
F0.002059842305468784
tp2305
(Vasia.cnet.com
p2306
F0.001940538957234915
tp2307
(Vbitleak.net
p2308
F0.0017806098814809792
tp2309
(Vbownetstore.com
p2310
F0.0017481364206082194
tp2311
(Vssa188.com
p2312
F0.0017289024746086953
tp2313
(Veastweek.my-magazine.me
p2314
F0.0017166058487947781
tp2315
(Vtimesheets.com.au
p2316
F0.00144046913959389
tp2317
(Vot.co.id
p2318
F0.001379530084434944
tp2319
(Vrm.cergis.net.id
p2320
F0.001325086853725882
tp2321
(Vvanckohall.delhi.edu
p2322
F0.0012172644851602828
tp2323
(Vsecure.nextissue.ca
p2324
F0.0008606069810413344
tp2325
(Vl.2013.com
p2326
F0.00084495923225894
tp2327
tp2328
s((S'i24.fr'
p2329
tp2330
(ttp2331
((Vgoogle.ml
p2332
F1.7309033164535984e-05
tp2333
tp2334
s((S'apreche.net'
p2335
tp2336
(ttp2337
((Vtenprinthello.ca
p2338
F0.04867890147077964
tp2339
(Vblog.mathieu-leplatre.info
p2340
F0.014435324087178035
tp2341
(Vmichal.karzynski.pl
p2342
F0.005433674600008864
tp2343
(Vcafehayek.com
p2344
F0.0005601225679972324
tp2345
(Vmtgoacademy.com
p2346
F0.00023374712685823236
tp2347
(Vknowledge.rapidssl.com
p2348
F0.00020115021349352203
tp2349
(Vbitnami.com
p2350
F2.8252108521334497e-05
tp2351
(Vhelp.github.com
p2352
F1.3902984970873247e-05
tp2353
tp2354
s((S'youtu.be'
p2355
tp2356
(ttp2357
((Vyoutube.be
p2358
F0.002327771504181619
tp2359
(Vuses.myherbalife.com
p2360
F0.0022052491406921487
tp2361
(Vbahrammoshiri.com
p2362
F0.00120513846529179
tp2363
(Vsteerbiddersales.com
p2364
F0.0010856524094649729
tp2365
(Vexams.evinrude.com
p2366
F0.0009387105668307909
tp2367
(Vwww2.memehk.com
p2368
F0.000840664053480079
tp2369
(Vmemehk.com
p2370
F0.0006322798687984735
tp2371
(Vmissyusa.com
p2372
F0.0006279402146092168
tp2373
(Vfollovvme.com
p2374
F0.0004785133661676418
tp2375
(Vtubetamil.com
p2376
F0.0004547101225723085
tp2377
(Vfirstlegoleague.org
p2378
F0.0004278581860366056
tp2379
(Vk8mer.com
p2380
F0.00038935924897389785
tp2381
(Vblaulichtreporter.de
p2382
F0.0003442025800306291
tp2383
(Veasykart.it
p2384
F0.00034177048920407956
tp2385
(Vnerdapproved.com
p2386
F0.00033383098580019383
tp2387
(Vwieboldtv.de
p2388
F0.0003332203017659258
tp2389
(Vphumidrama.com
p2390
F0.00032757148580445696
tp2391
(Vkilroynews.net
p2392
F0.0003270797996804544
tp2393
(Vhelpdesk.tankionline.com
p2394
F0.0002683043007451439
tp2395
(Vsaintsfc.co.uk
p2396
F0.0002499477358238586
tp2397
tp2398
s((S'awardsgirl.biz'
p2399
tp2400
(ttp2401
((Vsecure.bidvertiser.com
p2402
F0.00460334122367181
tp2403
(Vr2r9.genuinessllinked.com
p2404
F0.002314006383011437
tp2405
(Vclick.blueseek.com
p2406
F0.0007148759907150507
tp2407
(Vmahboobii.blogfa.com
p2408
F0.0005257772530499803
tp2409
(Vcdn.hyperpromote.com
p2410
F0.0003485878222948513
tp2411
(Vwowbetas.blogspot.ca
p2412
F0.000142360237836504
tp2413
(Vrlated.net
p2414
F0.00014134541993724264
tp2415
(Vbbs.i3estzone.com
p2416
F0.00013579391914830054
tp2417
(Vmoviestudiozen.com
p2418
F0.00012159902720778233
tp2419
(Vfreedvdvideo.com
p2420
F0.00011962463498465174
tp2421
(Vfacebook.com
p2422
F2.4335852352645226e-10
tp2423
tp2424
s((S'ynet.co.il'
p2425
tp2426
(ttp2427
(ts((S'alpha51.com'
p2428
tp2429
(ttp2430
(ts((S'rubyonrails.org'
p2431
tp2432
(ttp2433
((Vapidock.com
p2434
F0.011397494420702052
tp2435
(Vrubygems.org
p2436
F0.008203633250278028
tp2437
(Vgotealeaf.com
p2438
F0.005455874526601032
tp2439
(Vrailstutorial.org
p2440
F0.004871535033275358
tp2441
(Vruby-doc.org
p2442
F0.004805262911288739
tp2443
(Vruby-forum.com
p2444
F0.004490223826882239
tp2445
(Vruby-lang.org
p2446
F0.0032113084093923576
tp2447
(Vbloc.io
p2448
F0.00318059571273871
tp2449
(Vreinteractive.net
p2450
F0.001720967333430777
tp2451
(Vrelishapp.com
p2452
F0.0013700371245817546
tp2453
(Vjira.greenmile.com
p2454
F0.0012420964931221224
tp2455
(Vamberbit.com
p2456
F0.0011787522780099952
tp2457
(Vruby-china.org
p2458
F0.000915150624069657
tp2459
(Vrails.org
p2460
F0.0008464418997255876
tp2461
(Vrailsforzombies.org
p2462
F0.0007531036531073972
tp2463
tp2464
s((S'alpha1.com'
p2465
tp2466
(ttp2467
((Vtheaudience.com
p2468
F0.009694201243497019
tp2469
tp2470
s((S'tutorialspoint.com'
p2471
tp2472
(ttp2473
((Vwiki.python.org
p2474
F0.005812159708003393
tp2475
(Vtutorialpoint.com
p2476
F0.0021775165351430943
tp2477
(Vjavatpoint.com
p2478
F0.001968934012532698
tp2479
(Vhexvolt.blogspot.ru
p2480
F0.0015654524915361316
tp2481
(Verhvervsakademisydvest.sharepoint.com
p2482
F0.0010571098842477162
tp2483
(Vrallydev.com
p2484
F0.0007445860040062963
tp2485
(Vcprogramming.com
p2486
F0.0006934952073382222
tp2487
(Vebooks-it.org
p2488
F0.0006203165820055927
tp2489
(Vmkyong.com
p2490
F0.0005062963910686054
tp2491
(Vlardoors.ru
p2492
F0.00048065709207179333
tp2493
(Vstudytonight.com
p2494
F0.00044009319580119765
tp2495
(Vhomeandlearn.co.uk
p2496
F0.00042920870144858323
tp2497
(Vhub.attask.com
p2498
F0.00041461175045723575
tp2499
(Vfhict.nl
p2500
F0.0003724732036863049
tp2501
(Vbatman.jamk.fi
p2502
F0.00035189190319527444
tp2503
(Vservices.brics.dk
p2504
F0.00034668114031273604
tp2505
(Vjava2s.com
p2506
F0.0003430930183514621
tp2507
(Vncvps.blackboard.com
p2508
F0.00033488728945250517
tp2509
(Vforum-alsacetech.org
p2510
F0.00031760909843814436
tp2511
(Vvogella.com
p2512
F0.0003130399033593343
tp2513
tp2514
s((S'ruby-doc.org'
p2515
tp2516
(ttp2517
((Vruby-lang.org
p2518
F0.013201199696001907
tp2519
(Vruby-forum.com
p2520
F0.008747609502763641
tp2521
(Vrubymonk.com
p2522
F0.0066763845359754164
tp2523
(Vapi.rubyonrails.org
p2524
F0.005878717500206361
tp2525
(Vpine.fm
p2526
F0.0024445864869402467
tp2527
(Vrubydoc.info
p2528
F0.0018924510596828913
tp2529
(Vpb.vanburg.ru
p2530
F0.0016634643017226075
tp2531
(Vcodewars.com
p2532
F0.0013226159920880281
tp2533
(Vfabricationgem.org
p2534
F0.0012286729167879811
tp2535
(Vrubydocs.org
p2536
F0.0012119574037700268
tp2537
(Vapidock.com
p2538
F0.0010269281121975656
tp2539
(Vmootools.net
p2540
F0.0009992932546863443
tp2541
(Vblog.remarkablelabs.com
p2542
F0.0008252490196022697
tp2543
(Valexa.bitmakerlabs.com
p2544
F0.0008213445688254505
tp2545
(Vbloc.io
p2546
F0.0008046723518956768
tp2547
(Vtlk.io
p2548
F0.0008028277194664875
tp2549
(Vit-ebooks-search.info
p2550
F0.0007187965547440323
tp2551
(Vrailstutorial.org
p2552
F0.0006903101397194037
tp2553
(Vget.wynk.in
p2554
F0.000643192538966548
tp2555
(Vhorizon.launchacademy.com
p2556
F0.0006275973357841288
tp2557
tp2558
s((S'cappuccino.org'
p2559
tp2560
(ttp2561
(ts((S'localhost.'
p2562
tp2563
(ttp2564
(ts((S'verou.me'
p2565
tp2566
(ttp2567
(ts((S'sqlite.org'
p2568
tp2569
(ttp2570
(ts((S'rubygems.com'
p2571
tp2572
(ttp2573
((Vzhidao.baidu.com
p2574
F9.603120913604003e-07
tp2575
(Vstackoverflow.com
p2576
F2.3858125400891063e-07
tp2577
(Vgoogle.co.ve
p2578
F6.159460720972399e-08
tp2579
(Vgoogle.com
p2580
F8.21682805205208e-09
tp2581
tp2582
s((S'amazon.com'
p2583
tp2584
(ttp2585
((Vebay.com
p2586
F0.006738821250621747
tp2587
(Vslickdeals.net
p2588
F0.004120650473717563
tp2589
(Vbestbuy.com
p2590
F0.0030788964220882925
tp2591
(Vwalmart.com
p2592
F0.003050477312560511
tp2593
(Vnewegg.com
p2594
F0.002798296769576636
tp2595
(Vnetflix.com
p2596
F0.0024294274563549496
tp2597
(Vreddit.com
p2598
F0.002175753691217573
tp2599
(Vgoogle.com
p2600
F0.001391784985509667
tp2601
(Vhulu.com
p2602
F0.0011102072873126314
tp2603
(Vblackfriday.com
p2604
F0.0008052288786513178
tp2605
(Vus-mg6.mail.yahoo.com
p2606
F0.000766715618933907
tp2607
(Vtarget.com
p2608
F0.0007593360528991675
tp2609
(Ven.wikipedia.org
p2610
F0.0005814582312035169
tp2611
(Vgoodreads.com
p2612
F0.000495839687204871
tp2613
tp2614
s((S'ask.fm'
p2615
tp2616
(ttp2617
((Vapi.twitter.com
p2618
F0.0038719768085425585
tp2619
(Vinstagram.com
p2620
F0.0035201162759656564
tp2621
(Vsprashivai.ru
p2622
F0.0022410229396287156
tp2623
(Vdraugiem.lv
p2624
F0.0016981704734718584
tp2625
(Vosu.ppy.sh
p2626
F0.0011900555365722462
tp2627
(Vvk.com
p2628
F0.0010733686607157825
tp2629
(Vphotoblog.pl
p2630
F0.0009434860247498849
tp2631
(Vfacebook.com
p2632
F0.0007897221642810317
tp2633
(Voauth.vk.com
p2634
F0.0004924653958516431
tp2635
(Vm.vk.com
p2636
F0.000447875040448687
tp2637
(Vficbook.net
p2638
F0.0002781688076100809
tp2639
(Vgoogle.com.eg
p2640
F0.0002763304753074731
tp2641
(Vtumblr.com
p2642
F0.00026120886529040424
tp2643
(Vgoogle.pl
p2644
F0.00022167104852053066
tp2645
(Vplurk.com
p2646
F0.00020680246864649752
tp2647
(Vbezuzyteczna.pl
p2648
F0.00020554866267027548
tp2649
tp2650
s((S'cnet.com'
p2651
tp2652
(ttp2653
((Vpiriform.com
p2654
F0.0159181332633361
tp2655
(Vengadget.com
p2656
F0.004957119390672255
tp2657
(Vslimwareutilities.com
p2658
F0.003871587573190562
tp2659
(Viobit.com
p2660
F0.0037872145729306657
tp2661
(Vdownload.com
p2662
F0.0032494116269419487
tp2663
(Vnews.com
p2664
F0.003161606536054979
tp2665
(Vpcworld.com
p2666
F0.00246452997356243
tp2667
(Vzdnet.com
p2668
F0.0015068331933519455
tp2669
(Vsrshql.com
p2670
F0.0014153353883593963
tp2671
(Vitmedia.co.jp
p2672
F0.0007907186947444716
tp2673
(Vjdownloader.org
p2674
F0.0007338415590572786
tp2675
(Vhrtnvk.com
p2676
F0.0006993263430518632
tp2677
(Vtheverge.com
p2678
F0.0006605099795835987
tp2679
(Vpcmag.com
p2680
F0.0006134526397019363
tp2681
tp2682
s((S'alpha13.com'
p2683
tp2684
(ttp2685
(ts((S'stanford.edu'
p2686
tp2687
(ttp2688
((Vcoursera.org
p2689
F0.019852455480024088
tp2690
(Vstanford-csm.symplicity.com
p2691
F0.004458426814454262
tp2692
(Vstanfordmedicine.app.box.com
p2693
F0.0018394491317772473
tp2694
(Vapplyweb.com
p2695
F0.0014446205046727242
tp2696
(Vpiazza.com
p2697
F0.0010644330063908855
tp2698
(Viep.utm.edu
p2699
F0.0010413909693168268
tp2700
(Vstanford.advantageconnectpro.com
p2701
F0.0007095640595133476
tp2702
(Vtcaps.net
p2703
F0.0005825063085621362
tp2704
(Vpr2hub.com
p2705
F0.0005567977383578872
tp2706
(Vnovoed.com
p2707
F0.0005346102568900386
tp2708
(Varxiv.org
p2709
F0.0005236930349705815
tp2710
(Vsoeithelp.zendesk.com
p2711
F0.0005219860069824124
tp2712
(Vsecure.ecollege.com
p2713
F0.00048109621911784917
tp2714
(Vhcrealms.com
p2715
F0.0004515096805595504
tp2716
(Vfolding.extremeoverclocking.com
p2717
F0.000326207323862356
tp2718
(Vkaggle.com
p2719
F0.00031504072983634115
tp2720
(Vtorgi.gov.ru
p2721
F0.0003127813936584653
tp2722
(Vstanforduniversity.qualtrics.com
p2723
F0.00024404780752231592
tp2724
(Vgrad-schools.usnews.rankingsandreviews.com
p2725
F0.00024230293948811362
tp2726
tp2727
s((S'rubybestpractices.com'
p2728
tp2729
(ttp2730
(ts((S'alpha52.com'
p2731
tp2732
(ttp2733
(ts((S'adobe.com'
p2734
tp2735
(ttp2736
((Vmozilla.org
p2737
F0.015111450175616077
tp2738
(Vapps.facebook.com
p2739
F0.0059619678680743506
tp2740
(Vfilehippo.com
p2741
F0.004900062455243954
tp2742
(Vacrobat.com
p2743
F0.004836207731470023
tp2744
(Vshell.windows.com
p2745
F0.004715263584245032
tp2746
(Vfb1.farm2.zynga.com
p2747
F0.004637787853163249
tp2748
(Vsupport.google.com
p2749
F0.0037578816140994334
tp2750
(Vthanks.freesoftstore.com
p2751
F0.002328482156562959
tp2752
(Vupdate1024.com
p2753
F0.0013898408960056395
tp2754
(Vthanks.freesoftstore2.com
p2755
F0.0013255858152199373
tp2756
(Vowl.english.purdue.edu
p2757
F0.0013105499640232714
tp2758
(Veasyjet.com
p2759
F0.0007198307701079823
tp2760
(Vmacromedia.com
p2761
F0.0006869022921899767
tp2762
(Vsecure.sarsefiling.co.za
p2763
F0.0006844256605296551
tp2764
tp2765
s((S'wikipedia.org'
p2766
tp2767
(ttp2768
((Vencrypted.google.com
p2769
F0.00771525505585607
tp2770
(Vbing.com
p2771
F0.004811910265206266
tp2772
(Vanswers.yahoo.com
p2773
F0.003100154798136046
tp2774
(Vsearch.disconnect.me
p2775
F0.0027486073979923428
tp2776
(Vprinceton.edu
p2777
F0.002546492596888385
tp2778
(Vimdb.com
p2779
F0.0020199007621722297
tp2780
(Vboards.4chan.org
p2781
F0.0011714401370427696
tp2782
(Veksisozluk.com
p2783
F0.001109914847106986
tp2784
(Vduckduckgo.com
p2785
F0.0010408949383171428
tp2786
(Vreddit.com
p2787
F0.000775024669043505
tp2788
(Vwen.lu
p2789
F0.0007574262961416565
tp2790
(Vraterhub.com
p2791
F0.00044425107955377627
tp2792
(Vbaike.baidu.com
p2793
F0.00035421615396662187
tp2794
tp2795
s((S'twitter.com'
p2796
tp2797
(ttp2798
((Vinstagram.com
p2799
F0.009640668836346135
tp2800
(Vfacebook.com
p2801
F0.005754900727130478
tp2802
(Vtumblr.com
p2803
F0.005717088994814716
tp2804
(Vtwitch.tv
p2805
F0.005152529468333346
tp2806
(Vreddit.com
p2807
F0.004914842497878588
tp2808
(Vask.fm
p2809
F0.004444513960399476
tp2810
(Vlinkedin.com
p2811
F0.003428389609628508
tp2812
(Vyoutube.com
p2813
F0.0033467710833313545
tp2814
(Vgoogle.co.jp
p2815
F0.0017641893086358437
tp2816
(Vespn.go.com
p2817
F0.001334680555584708
tp2818
(Vvk.com
p2819
F0.0008567391042836494
tp2820
(Vgoogle.com.tr
p2821
F0.0008184359701507858
tp2822
tp2823
s((S'walmart.com'
p2824
tp2825
(ttp2826
((Vtarget.com
p2827
F0.016191472243672674
tp2828
(Vwww2.onlinecreditcenter6.com
p2829
F0.01191700934366368
tp2830
(Vblackfriday.com
p2831
F0.008828973008072028
tp2832
(Vbestbuy.com
p2833
F0.007051185413925967
tp2834
(Vkmart.com
p2835
F0.004302594970420979
tp2836
(Vtoysrus.com
p2837
F0.004132935890938453
tp2838
(Vsamsclub.com
p2839
F0.003398453827899621
tp2840
(Vhiringcenter.walmartstores.com
p2841
F0.002464230730206549
tp2842
(Vr.befrugal.com
p2843
F0.002102698555986174
tp2844
(Vwalgreens.com
p2845
F0.0018930996132344058
tp2846
(Vshopping.paypal.com
p2847
F0.0012793019201361572
tp2848
(Vkohls.com
p2849
F0.001067534574161307
tp2850
(Vgamestop.com
p2851
F0.00098459925813377
tp2852
(Vamazon.com
p2853
F0.0009239514095817645
tp2854
tp2855
s((S'alpha16.com'
p2856
tp2857
(ttp2858
(ts((S'google.com'
p2859
tp2860
(ttp2861
(ts((S'coursera.org'
p2862
tp2863
(ttp2864
((Vcourses.edx.org
p2865
F0.005682409218958396
tp2866
(Vudacity.com
p2867
F0.0032743153315409304
tp2868
(Vcodeskulptor.org
p2869
F0.002716798767326224
tp2870
(Vedx.org
p2871
F0.002345213620656822
tp2872
(Vmooc.guokr.com
p2873
F0.001304445694573597
tp2874
(Vudemy.com
p2875
F0.0012989515229204602
tp2876
(Vcodecademy.com
p2877
F0.001094793903822028
tp2878
(Vfuturelearn.com
p2879
F0.001069718425067974
tp2880
(Vd396qusza40orc.cloudfront.net
p2881
F0.0009671142040794794
tp2882
(Vmysliderule.com
p2883
F0.0006418503366131907
tp2884
(Vmiriadax.net
p2885
F0.0006400923571775631
tp2886
(Vocw.mit.edu
p2887
F0.0005196729488418822
tp2888
(Vonline.stanford.edu
p2889
F0.0004266295741752318
tp2890
(V1point3acres.com
p2891
F0.00034809050272295626
tp2892
tp2893
s((S'pcworld.com'
p2894
tp2895
(ttp2896
((Vpcmag.com
p2897
F0.0160570091461598
tp2898
(Vmaximumpc.com
p2899
F0.00604172486689136
tp2900
(Vovermanforum.com
p2901
F0.005006690152892461
tp2902
(Vliliputing.com
p2903
F0.003723307465314178
tp2904
(Vcnet.com
p2905
F0.0026935050431359524
tp2906
(Vzdnet.com
p2907
F0.0025231801921726843
tp2908
(Vfreewarefiles.com
p2909
F0.0022220346213923654
tp2910
(Vcomputerworld.com
p2911
F0.002161598910721406
tp2912
(Vtechlife.net
p2913
F0.0011621989063103498
tp2914
(Vextremetech.com
p2915
F0.0010303279710813453
tp2916
(Vsystweak.cleverbridge.com
p2917
F0.0009571076966246342
tp2918
(Vinfo.merrick.com
p2919
F0.0004782695306837402
tp2920
tp2921
s((S'alpha38.com'
p2922
tp2923
(ttp2924
(ts((S'beta3.com'
p2925
tp2926
(ttp2927
((Vsearch.smartshopping.com
p2928
F1.0572516976406806e-07
tp2929
tp2930
s((S'puzzlescript.net'
p2931
tp2932
(ttp2933
(ts((S'cnn.com'
p2934
tp2935
(ttp2936
((Vfoxnews.com
p2937
F0.009751597910114911
tp2938
(Vbbc.com
p2939
F0.005892603475884948
tp2940
(Vespn.go.com
p2941
F0.004059713146900848
tp2942
(Vnbcnews.com
p2943
F0.003469040787817493
tp2944
(Vhuffingtonpost.com
p2945
F0.00279218492106268
tp2946
(Vdrudgereport.com
p2947
F0.0025788851669479645
tp2948
(Vusatoday.com
p2949
F0.002350168276944478
tp2950
(Vnytimes.com
p2951
F0.0021954026682273874
tp2952
(Vtmz.com
p2953
F0.002106953344949263
tp2954
(Vtimesofindia.indiatimes.com
p2955
F0.0008456093331558665
tp2956
(Vcbc.ca
p2957
F0.0007994184819109773
tp2958
(Vweather.com
p2959
F0.0006272870295140185
tp2960
tp2961
s((S'falsepositivecomic.com'
p2962
tp2963
(ttp2964
((Vshawntionary.com
p2965
F0.00950097050911996
tp2966
(Vplox-comic.com
p2967
F0.005055740324931485
tp2968
(Vthezombiehunters.com
p2969
F0.004297320866180845
tp2970
(Vscottystudios.wix.com
p2971
F0.0025771330119156205
tp2972
(Vseiyuucrush.net
p2973
F0.0017266131222597291
tp2974
(Vnucat.org
p2975
F0.0016811228741404173
tp2976
(Vjasoncomic.smackjeeves.com
p2977
F0.0013182548675450094
tp2978
(Vcotn.smackjeeves.com
p2979
F0.001298239001612329
tp2980
(Vbargainbooze.co.uk
p2981
F0.0010663136800691266
tp2982
(Valwaysraininghere.com
p2983
F0.0008211378906814985
tp2984
(V2tamburlaine.tumblr.com
p2985
F0.000757251035862266
tp2986
(Vimaginetheending.net
p2987
F0.0007409582127528695
tp2988
(Vwebhost.iu.edu
p2989
F0.0007157246557888859
tp2990
(Vmushamushcomic.com
p2991
F0.0006893031210474807
tp2992
(Vwebcomicoverlook.com
p2993
F0.0006864773672945343
tp2994
(Vkryzyswieku.blogspot.com
p2995
F0.0005957158940029584
tp2996
(Vemcarroll.com
p2997
F0.00044374567252334447
tp2998
(Vthreepanelsoul.com
p2999
F0.00041635285333750666
tp3000
(Vlimbero.org
p3001
F0.00012929973880895435
tp3002
(Vsmbc-comics.com
p3003
F5.923018782407604e-05
tp3004
tp3005
s((S'similarweb.com'
p3006
tp3007
(ttp3008
(ts((S'alpha22.com'
p3009
tp3010
(ttp3011
(ts((S'atlassian.com'
p3012
tp3013
(ttp3014
((Vjira.com
p3015
F0.0110582821998279
tp3016
(Vbitbucket.org
p3017
F0.0026401263428894994
tp3018
(Vjira.cyanogenmod.org
p3019
F0.0018958918543772686
tp3020
(Vsourcetreeapp.com
p3021
F0.0013459237116806805
tp3022
(Vjira.teamlead.ru
p3023
F0.001188908987341099
tp3024
(Vwiki.chicago.cme.com
p3025
F0.00111977689215232
tp3026
(Vcrucible01.devtools.intel.com
p3027
F0.0009736187067626499
tp3028
(Vapps.xpand-it.com
p3029
F0.0008644577023813694
tp3030
(Vjava.ksfcim.com
p3031
F0.0008094960769124935
tp3032
(Vhipchat.uservoice.com
p3033
F0.000724622647940086
tp3034
(Vadmin.whisper.sh
p3035
F0.0006475412050106695
tp3036
(Vjira.onestop.com
p3037
F0.0005914292084508752
tp3038
(Vgit.popcorntime.io
p3039
F0.000583203811621506
tp3040
(Vissuetracker.marketlive.com
p3041
F0.0005164960213307816
tp3042
(Vclearvision-cm.com
p3043
F0.0005073806099918423
tp3044
(Vsilabs.saasit.com
p3045
F0.000442917956566037
tp3046
(Vstash.roamdata.com
p3047
F0.00043407542392107784
tp3048
(Vjira.cingular.net
p3049
F0.00042415019118044705
tp3050
(Vstash.corp.squareup.com
p3051
F0.0004211129807521637
tp3052
(Vricksoft.jp
p3053
F0.00032455100446937107
tp3054
tp3055
s((S'outlook.com'
p3056
tp3057
(ttp3058
((Vlogin.microsoftonline.com
p3059
F0.00902777041728998
tp3060
(Vmail.office365.com
p3061
F0.00900370815166812
tp3062
(Vlogin.wustl.edu
p3063
F0.004622911009971631
tp3064
(Vprodigy.msn.com
p3065
F0.004168393992927994
tp3066
(Vemail.osu.edu
p3067
F0.003624289186949393
tp3068
(Vt.prodigy.msn.com
p3069
F0.0034305096718851465
tp3070
(Vmy.jh.edu
p3071
F0.003292860959952708
tp3072
(Vqmail.qub.ac.uk
p3073
F0.0021183407644583385
tp3074
(Vmicrosoft.com
p3075
F0.001990757893535988
tp3076
(Vemail.uiowa.edu
p3077
F0.0015376630396296204
tp3078
(Vdur.ac.uk
p3079
F0.0014129783795088712
tp3080
(Vheelmail.unc.edu
p3081
F0.0013699234102888742
tp3082
tp3083
s((S'backbonejs.org'
p3084
tp3085
(ttp3086
((Vunderscorejs.org
p3087
F0.052351910121280675
tp3088
(Vmarionettejs.com
p3089
F0.01424370136249295
tp3090
(Vbackbonetutorials.com
p3091
F0.006810038364064541
tp3092
(Vaddyosmani.github.io
p3093
F0.004809211429000869
tp3094
(Vbeevehoiise11.common.eu.corp.toyota.com
p3095
F0.004788142128728707
tp3096
(Vdocumentcloud.org
p3097
F0.0026306778659092173
tp3098
(V10.208.112.77-88.ip.intelligencecenter.ci.thomsonreuters.com
p3099
F0.0022219787753505202
tp3100
(Vrequirejs.org
p3101
F0.0020999076557443475
tp3102
(Vjaphr.blogspot.fi
p3103
F0.0016169697985974282
tp3104
(Vfirebase.com
p3105
F0.0014982281836227026
tp3106
(Vbackbone.org
p3107
F0.0014645279276855076
tp3108
(Vlocalhost.adobecc.com
p3109
F0.0012817096090566346
tp3110
(Vapidoc.foodie.fm
p3111
F0.0012376678420059123
tp3112
(Vlocalhost.tapjoy.net
p3113
F0.0012325223796979486
tp3114
(Vgenomichealthinc.atlassian.net
p3115
F0.0011981337460055341
tp3116
(Vnumbbbbb.gitbooks.io
p3117
F0.0011629986222364776
tp3118
(Vlocal.gitrgitr.com
p3119
F0.00116160481651569
tp3120
(Vapp.codegrid.net
p3121
F0.0011123608282359511
tp3122
(Vadoreboard.slack.com
p3123
F0.0010289327139506364
tp3124
(Vlocal-geen.io
p3125
F0.0009993663128491023
tp3126
tp3127
s((S'blogspot.com'
p3128
tp3129
(ttp3130
((Vassemblagemagazine.blogspot.co.uk
p3131
F0.006541988631317168
tp3132
(Vm5newsroom.blogspot.com
p3133
F0.004036872954197155
tp3134
(Vynotdownload.blogspot.fr
p3135
F0.0022117442599623263
tp3136
(Vmthplay.blogspot.com
p3137
F0.0020413221935465056
tp3138
(Vhamidrezashaabani.blogspot.com
p3139
F0.0019204729711661645
tp3140
(Vaufannada.blogspot.com
p3141
F0.0017903645833333333
tp3142
(Vbpi.fr
p3143
F0.0017869947498546654
tp3144
(Vesmor.blogspots.com
p3145
F0.00178335979137614
tp3146
(Vnasirabdulsattar.blogspot.com
p3147
F0.0015214354157980588
tp3148
(Vblogdauyeu.blogspot.com
p3149
F0.0015159288469955333
tp3150
(Vnetnam.vn
p3151
F0.0015090202188512115
tp3152
(Vncngame.blogspot.com
p3153
F0.0015063179670179727
tp3154
(Vm88vn.com
p3155
F0.001409084418436105
tp3156
(Vmncshop.co.id
p3157
F0.001362530038324371
tp3158
(Vmywardrobesl.blogspot.com
p3159
F0.0011306262301520825
tp3160
(Vshishology.blogspot.com
p3161
F0.0010837903091795939
tp3162
(Vkaka1951989.blogspot.com
p3163
F0.0010813764505062807
tp3164
(Vblogspots.com
p3165
F0.0010752472369247685
tp3166
(Vapp-vn.blogspot.com
p3167
F0.0010721612178382198
tp3168
(Vchoukngok.blogspot.com
p3169
F0.0010719783990852125
tp3170
tp3171
s((S'lifehacker.com'
p3172
tp3173
(ttp3174
(ts((S'gunnerkrigg.com'
p3175
tp3176
(ttp3177
((Vgirlgeniusonline.com
p3178
F0.009439667585454191
tp3179
(Vgirlswithslingshots.com
p3180
F0.009242892028943898
tp3181
(Vegscomics.com
p3182
F0.008097774648821466
tp3183
(Vscarygoround.com
p3184
F0.007006660582019215
tp3185
(Vgoblinscomic.org
p3186
F0.0069128804380564
tp3187
(Vquestionablecontent.net
p3188
F0.006064958164520688
tp3189
(Vguildedage.net
p3190
F0.005891175040168326
tp3191
(Vgogetaroomie.com
p3192
F0.0045087328783180855
tp3193
(Vsupernormalstep.com
p3194
F0.003742736516816444
tp3195
(Vdrmcninja.com
p3196
F0.003242028162921399
tp3197
(Vsandraandwoo.com
p3198
F0.00268718274817688
tp3199
(Vparanatural.net
p3200
F0.0019068338045492997
tp3201
(Vmonster-pulse.com
p3202
F0.00151062492454559
tp3203
tp3204
s((S'beta1.com'
p3205
tp3206
(ttp3207
(ts((S'bankrate.com'
p3208
tp3209
(ttp3210
((Vmortgagecalculator.org
p3211
F0.003674986761427938
tp3212
(Vbanrate.com
p3213
F0.0024237581029067125
tp3214
(Voptimalblue.com
p3215
F0.0014267289259495735
tp3216
(Vquickenloans.com
p3217
F0.0012738188802054122
tp3218
(Vw3.kubotalink.com
p3219
F0.001263829190928985
tp3220
(Vhsh.com
p3221
F0.0012327096241926128
tp3222
(Vfreddiemac.com
p3223
F0.0011495189740705278
tp3224
(Vmortgagenewsdaily.com
p3225
F0.00083906765896721
tp3226
(Vdealerdaily.toyota.com
p3227
F0.000807919706891282
tp3228
(Vbakrate.com
p3229
F0.000734880820206442
tp3230
(Vjobs.alpineaccess.com
p3231
F0.0006636771653698376
tp3232
(Vuiccu.mortgagewebcenter.com
p3233
F0.0005437095103291574
tp3234
(Vlendingtree.com
p3235
F0.0005310374295979765
tp3236
(Vcreditcards.com
p3237
F0.0005299372151525152
tp3238
(Vfranklinfirstfinancial.com
p3239
F0.0005052295897674785
tp3240
(Vfreemoneyfinance.com
p3241
F0.0004901845049979707
tp3242
(Vfoundationsu.com
p3243
F0.0004821683800864459
tp3244
(Vtrc.taboola.com
p3245
F0.00047723627944017615
tp3246
(Vcrm.studentloanhelp.info
p3247
F0.0004618004691505321
tp3248
(Vnerdwallet.com
p3249
F0.00043990024211160443
tp3250
tp3251
s((S'msglabs.com'
p3252
tp3253
(ttp3254
(ts((S'documentcloud.org'
p3255
tp3256
(ttp3257
((Voverviewproject.org
p3258
F0.016864721713952733
tp3259
(Via802308.us.archive.org
p3260
F0.008969799584432248
tp3261
(Varchive.washingtonexaminer.com
p3262
F0.008728202961815578
tp3263
(Vwordpress.homicidewatch.org
p3264
F0.008579839338528761
tp3265
(Vfirstlook.org
p3266
F0.004186146588367352
tp3267
(Vpdfs.citizenaudit.org
p3268
F0.0038242057149266706
tp3269
(Vmuckrock.com
p3270
F0.00319673978134861
tp3271
(Vreachhighscholars.org
p3272
F0.003190600556545994
tp3273
(Vecf.nvd.uscourts.gov
p3274
F0.003029754058933402
tp3275
(Vaccessnow.org
p3276
F0.0029524113896117732
tp3277
(Vdeldot.gov
p3278
F0.0024584160197484305
tp3279
(Vopensecrets.org
p3280
F0.002367255616185052
tp3281
(Vindustriall-union.org
p3282
F0.002184680624586885
tp3283
(Vanticorrupcion.gov.ar
p3284
F0.002086822626830191
tp3285
(Vkettlecorn-edit.innovation-series.com
p3286
F0.0018271097407788056
tp3287
(Vfrontaalnaakt.nl
p3288
F0.0017486338797814208
tp3289
(Vnsa.gov1.info
p3290
F0.001721114951150708
tp3291
(Vapps.washingtonpost.com
p3292
F0.0016664891368960695
tp3293
(Vkabindc.us3.list-manage.com
p3294
F0.0016490967265829597
tp3295
(Vspineblogger.blogspot.com
p3296
F0.0016313643635175272
tp3297
tp3298
s((S'labnol.org'
p3299
tp3300
(ttp3301
((Vdictation.io
p3302
F0.053638048227418224
tp3303
(Vshoutmeloud.com
p3304
F0.006330967493765026
tp3305
(Vchandigarh.craigslist.co.in
p3306
F0.005956020018352308
tp3307
(Vctrlq.org
p3308
F0.003126295253718603
tp3309
(Vsoftwarerecs.stackexchange.com
p3310
F0.0024987468507650713
tp3311
(Vwarriorbreak.com
p3312
F0.0018003759225045986
tp3313
(Vdavidwalsh.name
p3314
F0.0017453391136774254
tp3315
(Vchillingeffects.org
p3316
F0.0010805928441890496
tp3317
(Vbocktherobber.com
p3318
F0.0010176242920439393
tp3319
(Vdeadurl.com
p3320
F0.0009012318677442234
tp3321
(Vcrack-net.com
p3322
F0.0008675788308667134
tp3323
(Vacessotop.semanatopenem.com
p3324
F0.0008457425669831452
tp3325
(Vplaytool.com
p3326
F0.000833971133323157
tp3327
(Vblog.teamtreehouse.com
p3328
F0.0007845697379048289
tp3329
(Vscript.google.com
p3330
F0.000775616447790688
tp3331
(Vcurso.aspasl.com
p3332
F0.0007295140509111274
tp3333
(Vmuro.sk
p3334
F0.0007203143020910928
tp3335
(Vdigitalhubinc.com
p3336
F0.0006249173569437375
tp3337
(Vmeteoalarm.eu
p3338
F0.0006155205087474934
tp3339
(Vbazqux.com
p3340
F0.0006142111911626334
tp3341
tp3342
s((S'microsoft.com'
p3343
tp3344
(ttp3345
((Vaccount.live.com
p3346
F0.03392699089457
tp3347
(Vsupport.skype.com
p3348
F0.0035348837961288793
tp3349
(Vsupport.google.com
p3350
F0.0034552858349033064
tp3351
(Vaz307127.vo.msecnd.net
p3352
F0.0022238317607300075
tp3353
(Vbing.com
p3354
F0.0021814967174457966
tp3355
(Vinsider.windows.com
p3356
F0.0020978542030613587
tp3357
(Vsupport.mozilla.org
p3358
F0.0014405952463219156
tp3359
(Vshell.windows.com
p3360
F0.0009299673249284091
tp3361
(Vwunderlist.com
p3362
F0.000919005584821735
tp3363
(Vsupport.office.com
p3364
F0.0008910745265042753
tp3365
(Vmozilla.org
p3366
F0.0008072399269828862
tp3367
(Voffice.com
p3368
F0.0007969000993079764
tp3369
(Vportal.office.com
p3370
F0.0005823095407318863
tp3371
(Vjava.com
p3372
F0.0005101489984820142
tp3373
(Vmystartsearch.com
p3374
F0.0004853991371988819
tp3375
(Vmicrosoftstore.com
p3376
F0.0004429218660199628
tp3377
(Viegallery.com
p3378
F0.00043285860820947095
tp3379
tp3380
s((S'sitepoint.com'
p3381
tp3382
(ttp3383
((Vlearnable.com
p3384
F0.003775512545387916
tp3385
(Vtutsplus.com
p3386
F0.0018674564890191878
tp3387
(Vjquery4u.com
p3388
F0.0015746334577439493
tp3389
(Vsmashingmagazine.com
p3390
F0.0015285013069617425
tp3391
(Vphpdeveloper.org
p3392
F0.0009926448925364107
tp3393
(Vaskleo.com
p3394
F0.0007617632740019425
tp3395
(Vrockettheme.com
p3396
F0.0006841783339726206
tp3397
(Vohio.edu
p3398
F0.0006826065234712008
tp3399
(Vbaymard.com
p3400
F0.0005839645071941564
tp3401
(Vwfvrj.petrobras.com.br
p3402
F0.000577655622686037
tp3403
(Vflukeout.github.io
p3404
F0.0005158523372684569
tp3405
(Vcodeguide.hu
p3406
F0.0005057804575627206
tp3407
(Vdocs.angularjs.org
p3408
F0.0005039753917788309
tp3409
(Vrubyflow.com
p3410
F0.00047607335651278954
tp3411
(Vsocial.tesisquare.com
p3412
F0.0004735965093608097
tp3413
(Vmobility.synovus.com
p3414
F0.00046856522119488223
tp3415
(Vorder.sitepointmedia.com
p3416
F0.0004548368673123083
tp3417
(Vmanagewp.org
p3418
F0.00035966640079505813
tp3419
(Vapp.emailmeform.com
p3420
F0.0002865970293783667
tp3421
(Vhealthclubsystems.com
p3422
F0.0002705686531720551
tp3423
tp3424
s((S'alpha47.com'
p3425
tp3426
(ttp3427
(ts((S'beta8.com'
p3428
tp3429
(ttp3430
(ts((S'history.com'
p3431
tp3432
(ttp3433
((Vaetv.com
p3434
F0.00798236133012671
tp3435
(Vthisdayinrock.com
p3436
F0.0037971496161920237
tp3437
(Vhistorynet.com
p3438
F0.0030760712668171076
tp3439
(Vdiscovery.com
p3440
F0.0021861770845481867
tp3441
(Von-this-day.com
p3442
F0.001472630734754977
tp3443
(Vtravelchannel.com
p3444
F0.001415992886466294
tp3445
(Vbiography.com
p3446
F0.0013597998334544566
tp3447
(Vunileverpc.com
p3448
F0.0012406136238727436
tp3449
(Voptimum.net
p3450
F0.0010563923348507547
tp3451
(Vdailyupliftingquotes.com
p3452
F0.000970086295744522
tp3453
(Vtodayinliterature.com
p3454
F0.0007611890843539773
tp3455
(Vmylifetime.com
p3456
F0.0007440318299485829
tp3457
(Vactivate.fox.com
p3458
F0.000740355482017051
tp3459
(Vwatchtveverywhere.com
p3460
F0.0007079766794187768
tp3461
(Vhistoryorb.com
p3462
F0.0006006680921527825
tp3463
(Vnationaldaycalendar.com
p3464
F0.0005802684968778012
tp3465
(Vushistory.org
p3466
F0.000472393245433172
tp3467
(Vmail.colton.k12.ca.us
p3468
F0.00046702853469422615
tp3469
(Vmyhatchets.haikulearning.com
p3470
F0.00035607368402211693
tp3471
tp3472
s((S'alpha33.com'
p3473
tp3474
(ttp3475
(ts((S'andismith.com'
p3476
tp3477
(ttp3478
(ts((S'alpha20.com'
p3479
tp3480
(ttp3481
(ts((S'scrum.com.ar'
p3482
tp3483
(ttp3484
((Vperiodismo-rugby.com.ar
p3485
F0.025796327659289454
tp3486
(Vmeroarte.com
p3487
F0.020779018638857543
tp3488
(Vmizuno-git.com
p3489
F0.010703333266521016
tp3490
(Vsvbconnect.com
p3491
F0.0005023683752522426
tp3492
(Vrugbytime.com
p3493
F0.00038868612429404886
tp3494
(Vsantanderrio.com.ar
p3495
F0.0001372765208905704
tp3496
(Vcuevana2.tv
p3497
F2.4933756285792956e-05
tp3498
(Vfacebook.com
p3499
F4.998209297404983e-09
tp3500
(Vyoutube.com
p3501
F9.217594026954177e-10
tp3502
tp3503
s((S'jasonseifer.com'
p3504
tp3505
(ttp3506
((Vauto.pubtest.internal.33across.com
p3507
F0.01332036660478001
tp3508
(Vjuanpabloprado.com
p3509
F0.007676274719129683
tp3510
(Vpichost.me
p3511
F0.00024074733939569222
tp3512
(Vteamtreehouse.com
p3513
F0.00023630208318629474
tp3514
(Vmartinfowler.com
p3515
F8.655217132744378e-05
tp3516
(Vraindrop.io
p3517
F2.303324849420138e-05
tp3518
(Vdigitalocean.com
p3519
F5.704592440587661e-06
tp3520
(Vencrypted.google.com
p3521
F2.6578255453102915e-06
tp3522
(Vpivotaltracker.com
p3523
F8.601690807198737e-07
tp3524
(Vstackoverflow.com
p3525
F7.90829840897358e-07
tp3526
(Vb.hatena.ne.jp
p3527
F3.9690572298361973e-07
tp3528
(Vgithub.com
p3529
F8.47725944524667e-08
tp3530
tp3531
s((S'machonora.co.il'
p3532
tp3533
(ttp3534
(ts((S'facebook.com'
p3535
tp3536
(ttp3537
(ts((S'julesbassoleil.fr'
p3538
tp3539
(ttp3540
((Vmfglabs.com
p3541
F0.06930551993388619
tp3542
(Vfliparts.fr
p3543
F0.027576197387518143
tp3544
(Vrsq.com
p3545
F0.019235831787487525
tp3546
(Vlaccelerateur.fr
p3547
F0.014774281805745554
tp3548
(Vdiplomatic-cover.com
p3549
F0.011182695842281425
tp3550
(Vannapaschenko.com
p3551
F0.01054682251780196
tp3552
(Vjulienrenau.com
p3553
F0.007112043838171854
tp3554
(Vbrianhoffdesign.com
p3555
F0.003504240331553331
tp3556
(Vfreelanceboost.fr
p3557
F0.003371838901030284
tp3558
(Vlausive.com
p3559
F0.003311141639367361
tp3560
(Vvenablesbell.com
p3561
F0.0029276076173297724
tp3562
(Vwaterloo-lefilm.com
p3563
F0.0027279919251439015
tp3564
(Vjakobdeboer.com
p3565
F0.0023453037637434803
tp3566
(Vbrightmedia.pl
p3567
F0.0019019578754369748
tp3568
(Vit.delta.com
p3569
F0.0012942844947471325
tp3570
(Vslvczch.com
p3571
F0.0011393832191958185
tp3572
(Vbluemind.smile.fr
p3573
F0.00045074966786866577
tp3574
(Vabduzeedo.com
p3575
F2.4184136077362148e-05
tp3576
(Vbehance.net
p3577
F1.784868078167837e-05
tp3578
tp3579
s((S'indeed.co.uk'
p3580
tp3581
(ttp3582
((Vreed.co.uk
p3583
F0.007551023258455808
tp3584
(Vjobsearch.direct.gov.uk
p3585
F0.0074285285141728885
tp3586
(Vtotaljobs.com
p3587
F0.004399985156590478
tp3588
(Vjobsite.co.uk
p3589
F0.0026398316773385434
tp3590
(Vcv-library.co.uk
p3591
F0.0025157620684936673
tp3592
(Vjobserve.com
p3593
F0.0021081594295021366
tp3594
(Vjobs.nhs.uk
p3595
F0.0015136946095344126
tp3596
(Vjobungo.co.uk
p3597
F0.0011398205906452575
tp3598
(Vauthenticate.gateway.gov.uk
p3599
F0.0007607568225484147
tp3600
(Vjobisjob.co.uk
p3601
F0.0007238689263648472
tp3602
(Vjobcentreonline.com
p3603
F0.0006817377902423003
tp3604
(Vjobsearch.monster.co.uk
p3605
F0.0006781400208014607
tp3606
(Vjobs.theguardian.com
p3607
F0.0006133851783022966
tp3608
(Vjobs.ac.uk
p3609
F0.0005740486767745149
tp3610
(Vuk.jobtome.com
p3611
F0.0005550164130416623
tp3612
(Vjobplacements.com
p3613
F0.0005524432427902872
tp3614
tp3615
s((S'voormedia.com'
p3616
tp3617
(ttp3618
(ts((S'rubygems.org'
p3619
tp3620
(ttp3621
((Vruby-toolbox.com
p3622
F0.01206055779836604
tp3623
(Vpages.github.com
p3624
F0.004997034254860121
tp3625
(Vrubyonrails.org
p3626
F0.00481526387462105
tp3627
(Vdevelopers.openshift.com
p3628
F0.0023178570882459487
tp3629
(Vbundler.io
p3630
F0.0017670028284599824
tp3631
(Vinstallationpage.com
p3632
F0.0016151346055828053
tp3633
(Vomniref.com
p3634
F0.0015108649549913557
tp3635
(Vgemcutter.org
p3636
F0.0014802196734265347
tp3637
(Vmiddlemanapp.com
p3638
F0.0012486029365913092
tp3639
(Vpooreffort.com
p3640
F0.0009912181331515474
tp3641
(V55f84d03.ngrok.com
p3642
F0.000945100112700561
tp3643
(Vrubygems.globoi.com
p3644
F0.0008163334867154081
tp3645
(Vrailstutorial.org
p3646
F0.0007530830774446386
tp3647
(Vrollbar.com
p3648
F0.0007483487605642157
tp3649
(Vpaularmstrong.github.io
p3650
F0.000741369433165859
tp3651
(Vweblog.rubyonrails.org
p3652
F0.0007152577482385617
tp3653
(Vapp.zencoder.com
p3654
F0.0006750962082566099
tp3655
(Vrubydoc.info
p3656
F0.0006634105078797862
tp3657
(Vrelishapp.com
p3658
F0.0005654509471303364
tp3659
(Vruby-china.org
p3660
F0.000540025247740669
tp3661
tp3662
s((S'google.co.uk'
p3663
tp3664
(ttp3665
((Vbbc.co.uk
p3666
F0.015803661828799845
tp3667
(Vuk.search.yahoo.com
p3668
F0.015624271888821255
tp3669
(Vamazon.co.uk
p3670
F0.009254315963283003
tp3671
(Vebay.co.uk
p3672
F0.008528257560579584
tp3673
(Ven.wikipedia.org
p3674
F0.004255091317020974
tp3675
(Vreddit.com
p3676
F0.003980648583379911
tp3677
(Vdailymail.co.uk
p3678
F0.0038733698459187693
tp3679
(Vsearch.safefinder.com
p3680
F0.0028345322202820732
tp3681
(Vyoutube.com
p3682
F0.00276943281382409
tp3683
(Vtwitter.com
p3684
F0.002499320864991151
tp3685
(Vuk.msn.com
p3686
F0.0014519535531925948
tp3687
(Vaccounts.youtube.com
p3688
F0.0014106376960693401
tp3689
(Vtheguardian.com
p3690
F0.0012393448640209122
tp3691
(Vcr2.gogorithm.com
p3692
F0.001229652212371702
tp3693
tp3694
s((S'requirejs.org'
p3695
tp3696
(ttp3697
((Vwappalyzer.com
p3698
F0.0037082126117614737
tp3699
(Vstaging.dev.oned.io
p3700
F0.002827167425707572
tp3701
(Vportal.ektron.com
p3702
F0.002355555658337682
tp3703
(Vlbo.vdevos.nl
p3704
F0.0011252196055437217
tp3705
(Vdamoqiongqiu.iteye.com
p3706
F0.001117967783007777
tp3707
(Vdoslaps125.deploy.financecorp.biz
p3708
F0.0010620175590966298
tp3709
(Vgame.9128.com
p3710
F0.0010277977397889887
tp3711
(Vguru.co.il
p3712
F0.00100728681764324
tp3713
(Vmakingmobile.org
p3714
F0.000996447516824288
tp3715
(Vreinteractive.net
p3716
F0.0009013781461770697
tp3717
(Vhealthcare.in
p3718
F0.0008951206726893166
tp3719
(Vshiftcph.dk
p3720
F0.0008815039462145572
tp3721
(Vblog.singuerinc.com
p3722
F0.0008769996510367881
tp3723
(Vmobi.dstv.com
p3724
F0.0008554399471858814
tp3725
(Vnerdpress.nerderylabs.com
p3726
F0.000844463382913654
tp3727
(Vgrchamb.pbndev.net
p3728
F0.0008197895693896392
tp3729
(Vdvdmkaur.paychex.com
p3730
F0.0007977942718161614
tp3731
(Vchina-herb-co.myshopify.com
p3732
F0.0007804671931999872
tp3733
(Vgallery.pricefluence.com
p3734
F0.0007614721647613261
tp3735
(Vmethod.com
p3736
F0.0007578657700992548
tp3737
tp3738
s((S'reddit.com'
p3739
tp3740
(ttp3741
(ts((S'alpha9.com'
p3742
tp3743
(ttp3744
(ts((S'apidoc.com'
p3745
tp3746
(ttp3747
((Vapi.doc.com
p3748
F0.1111111111111111
tp3749
(Vapi.gehealthcare.com
p3750
F0.009782125389061804
tp3751
(Vapidock.com
p3752
F3.2379614904614277e-05
tp3753
tp3754
s((S'i24news.tv'
p3755
tp3756
(ttp3757
((Vrennes.lachainemeteo.com
p3758
F0.00468292644909776
tp3759
(Vlemondejuif.info
p3760
F0.004387935309231987
tp3761
(Vjssnews.com
p3762
F0.004164640288025922
tp3763
(Vleptithebdo.net
p3764
F0.003098776616004658
tp3765
(Vtimesofisrael.com
p3766
F0.002711492216534628
tp3767
(Valyaexpress-news.com
p3768
F0.002571403163151315
tp3769
(Vradiosefarad.com
p3770
F0.0025062700028492934
tp3771
(Visraelvalley.com
p3772
F0.0022872080752209477
tp3773
(Valgemeiner.com
p3774
F0.0019501566945073706
tp3775
(Vwebmail.iol.ie
p3776
F0.0019231524746251595
tp3777
(Vdesinfos.com
p3778
F0.0017560327406442066
tp3779
(Vlive365.com
p3780
F0.0016302625895597536
tp3781
(Vautoplus.fr
p3782
F0.0012783939244758692
tp3783
(Vaustriafans.at
p3784
F0.0012205558921185196
tp3785
(Vynetnews.com
p3786
F0.0010145643134756922
tp3787
(Vactualite-israel.com
p3788
F0.0009098184680634319
tp3789
(Vforward.com
p3790
F0.0008924053363877785
tp3791
(Vevoncomics.com
p3792
F0.0008790989236033066
tp3793
(Vinformazionecorretta.com
p3794
F0.0008390774330948237
tp3795
(Vterredisrael.com
p3796
F0.0008049931824395568
tp3797
tp3798
s((S'alpha39.com'
p3799
tp3800
(ttp3801
(ts((S'tumblr.com'
p3802
tp3803
(ttp3804
((Vtwitter.com
p3805
F0.006112085907840489
tp3806
(Vinstagram.com
p3807
F0.004753110717257154
tp3808
(Vdeviantart.com
p3809
F0.003922446936560615
tp3810
(Vask.fm
p3811
F0.003470243156408712
tp3812
(Vpinterest.com
p3813
F0.002934967373398064
tp3814
(Varchiveofourown.org
p3815
F0.0028338961221619067
tp3816
(Vreddit.com
p3817
F0.002459523813375636
tp3818
(Vbuzzfeed.com
p3819
F0.0020751790462780494
tp3820
(Vboards.4chan.org
p3821
F0.0014313565391646883
tp3822
(Vnetflix.com
p3823
F0.001311766682809538
tp3824
(Vminecraft.net
p3825
F0.0010887049928781042
tp3826
(Vfanfiction.net
p3827
F0.0007048296964225392
tp3828
tp3829
s((S'beta4.com'
p3830
tp3831
(ttp3832
(ts((S'codemiles.com'
p3833
tp3834
(ttp3835
((Vcandidjava.com
p3836
F0.00555303145035085
tp3837
(Vanirudh.net
p3838
F0.003933383546740313
tp3839
(Vrajasthanimusic.blogspot.in
p3840
F0.002901147659883101
tp3841
(Vhikeyourskills.blogspot.in
p3842
F0.002823099597293146
tp3843
(Vjavascript.about.com
p3844
F0.0008275234292570908
tp3845
(Vodessa.tv
p3846
F0.0007948766586275733
tp3847
(Vjava-examples.com
p3848
F0.0007305135510263716
tp3849
(Vwebreference.com
p3850
F0.000664298518512884
tp3851
(Velectrofriends.com
p3852
F0.0005428881650380022
tp3853
(Ven.pudn.com
p3854
F0.000377935250798944
tp3855
(Vmathworks.in
p3856
F0.00035664545016725894
tp3857
(Vroseindia.net
p3858
F0.00023504362133089994
tp3859
(Vtalkera.org
p3860
F0.0002318840579710145
tp3861
(Vivaynberg.github.io
p3862
F0.00010179484673767876
tp3863
(Vtranslate.google.co.in
p3864
F1.4364388726789423e-06
tp3865
(Vwordpress.org
p3866
F7.902774004861755e-07
tp3867
(Vbing.com
p3868
F3.6619674782068587e-07
tp3869
(Vgoogle.co.in
p3870
F8.654867195286331e-08
tp3871
(Vsearch.yahoo.com
p3872
F1.061022342013635e-08
tp3873
tp3874
s((S'ruby-lang.org'
p3875
tp3876
(ttp3877
((Vcas-01.uni.ad.sunderland.ac.uk
p3878
F0.012872928541706572
tp3879
(Vref.xaio.jp
p3880
F0.004998883713543663
tp3881
(Vrubyforge.org
p3882
F0.003566180092713265
tp3883
(Vguides.ruby.tw
p3884
F0.0033659435810147755
tp3885
(Vopenshift.com
p3886
F0.003261580787297741
tp3887
(Vjemmywalker.pixnet.net
p3888
F0.0028971000803575207
tp3889
(Vblade.nagaokaut.ac.jp
p3890
F0.0024790205130732737
tp3891
(Vruby-auf-schienen.de
p3892
F0.0022711603195847024
tp3893
(Vrubyclub.blogspot.com
p3894
F0.0021561004694637754
tp3895
(Vhelp.rallydev.com
p3896
F0.002068458282306121
tp3897
(Vruby-doc.com
p3898
F0.0019892545575918353
tp3899
(Vrailsdoc.com
p3900
F0.0019050279129559802
tp3901
(Vtheadmin.org
p3902
F0.0019036383809625046
tp3903
(Vbebo.com
p3904
F0.0018038020923432463
tp3905
(Vpine.fm
p3906
F0.001572538640588942
tp3907
(Vsldn.softlayer.com
p3908
F0.0015296219648572567
tp3909
(Vrubyinstaller.org
p3910
F0.0015030799755354062
tp3911
(Vfoad.simplon.co
p3912
F0.0014549651702471815
tp3913
(Vrusrails.ru
p3914
F0.001415963079495097
tp3915
(Vcharliewaite.me
p3916
F0.001348086772597759
tp3917
tp3918
s((S'technion.ac.il'
p3919
tp3920
(ttp3921
(ts((S'alpha15.com'
p3922
tp3923
(ttp3924
((Vmail.midco.net
p3925
F9.645216776247045e-05
tp3926
(Vinvest.ameritrade.com
p3927
F2.2621790287289574e-05
tp3928
(Vnews.newsmax.com
p3929
F9.012522674943768e-06
tp3930
(Vgoogle.com
p3931
F2.344631383637394e-09
tp3932
tp3933
s((S'glassdoor.com'
p3934
tp3935
(ttp3936
((Vindeed.com
p3937
F0.0020888319946258042
tp3938
(Vjobs.ziprecruiter.com
p3939
F0.0018474986655029457
tp3940
(Vsimplyhired.com
p3941
F0.0015886166925014825
tp3942
(Vswz.salary.com
p3943
F0.0015250716176390244
tp3944
(Vjobs2careers.com
p3945
F0.0010332999864694832
tp3946
(Vodin.p11a.com
p3947
F0.0009761078260616792
tp3948
(Vbasf.taleo.net
p3949
F0.0008737094500967604
tp3950
(Vcareerbuilder.com
p3951
F0.0007796279744609165
tp3952
(Vpayscale.com
p3953
F0.0007454642919861746
tp3954
(Vdice.com
p3955
F0.0007027245386396437
tp3956
(Vch.tbe.taleo.net
p3957
F0.0006940896445040778
tp3958
(Vjobview.monster.com
p3959
F0.0005404654826050971
tp3960
(Vtrack.zipalerts.com
p3961
F0.0005135119943009799
tp3962
(Vglassdoor.my.salesforce.com
p3963
F0.000440727954961294
tp3964
(Vhire.jobvite.com
p3965
F0.00042620531244257363
tp3966
(Vvisitingangels.com
p3967
F0.00042375242463975365
tp3968
(Vmember.theladders.com
p3969
F0.0003906612429864099
tp3970
(Vjobsearch.monster.com
p3971
F0.00038736581094402095
tp3972
tp3973
s((S'alpha.com'
p3974
tp3975
(ttp3976
((Vflashmusictracks.com
p3977
F0.03084234066343645
tp3978
(Vveexinc.com
p3979
F0.02566152206439976
tp3980
(Valphayouthfilmseries.com
p3981
F0.01272843204485028
tp3982
(Valphagame.com
p3983
F0.012381591705825314
tp3984
(Vbedsdirect-ardmore.com
p3985
F0.007470136665633929
tp3986
(Vkk-alpha.com
p3987
F0.007401414359343161
tp3988
(Valphagroup.com
p3989
F0.007136390264685519
tp3990
(Vwearealpha.ca
p3991
F0.005797101449275362
tp3992
(Valfa.com
p3993
F0.004664162782205082
tp3994
(Vteluguweb.in
p3995
F0.003982892274792836
tp3996
(Vnoram-eng.com
p3997
F0.00393360081818897
tp3998
(Veshre.eu
p3999
F0.0037174721189591076
tp4000
(Vnewsumontheweb.org
p4001
F0.0036302495318888766
tp4002
(Vcheck-alpha.com
p4003
F0.0031749589122964292
tp4004
(Valfa-chemistry.com
p4005
F0.002835487213043241
tp4006
(Vsolarpowerrocks.com
p4007
F0.002806772470347807
tp4008
(Vkerryexpress.com
p4009
F0.0027217594622241706
tp4010
(Vlkp.com
p4011
F0.002395657870110425
tp4012
(Vcroline.com
p4013
F0.0017521257407884566
tp4014
(Vaksci.com
p4015
F0.0016539834760689266
tp4016
tp4017
s((S'scirra.com'
p4018
tp4019
(ttp4020
((Vc2community.ru
p4021
F0.007406235634299808
tp4022
(Vforums.tigsource.com
p4023
F0.006516674763500749
tp4024
(Vschwer-muta.blogspot.com
p4025
F0.0023252657005772242
tp4026
(Vwayofthepixel.net
p4027
F0.001771588111111012
tp4028
(Vblog.rubukkit.org
p4029
F0.001722506455389649
tp4030
(Vgamedev.ru
p4031
F0.00155671710308373
tp4032
(Velm-lang.org
p4033
F0.001454633678371806
tp4034
(Vkaamelott.co
p4035
F0.0014379499425883405
tp4036
(Vapp.mopub.com
p4037
F0.0013974901440273661
tp4038
(Vgame.9128.com
p4039
F0.001325856745272391
tp4040
(Vbases-hacking.org
p4041
F0.0012120643217503788
tp4042
(Va710594.byethost24.com
p4043
F0.0011639507815098104
tp4044
(Vyoyogames.com
p4045
F0.0010952749740584789
tp4046
(Vforums.wasabistudio.ca
p4047
F0.0010359152424912791
tp4048
(Velbitcoin.org
p4049
F0.0010213289204327799
tp4050
(Vstencyl.com
p4051
F0.0009509958272804534
tp4052
(Vfilmin.es
p4053
F0.000825167958358985
tp4054
(Vwowgame.jp
p4055
F0.0007702468672979726
tp4056
(Vcollaboration.swisscom.com
p4057
F0.0007476651600406859
tp4058
(Vfpl78.free.fr
p4059
F0.000719450980093071
tp4060
tp4061
s((S'chromium.org'
p4062
tp4063
(ttp4064
((Vdeveloper.chrome.com
p4065
F0.022100752027343448
tp4066
(Vjohnlewis.ie
p4067
F0.008052545533720222
tp4068
(Vimperialviolet.org
p4069
F0.004177426369874129
tp4070
(Vdownload-chromium.appspot.com
p4071
F0.004009500944262519
tp4072
(Vscotthelme.co.uk
p4073
F0.003532999099854658
tp4074
(Vcode.google.com
p4075
F0.002697460919000486
tp4076
(Vchromium.googlesource.com
p4077
F0.0020873460363834335
tp4078
(Vproductforums.google.com
p4079
F0.001335644399033382
tp4080
(Vwiki.archlinux.org
p4081
F0.0012934590063155952
tp4082
(Vkb.sitecore.net
p4083
F0.001156154586531049
tp4084
(Vblogmicrosoftbrasil.com.br
p4085
F0.0010548510155260927
tp4086
(Vexample.com
p4087
F0.0003803379258623619
tp4088
(Vdownloads.yahoo.com
p4089
F0.00034267692060830046
tp4090
(Vjava.com
p4091
F0.00031751464182818584
tp4092
(Vminutoms.com.br
p4093
F0.00029505951595761227
tp4094
(Vmattcutts.com
p4095
F0.0002391419420138638
tp4096
(Vgigaom.com
p4097
F0.00023660680057301445
tp4098
(Vcorom.vn
p4099
F0.00023047213023705282
tp4100
(Vvpnhelp.homeawaycorp.com
p4101
F0.0002284515048063452
tp4102
tp4103
s((S'mapbox.com'
p4104
tp4105
(ttp4106
((Vleafletjs.com
p4107
F0.006776474048673657
tp4108
(Vaxt.es
p4109
F0.004903544740889539
tp4110
(Vaudio.de
p4111
F0.002446311132466927
tp4112
(Vhelp.pinterest.com
p4113
F0.002309147933372557
tp4114
(Vbl.ocks.org
p4115
F0.0019948152231505575
tp4116
(Vopenstreetmap.org
p4117
F0.0017800319088303231
tp4118
(Vweatheranalytics.slack.com
p4119
F0.001595527962004445
tp4120
(Vsilkco.hipchat.com
p4121
F0.0015026812776871065
tp4122
(Vcharity.org
p4123
F0.001456835457272847
tp4124
(Vpostgis.refractions.net
p4125
F0.0013324898664654238
tp4126
(Vknightcenter.utexas.edu
p4127
F0.0013041501458502557
tp4128
(Vopenlayers.org
p4129
F0.0012678446342292145
tp4130
(Vskikluberlach.ch
p4131
F0.001168450487852876
tp4132
(Vjeanabbiateci.cartodb.com
p4133
F0.0011632982368822817
tp4134
(Vmaps.stamen.com
p4135
F0.0011243722479106313
tp4136
(Vvisual.ly
p4137
F0.0009135851548380657
tp4138
(Vcartodb.com
p4139
F0.0008342804494771836
tp4140
(Vip-ts.ru
p4141
F0.0008181712732816332
tp4142
(Vgis.stackexchange.com
p4143
F0.0008168538612022074
tp4144
(Vbitme.org
p4145
F0.0007534203427784824
tp4146
tp4147
s((S'spacerogue.net'
p4148
tp4149
(ttp4150
((Vhackernews.net
p4151
F0.024155455904334825
tp4152
(Vinfosyssec.com
p4153
F0.004150334332487894
tp4154
(Vhackernews.com
p4155
F0.0014944332361951729
tp4156
(Vcryptome.org
p4157
F0.00023388730759197143
tp4158
(Vthehackernews.com
p4159
F0.000122848694061342
tp4160
(Vveooz.com
p4161
F9.796456354560474e-05
tp4162
(Vfilterbypass.me
p4163
F7.876594125299797e-05
tp4164
(Vfiles.t-square.gatech.edu
p4165
F3.667372426806653e-05
tp4166
(Vassembla.com
p4167
F5.356854781678878e-06
tp4168
(Vtechcrunch.com
p4169
F2.394271525133206e-06
tp4170
(Vt.co
p4171
F4.0062931302635475e-07
tp4172
(Vstackoverflow.com
p4173
F3.5988874690424153e-07
tp4174
(Vnews.ycombinator.com
p4175
F3.0522565362431473e-07
tp4176
(Veksisozluk.com
p4177
F2.9312384389517315e-07
tp4178
(Vduckduckgo.com
p4179
F2.4303376673617145e-07
tp4180
(Vmashable.com
p4181
F2.337746074512313e-07
tp4182
(Vsnt146.mail.live.com
p4183
F9.130484595356827e-08
tp4184
(Vgoogle.com
p4185
F4.3152848834315e-08
tp4186
(Vgoogle.ca
p4187
F8.15280842751372e-09
tp4188
(Vfacebook.com
p4189
F4.5654615426760247e-10
tp4190
tp4191
s((S'alpha28.com'
p4192
tp4193
(ttp4194
(ts((S'extracheese.org'
p4195
tp4196
(ttp4197
(ts((S'beta5.com'
p4198
tp4199
(ttp4200
(ts((S'rubylearning.com'
p4201
tp4202
(ttp4203
((Vruby-lang.org
p4204
F0.0062146978342155846
tp4205
(Vdiguage.com
p4206
F0.004791519541958069
tp4207
(Vomz-software.com
p4208
F0.0018205370584322377
tp4209
(Vruby-auf-schienen.de
p4210
F0.0018038047695954024
tp4211
(Vruby-learning.com
p4212
F0.0015454506856875981
tp4213
(Vrubyshow.com
p4214
F0.001365095111518096
tp4215
(Vroshanjoshi.com.np
p4216
F0.0013411983855945357
tp4217
(Vrubylove.io
p4218
F0.0010636085920381299
tp4219
(V99collection.com
p4220
F0.0009368644745561318
tp4221
(Vforeman.cloud.svl.ibm.com
p4222
F0.0008020549200192217
tp4223
(Vblog.envylabs.com
p4224
F0.0007789232531500573
tp4225
(Vproezd.by
p4226
F0.0006576655361929342
tp4227
(Vdiveintopython3.net
p4228
F0.0006282512680114493
tp4229
(Vredesign-greyboxing-contact.demo.dev.funda.nl
p4230
F0.0006023405231757687
tp4231
(Vpuzzlenode.s3.amazonaws.com
p4232
F0.0005988126400793854
tp4233
(Vs12dsow.github.io
p4234
F0.0005988126400793854
tp4235
(Vbeans.seartipy.com
p4236
F0.0005892851129743745
tp4237
(Vemporis.com
p4238
F0.000405232388547993
tp4239
(Vrubydocs.org
p4240
F0.0004030632809351068
tp4241
(Vguides.rubygems.org
p4242
F0.0003929876814613232
tp4243
tp4244
s((S'backbonetutorials.com'
p4245
tp4246
(ttp4247
((Vrjduran.net
p4248
F0.005066166586997112
tp4249
(Vstash.sinclairstoryline.com
p4250
F0.004937799652761186
tp4251
(Vchina-herb-co.myshopify.com
p4252
F0.004731209454154787
tp4253
(Vpanda3d.org
p4254
F0.0044343415562579595
tp4255
(Valertify.com
p4256
F0.003870331254822104
tp4257
(Vstevenschobert.com
p4258
F0.00360101451658977
tp4259
(Vmoodle.ncirl.ie
p4260
F0.003352232553153303
tp4261
(Vthomasdavis.github.io
p4262
F0.003305601245957393
tp4263
(Vkapitalguiden.no
p4264
F0.0032637178139367025
tp4265
(Vblog.andyet.com
p4266
F0.0027620852402745998
tp4267
(Vbackbonejs.org
p4268
F0.002495619542375247
tp4269
(Vbackboneindex.com
p4270
F0.0024065540194572453
tp4271
(Vaiken.basecamphq.com
p4272
F0.002299121287059312
tp4273
(Vmts.dev.aiken.ua
p4274
F0.002203448127606518
tp4275
(Vregistry.jsonresume.org
p4276
F0.002124866500533998
tp4277
(Vbackbonejs.zeef.com
p4278
F0.0020697148967729695
tp4279
(Vbackbone.codeschool.com
p4280
F0.0020682939932176072
tp4281
(Vtechtalkshq.com
p4282
F0.0018981575217655396
tp4283
(Vdocumentscloud.github.com
p4284
F0.0018705846030910049
tp4285
(Vsitthetest.com
p4286
F0.001827157891038142
tp4287
tp4288
s((S'python-requests.org'
p4289
tp4290
(ttp4291
((Vzhidaow.com
p4292
F0.009551755746611724
tp4293
(Vfreepythontips.wordpress.com
p4294
F0.006459608747061535
tp4295
(Vcrsmithdev.com
p4296
F0.003916645744413759
tp4297
(Vpythonforbeginners.com
p4298
F0.00257766774217122
tp4299
(Vdjrill.readthedocs.org
p4300
F0.002012919776840218
tp4301
(Vpypi.python.org
p4302
F0.0017488807041015017
tp4303
(Vsqlserverradio.co.il
p4304
F0.0015344216654011643
tp4305
(Vlftp.yar.ru
p4306
F0.0014730447987851177
tp4307
(Vcommunity.idolondemand.com
p4308
F0.0014134444923578169
tp4309
(Vlupaworld.com
p4310
F0.0012363183378873667
tp4311
(Vapi-help.campaigncommander.com
p4312
F0.0012157320254775146
tp4313
(Vcms.int.avast.com
p4314
F0.00106509819085949
tp4315
(V101skidka.slack.com
p4316
F0.001045992198313829
tp4317
(Vmy.itron.com
p4318
F0.0009469974323677864
tp4319
(Vgitlab.labs.nic.cz
p4320
F0.000788003055522052
tp4321
(Vcoupadev.atlassian.net
p4322
F0.0007800650703031773
tp4323
(Vctf.sobug.com
p4324
F0.0007446869450650168
tp4325
(Vpydoc.net
p4326
F0.0007438618658704967
tp4327
(Vcrummy.com
p4328
F0.0005123460621771358
tp4329
(Vhazel01.dot8.va.us.attask.com
p4330
F0.0004937072558779491
tp4331
tp4332
s((S'webtoolsdepot.com'
p4333
tp4334
(ttp4335
((Vprofessionalsnapshots.com
p4336
F0.017618641659562378
tp4337
(Vcre8tivenerd.com
p4338
F0.00807511737089202
tp4339
(Vdev.nlpcaptcha.in
p4340
F0.004782560338115894
tp4341
(Vinspiretrends.com
p4342
F0.0015197327803194605
tp4343
(Vdesigngeekz.com
p4344
F0.000996928070480496
tp4345
(Vqueness.com
p4346
F0.0006477910325789059
tp4347
(Vcode-tricks.com
p4348
F0.0005812920831247679
tp4349
(Vosvaldas.info
p4350
F0.0003197584708108852
tp4351
(Vtripwiremagazine.com
p4352
F0.00027976264551275184
tp4353
(Va2hosting.com
p4354
F7.450280208503889e-05
tp4355
(Vdramas.se
p4356
F5.78730381289527e-05
tp4357
(Vspeckyboy.com
p4358
F5.0024360975788805e-05
tp4359
(Vthecodeplayer.com
p4360
F2.70973169345298e-05
tp4361
(Vmobikwik.com
p4362
F2.582786325170353e-05
tp4363
(Vsemrush.com
p4364
F9.329826641895646e-06
tp4365
(Vvogella.com
p4366
F7.439604361840037e-06
tp4367
(Valjazeera.net
p4368
F7.428452217481951e-06
tp4369
(Vtw.gigacircle.com
p4370
F6.6539489052900315e-06
tp4371
(Vtympanus.net
p4372
F3.1460042522631246e-06
tp4373
(Vcolorzilla.com
p4374
F2.84315777023646e-06
tp4375
tp4376
s((S'sixrevisions.com'
p4377
tp4378
(ttp4379
((Vforum.hangarnet.com.br
p4380
F0.004522612841241663
tp4381
(Viconpaper.org
p4382
F0.004388601429190374
tp4383
(Vpanosfx.com
p4384
F0.003981522100667729
tp4385
(Vliptonicetea.com
p4386
F0.0039197345769073555
tp4387
(Vtiny.cc
p4388
F0.003371601640395747
tp4389
(Vbohemian.curated.co
p4390
F0.003326202922179347
tp4391
(Vnoupe.com
p4392
F0.002781459432749324
tp4393
(Vvle-project.org
p4394
F0.002767415707556039
tp4395
(Vsixrevision.com
p4396
F0.0022085172602788606
tp4397
(Vbusiness.tutsplus.com
p4398
F0.0017757417437201713
tp4399
(Vforum.weavertheme.com
p4400
F0.0015203455783372938
tp4401
(Vtvgratishd.blogspot.com
p4402
F0.0015013110572595332
tp4403
(Vinflexwetrust.com
p4404
F0.0012838767727523452
tp4405
(Vsixminutes.dlugan.com
p4406
F0.001239579333077317
tp4407
(Vtricias-captions.tumblr.com
p4408
F0.0012110202845897668
tp4409
(Vsiteexplorer.info
p4410
F0.0010857132729947228
tp4411
(Vcommonplaces.com
p4412
F0.0010758741477450429
tp4413
(Vmongodbspain.com
p4414
F0.0010698474333738655
tp4415
(Vlanzateya.com
p4416
F0.0010386067653343092
tp4417
(Vfleischlust.com
p4418
F0.0009746657118920917
tp4419
tp4420
s((S'js2coffee.org'
p4421
tp4422
(ttp4423
((Vcoffeescript.org
p4424
F0.02403601296273028
tp4425
(Vmarkdotto.com
p4426
F0.005252514264432705
tp4427
(Vapi.jquery.com
p4428
F0.00357281252711641
tp4429
(Vtwitter.github.io
p4430
F0.0024109253293020856
tp4431
(Vfabricjs.com
p4432
F0.002098906052196327
tp4433
(Vatmospherejs.com
p4434
F0.0020051451935951983
tp4435
(Vpricemania.developer3.cz
p4436
F0.001954454153921506
tp4437
(Vinterone.de
p4438
F0.001889860252037865
tp4439
(Vbackbonejs.org
p4440
F0.0016524226073758618
tp4441
(Vshashankshetty.wordpress.com
p4442
F0.0015940524041622571
tp4443
(Vhtml2slim.herokuapp.com
p4444
F0.001486480127681469
tp4445
(Vplnkr.co
p4446
F0.001417112728794347
tp4447
(Vwebpack.github.io
p4448
F0.0013926971883895002
tp4449
(Vcoffeescriptlove.com
p4450
F0.0013925155542500076
tp4451
(Vsatellizer.herokuapp.com
p4452
F0.0013897405960784026
tp4453
(Vhtml2haml.herokuapp.com
p4454
F0.0012901440927272467
tp4455
(Vsearchdiscovery.com
p4456
F0.0012827879039783538
tp4457
(Vvisjs.org
p4458
F0.0012348514023426435
tp4459
(Vrightinbox.desk.com
p4460
F0.0011828622717916515
tp4461
(Vemberjs.jsbin.com
p4462
F0.0011601727623598602
tp4463
tp4464
s((S'spotad.co'
p4465
tp4466
(ttp4467
((Vinnolance.com
p4468
F0.002733964248159832
tp4469
(Vnewincite.com
p4470
F0.0021574973031283713
tp4471
(Vui.servesharp.net
p4472
F0.0003960637357950218
tp4473
(Vjira.millennialmedia.com
p4474
F0.00036140992389132194
tp4475
(Vmovinstream.com
p4476
F4.124136508918446e-05
tp4477
(Vhwzone.co.il
p4478
F1.7154933461951347e-05
tp4479
(Vsubtitle.co.il
p4480
F7.854194729049916e-06
tp4481
(Vlinkedin.com
p4482
F1.6123254398713075e-07
tp4483
(Vvimeo.com
p4484
F9.877902401742443e-08
tp4485
(Vgoogle.co.uk
p4486
F9.113462281788802e-08
tp4487
(Vfacebook.com
p4488
F7.059035289641063e-09
tp4489
tp4490
s((S'beta11.com'
p4491
tp4492
(ttp4493
(ts((S'gmail.com'
p4494
tp4495
(ttp4496
((Vgoogle.co.in
p4497
F0.002160747949931791
tp4498
(Vreddit.com
p4499
F0.0019094229668676123
tp4500
(Vnetflix.com
p4501
F0.0015143636335367562
tp4502
(Vamazon.com
p4503
F0.001114998532370577
tp4504
(Vdropbox.com
p4505
F0.0008313813311958971
tp4506
(Ven.wikipedia.org
p4507
F0.0008247348851858367
tp4508
(Vpandora.com
p4509
F0.0008159585716037036
tp4510
(Vaccount.live.com
p4511
F0.0007445104894934813
tp4512
(Vfacebook.com
p4513
F0.0007035519930853775
tp4514
(Vstartpagina.nl
p4515
F0.0004478025187472418
tp4516
(Vlinkedin.com
p4517
F0.00038762191829156073
tp4518
(Vsoundcloud.com
p4519
F0.00035534929141919615
tp4520
(Vstackoverflow.com
p4521
F0.000352430535378393
tp4522
(Vtrovi.com
p4523
F0.0003270559567248911
tp4524
(Vbing.com
p4525
F0.0003186797288942869
tp4526
(Vsearch.safefinder.com
p4527
F0.0003181670220008833
tp4528
(Vhome.tb.ask.com
p4529
F0.000309598054277362
tp4530
tp4531
s((S'alpha50.com'
p4532
tp4533
(ttp4534
(ts((S'batsov.com'
p4535
tp4536
(ttp4537
((Vblog.rust-lang.org
p4538
F0.0025602059117481963
tp4539
(Vskanev.com
p4540
F0.0022080608194980154
tp4541
(Vbarisyuksel.com
p4542
F0.0017846249100858622
tp4543
(Vclever-cloud.com
p4544
F0.0017729664335737266
tp4545
(Vbotnets.fr
p4546
F0.0017378253485524707
tp4547
(Vemacs.sexy
p4548
F0.0017151187719749593
tp4549
(Vohtatblog.wordpress.com
p4550
F0.0014208184846155637
tp4551
(Vthatthinginswift.com
p4552
F0.0005549820740790072
tp4553
(Vemacswiki.org
p4554
F0.000361288776960209
tp4555
(Vgamasutra.com
p4556
F7.182796042938065e-05
tp4557
(Vcreditkarma.com
p4558
F4.846935431658113e-05
tp4559
(Vde.reddit.com
p4560
F2.1918490506820317e-05
tp4561
(Vgithub.com
p4562
F9.564137939050661e-06
tp4563
(Vpluralsight.com
p4564
F7.698149584786948e-06
tp4565
(Vencrypted.google.com
p4566
F3.904554290440822e-06
tp4567
(Vstackoverflow.com
p4568
F2.7530196598198716e-06
tp4569
(Vsearch.disconnect.me
p4570
F1.452201017759609e-06
tp4571
(Vstartpage.com
p4572
F4.5705844497747614e-07
tp4573
(Vgoogle.com.br
p4574
F2.7313056986275865e-08
tp4575
tp4576
s((S'padolsey.com'
p4577
tp4578
(ttp4579
((Vpapagoarchery.com
p4580
F0.010473375849017473
tp4581
(Vvintagephotoboothnyc.com
p4582
F0.00996644957568581
tp4583
(Vwebmail.digitalgear.com
p4584
F0.007198731312699346
tp4585
(Vgod.richard.dev.xen.lan.expert-shops.com
p4586
F0.005221312448083541
tp4587
(Vfoaas.com
p4588
F0.005002293011606166
tp4589
(Vcnfeat.com
p4590
F0.00401750239583653
tp4591
(Vwifi.weixin.qq.com
p4592
F0.003792761744407321
tp4593
(Vfrontend.richard.dev.xen.lan.expert-shops.com
p4594
F0.0036325652028917203
tp4595
(Vjira.foryouandyourteam.com
p4596
F0.003233026610295946
tp4597
(Vicescrum.i-dalgo2.com
p4598
F0.003064895530648955
tp4599
(Vabgmanagementlimited.quickbase.com
p4600
F0.002340158796489762
tp4601
(Vsave-dep-mukku.blogspot.jp
p4602
F0.0023262142399424154
tp4603
(Vzero11.com.br
p4604
F0.0023032042085126734
tp4605
(Vwiki.s00.jp
p4606
F0.002212426322029087
tp4607
(Vozekisms.com
p4608
F0.0018377987713592483
tp4609
(Vzhangxinxu.com
p4610
F0.0016898954023123237
tp4611
(Vcvmlrobotics.blogspot.com
p4612
F0.0016786257882148291
tp4613
(Vredwoods.com
p4614
F0.0016160499719493919
tp4615
(Vrandomsnippets.com
p4616
F0.0013289677088390124
tp4617
(Vejohn.org
p4618
F0.0012231300524343327
tp4619
tp4620
s((S'office365.com'
p4621
tp4622
(ttp4623
((Vlogin.microsoftonline.com
p4624
F0.007675838044212189
tp4625
(Vportal.office.com
p4626
F0.006357817724876709
tp4627
(Vlogin.gatech.edu
p4628
F0.0022264042628608355
tp4629
(Vmail.gatech.edu
p4630
F0.0013440675078087258
tp4631
(Vlearn.gonzaga.edu
p4632
F0.0008405594326063179
tp4633
(Vdalhousie.blackboard.com
p4634
F0.0007556814273107322
tp4635
(Vbblearn.utk.edu
p4636
F0.0006507405969042097
tp4637
(Vmy.ysu.edu
p4638
F0.000571543177925408
tp4639
(Vneisd.net
p4640
F0.0004677560882873483
tp4641
(Vuwm.courses.wisconsin.edu
p4642
F0.0004554388037539254
tp4643
(Vmail.micromedia.fi
p4644
F0.00042392549726942563
tp4645
(Vcygnus.cc.kuleuven.be
p4646
F0.00042123996108882014
tp4647
(Vhotels.innstanttravel.com
p4648
F0.00040988607041772394
tp4649
(Vmail.jgu.edu.in
p4650
F0.0003785184420860687
tp4651
(Vwww4.uwm.edu
p4652
F0.0003575867127568184
tp4653
(Vdominican.powerschool.com
p4654
F0.0003340018353748156
tp4655
(Vuk.leader.weightwatchers.com
p4656
F0.0003315338893572389
tp4657
(Vskedsmoskolen.sharepoint.com
p4658
F0.0003157615320187347
tp4659
(Vpioneerweb.grinnell.edu
p4660
F0.0003106155503508925
tp4661
(Vucc.edu.co
p4662
F0.00030644804140647966
tp4663
tp4664
s((S'xing.com'
p4665
tp4666
(ttp4667
((Vstepstone.de
p4668
F0.0015170579001096234
tp4669
(Vspiegel.de
p4670
F0.0009870102205989382
tp4671
(Vsmartredirect.de
p4672
F0.0008656418910552316
tp4673
(Vkununu.com
p4674
F0.0008500644918979894
tp4675
(Vtu-harburg.academia.edu
p4676
F0.0007250172468395831
tp4677
(Vgruenderszene.de
p4678
F0.0006160545464338925
tp4679
(Vt3n.de
p4680
F0.0005494073061703604
tp4681
(Vopenbc.de
p4682
F0.0005282185824034381
tp4683
(Vbusiness-webmail.t-online.de
p4684
F0.00039136039083473073
tp4685
(Vlizaa.de
p4686
F0.00036584645585642674
tp4687
(Vespace.sbb.ch
p4688
F0.00036162796813019727
tp4689
(Vorf.at
p4690
F0.0003373444213756619
tp4691
(Vwuv.de
p4692
F0.00032833919049934745
tp4693
(Vkunde.comdirect.de
p4694
F0.0003001408379996149
tp4695
(Vde.linkedin.com
p4696
F0.00029778258826698294
tp4697
(Vexperteer.de
p4698
F0.00028717027437245716
tp4699
(Vna20.salesforce.com
p4700
F0.00027828180103067144
tp4701
(Vbbs.clutchfans.net
p4702
F0.0002183433086419262
tp4703
(Vbgl.maknesium.de
p4704
F0.00021813978836609884
tp4705
tp4706
s((S'kickstarter.com'
p4707
tp4708
(ttp4709
((Vindiegogo.com
p4710
F0.006044589196122378
tp4711
(Vboardgamegeek.com
p4712
F0.002967470579344699
tp4713
(Vkicktraq.com
p4714
F0.0016820810006756592
tp4715
(Vkck.st
p4716
F0.0012093648592350532
tp4717
(Vmassdrop.com
p4718
F0.00087235769793054
tp4719
(Vcoolstuffinc.com
p4720
F0.0006201030948794028
tp4721
(Vthunderclap.it
p4722
F0.0005545280608785909
tp4723
(Vgofundme.com
p4724
F0.0004185638677770289
tp4725
(Vwasteland2.org
p4726
F0.0003310376988044957
tp4727
(Vdudeiwantthat.com
p4728
F0.00030026142653187977
tp4729
(Vmomastore.org
p4730
F0.00019395910733544547
tp4731
(Vustart.org
p4732
F0.0001747273452737386
tp4733
(V99designs.co.uk
p4734
F0.00017261508673220832
tp4735
(Vtrictrac.net
p4736
F0.00017158398885538806
tp4737
(Vtechcrunch.com
p4738
F0.00015226764246498048
tp4739
(Vkickended.com
p4740
F0.00014808523909796067
tp4741
tp4742
s((S'somethingpositive.com'
p4743
tp4744
(ttp4745
((Vsomethingpostive.net
p4746
F0.05551369002763124
tp4747
(Vjezebel.com
p4748
F4.424084024843979e-06
tp4749
(Vsmbc-comics.com
p4750
F3.576337317918497e-06
tp4751
(Vamazon.co.uk
p4752
F2.8458752349683427e-07
tp4753
(Vtwitter.com
p4754
F1.9658182515494668e-08
tp4755
(Vreddit.com
p4756
F1.4299505429861048e-08
tp4757
tp4758
s((S'banrate.com'
p4759
tp4760
(ttp4761
((Vadvertiser.bankrate.com
p4762
F0.010417933438728768
tp4763
(Vmycfe.com
p4764
F0.003697223187641567
tp4765
(Vlowermybills.com
p4766
F0.000577498241663914
tp4767
(Vsalliemae.com
p4768
F4.9130725485894754e-05
tp4769
(Vdictionary.goo.ne.jp
p4770
F3.7425394069492426e-05
tp4771
(Vally.com
p4772
F1.4405003035318033e-05
tp4773
(Vpost.craigslist.org
p4774
F1.8668535426783176e-06
tp4775
(Vwellsfargo.com
p4776
F1.5658914407910743e-06
tp4777
(Vfinance.yahoo.com
p4778
F8.480322713302284e-07
tp4779
(Vebay.com
p4780
F1.287045916505256e-07
tp4781
tp4782
s((S'glassdoor.co.uk'
p4783
tp4784
(ttp4785
((Vfdmgroup.com
p4786
F0.0021434905528646066
tp4787
(Vwebmail.woodmac.com
p4788
F0.0016492370468520088
tp4789
(Vcityjobs.com
p4790
F0.0010135210469262403
tp4791
(Vsimviation.com
p4792
F0.0009152326483500309
tp4793
(Valphasights.com
p4794
F0.0008116713682439404
tp4795
(Vbain.com
p4796
F0.0007905523693257202
tp4797
(Vcaptify.co.uk
p4798
F0.0006827249258603401
tp4799
(Vtargetjobs.co.uk
p4800
F0.0006656579208911521
tp4801
(Vecourier.co.uk
p4802
F0.0005914152381832463
tp4803
(Vnews.efinancialcareers.com
p4804
F0.0005657570477422305
tp4805
(Vlondonjobs.co.uk
p4806
F0.0004835868543714079
tp4807
(Vmclaren.com
p4808
F0.0004834475431308288
tp4809
(Vjustgiving.com
p4810
F0.0004746155147693979
tp4811
(Vwallstreetoasis.com
p4812
F0.0004644077675978377
tp4813
(Vnewweather.org
p4814
F0.0004614627459761244
tp4815
(Vworkmaze.com
p4816
F0.00045928900704205437
tp4817
(Vcareerbliss.com
p4818
F0.0004549147388566295
tp4819
(Vdecoholic.org
p4820
F0.00044404390566145043
tp4821
(Vmoonfruit.com
p4822
F0.0004437331974533111
tp4823
(Vcapco.com
p4824
F0.0004365478740333583
tp4825
tp4826
s((S'mfglabs.com'
p4827
tp4828
(ttp4829
((Vmsglabs.com
p4830
F0.07000736919675755
tp4831
(Vpropal.net
p4832
F0.01124850726145075
tp4833
(Vdev.warnerbros.fr
p4834
F0.0074688937549863355
tp4835
(Vallanyu.net
p4836
F0.005216220763923945
tp4837
(Vhetic.net
p4838
F0.004757307364031958
tp4839
(Vcr.jensgehlhaar.com
p4840
F0.004741443176766928
tp4841
(Ven.trivia.fifa.com
p4842
F0.0039710348049521145
tp4843
(Vmartincharpentier.com
p4844
F0.0033670033670033673
tp4845
(Vwiki.eulerian.com
p4846
F0.0018276032595841666
tp4847
(Vocticons.github.com
p4848
F0.0014083553388855032
tp4849
(Vwebdesignerdepot.com
p4850
F8.452700822036486e-05
tp4851
(Vssl0.ovh.net
p4852
F1.282900476133709e-05
tp4853
(Vgithub.com
p4854
F6.071586593053729e-06
tp4855
(Vtechcrunch.com
p4856
F5.236574069690336e-06
tp4857
(Vfortawesome.github.io
p4858
F3.996121812514148e-06
tp4859
(Vlogins.daum.net
p4860
F2.83801817452995e-06
tp4861
(Vlinkedin.com
p4862
F1.3845440429640096e-06
tp4863
(Vamazon.com
p4864
F4.27477192784571e-08
tp4865
tp4866
s((S'verborgh.org'
p4867
tp4868
(ttp4869
(ts((S'infosecisland.com'
p4870
tp4871
(ttp4872
(ts((S'widdershinscomic.com'
p4873
tp4874
(ttp4875
((Vletsaskviolet.com
p4876
F0.023339778372803054
tp4877
(Vthe-whiteboard.com
p4878
F0.02297513496899636
tp4879
(Vineffableaether.com
p4880
F0.018733703512249688
tp4881
(Vpuckcomics.com
p4882
F0.010880843347775311
tp4883
(Valiendice.com
p4884
F0.0095586849274735
tp4885
(Vcasualvillain.com
p4886
F0.007030130604618646
tp4887
(Vmarryme.keenspot.com
p4888
F0.00618793397842423
tp4889
(Vprecociouscomic.com
p4890
F0.006100743140697935
tp4891
(Vrice-boy.com
p4892
F0.004656766063375279
tp4893
(Vthearchipelago.smackjeeves.com
p4894
F0.002923735751237376
tp4895
(Vsmbhax.com
p4896
F0.0025248584102409368
tp4897
(Vbetweenfailures.com
p4898
F0.0018146924062114364
tp4899
(Vwncomic.com
p4900
F0.0017688444965095805
tp4901
(Vthegamercat.com
p4902
F0.0015217058359325555
tp4903
(Vweregeek.com
p4904
F0.0014803237802496064
tp4905
(Vnerf-this.com
p4906
F0.0013742114952235965
tp4907
tp4908
s((S'zetalab.de'
p4909
tp4910
(ttp4911
(ts((S'githubusercontent.com'
p4912
tp4913
(ttp4914
((Vgist.github.com
p4915
F0.0683521379597651
tp4916
(Vrawgit.com
p4917
F0.004681318158194077
tp4918
(Vget.rvm.io
p4919
F0.0024688836762393703
tp4920
(Vgit.io
p4921
F0.0017625401674807473
tp4922
(Vhtmlpreview.github.io
p4923
F0.0016873868286427472
tp4924
(Vj.mp
p4925
F0.0014034738364627076
tp4926
(Vmysqltuner.pl
p4927
F0.0013031784757683278
tp4928
(Vbotoflegends.com
p4929
F0.0007909564762299546
tp4930
(Vzpanelcp.com
p4931
F0.0006691757360483263
tp4932
(Vteddysun.com
p4933
F0.0006024164679786914
tp4934
(Vdanielgibbs.co.uk
p4935
F0.0004724781478856603
tp4936
(Vapp.leehuu.cn
p4937
F0.0004249577816094249
tp4938
(Vinstall.ohmyz.sh
p4939
F0.0003363897946269826
tp4940
(Vbrew.sh
p4941
F0.00032717832283826433
tp4942
(Vzzj.86639.com
p4943
F0.0003248079592420554
tp4944
(Vallaboutghost.com
p4945
F0.00027711649858186296
tp4946
tp4947
s((S'viralstat.com'
p4948
tp4949
(ttp4950
((Vpinkmodel.net
p4951
F0.0017848051986943372
tp4952
(Vfreefuckvids.com
p4953
F0.0014829190614814261
tp4954
(Vpilka.pl
p4955
F0.0009659169311439217
tp4956
(Vfecebook.pl
p4957
F0.0008786702789778136
tp4958
(Vs.arclk.net
p4959
F0.0003530647843698747
tp4960
(Vmediaseed.info
p4961
F0.0002946011861157822
tp4962
(Vparkingcrew.net
p4963
F0.00020676923076923078
tp4964
(Vtraxter-online.tk
p4965
F0.00016920064779676585
tp4966
(Vsales-force.pl
p4967
F0.00016920064779676585
tp4968
(Vfilmihdizlesene.tk
p4969
F0.00016920064779676585
tp4970
(Vmxvzz.exclusive-rewards.sweepjellyfish.biz
p4971
F0.00016920064779676585
tp4972
(Vsklep.superpower.pl
p4973
F0.00016920064779676585
tp4974
(Vmoczulski.biz
p4975
F0.00016920064779676585
tp4976
tp4977
s((S'dock.com'
p4978
tp4979
(ttp4980
((Vdocks.qc.ca
p4981
F0.06434729912128474
tp4982
(Vdockandslip.com
p4983
F0.06212746446584136
tp4984
(Vtessera.com
p4985
F0.005609478693919016
tp4986
(Vedu.americanvhs.com
p4987
F0.0009426078168425553
tp4988
(Vv3.mercusuar.info
p4989
F5.262204832870827e-06
tp4990
(Vsafecart.com
p4991
F1.0612495775718263e-06
tp4992
tp4993
s((S'girlgeniusonline.com'
p4994
tp4995
(ttp4996
((Vgunnerkrigg.com
p4997
F0.01767159739001341
tp4998
(Vschlockmercenary.com
p4999
F0.010575660601482408
tp5000
(Vfreefall.purrsia.com
p5001
F0.009560981321730415
tp5002
(Vsluggy.com
p5003
F0.00904143804193216
tp5004
(Vegscomics.com
p5005
F0.005509161471307016
tp5006
(Vgrrlpowercomic.com
p5007
F0.005249945116816697
tp5008
(Vweregeek.com
p5009
F0.004451691369450159
tp5010
(Vdrmcninja.com
p5011
F0.003358334547927928
tp5012
(Vquantumvibe.com
p5013
F0.0033437697304085274
tp5014
(Vgiantitp.com
p5015
F0.0031847824127843247
tp5016
(Vscarygoround.com
p5017
F0.0027004569761357165
tp5018
(Vuniversalhub.com
p5019
F0.0018591146664278212
tp5020
(Vevil-inc.com
p5021
F0.001599747315566798
tp5022
(Vthedreamlandchronicles.com
p5023
F0.0012656027853518302
tp5024
tp5025
s((S'symplicity.com'
p5026
tp5027
(ttp5028
((Vcareer.berkeley.edu
p5029
F0.02610738668888367
tp5030
(Vcareerservicesapps.rit.edu
p5031
F0.023787876193260383
tp5032
(Vshibboleth.usc.edu
p5033
F0.02172824995539614
tp5034
(Vmbacareers.wharton.upenn.edu
p5035
F0.00973378562495862
tp5036
(Vsso.brown.edu
p5037
F0.009455217182466424
tp5038
(Vcareer.arizona.edu
p5039
F0.00606440565597298
tp5040
(Vcas.rutgers.edu
p5041
F0.005206815946573473
tp5042
(Vlogin.uiowa.edu
p5043
F0.0034028206626909078
tp5044
(Vaccessuh.uh.edu
p5045
F0.0027956600196839512
tp5046
(Vcas.fsu.edu
p5047
F0.0018849546355613987
tp5048
(Vcas.insead.edu
p5049
F0.0015471822878699156
tp5050
(Vcas1.tcnj.edu
p5051
F0.0015437155112862225
tp5052
(Vlogin.uconn.edu
p5053
F0.0014757149121507258
tp5054
(Vcareerservices.princeton.edu
p5055
F0.0013794404730910073
tp5056
(Vpassportyork.yorku.ca
p5057
F0.0011847234267562596
tp5058
tp5059
s((S'92.195'
p5060
tp5061
(ttp5062
(ts((S'acnenomor.com'
p5063
tp5064
(ttp5065
((Vsetareasemany.persianblog.ir
p5066
F0.004590559213576927
tp5067
(Vpanelbiurou.uniterm.pl
p5068
F0.001165427076049414
tp5069
(Vgoldenraccoon.tistory.com
p5070
F0.0011206906117195389
tp5071
(Valpha-mconsole.netmarble.net
p5072
F0.0010040460071774379
tp5073
(Vbeta.ssl.webservices.travelzoo.com
p5074
F0.0007673275079081712
tp5075
(Vjpj.gov.my
p5076
F0.0006220694566398409
tp5077
(Vblog.otrs.org
p5078
F0.0005895419469622798
tp5079
(Vadblogcat.com
p5080
F0.0005817426308271652
tp5081
(Vanswerques.com
p5082
F0.0005379210312714628
tp5083
(Vxiexingwen.com
p5084
F0.000471817428617734
tp5085
(Vgoogle.co.jp
p5086
F2.9066968336392337e-08
tp5087
tp5088
s((S'alpha30.com'
p5089
tp5090
(ttp5091
(ts((S'dorkly.com'
p5092
tp5093
(ttp5094
((Vcollegehumor.com
p5095
F0.00532996727307274
tp5096
(Vdidyouknowgaming.com
p5097
F0.0021633027780272383
tp5098
(Vnetlore.ru
p5099
F0.0013772662965528448
tp5100
(Vawkwardzombie.com
p5101
F0.0011546861484157086
tp5102
(Vbrawlinthefamily.keenspot.com
p5103
F0.001025083503038372
tp5104
(Vexplosm.net
p5105
F0.0009121791532666129
tp5106
(Vdorktower.com
p5107
F0.0007780467559879749
tp5108
(Vbunicomic.com
p5109
F0.0007688771325575398
tp5110
(Vpenny-arcade.com
p5111
F0.000697397505029458
tp5112
(Vforums.tigsource.com
p5113
F0.0006230253345583321
tp5114
(Vsyacartoonist.com
p5115
F0.0005622097830873088
tp5116
(Vdangerouslychloe.com
p5117
F0.0004875689986759523
tp5118
(Vblessings.thecomicseries.com
p5119
F0.0004383328772759553
tp5120
(Vtrenchescomic.com
p5121
F0.00042936677189025536
tp5122
(Vsurvivingtheworld.net
p5123
F0.00038241257511459256
tp5124
(Vdraconicsonic.deviantart.com
p5125
F0.0002444842155108139
tp5126
tp5127
s((S'.hdokiejnpimakedhajhdlcegeplioahd'
p5128
tp5129
(ttp5130
(ts((S'angular-rails.com'
p5131
tp5132
(ttp5133
((Vdemo-recruiting.mhm-hr.com
p5134
F0.011459862255842836
tp5135
(Vamberbit.com
p5136
F0.009136130339439904
tp5137
(Vangularonrails.com
p5138
F0.003601859459946197
tp5139
(Vdev.interfolio.com
p5140
F0.0029229933521301636
tp5141
(Vpotykacze-4m.pl
p5142
F0.0026392876823573773
tp5143
(Valexpotrykus.com
p5144
F0.0026026684200432864
tp5145
(Vintridea.com
p5146
F0.0011511073601185176
tp5147
(Vprogramando.la
p5148
F0.0008055244330206434
tp5149
(Vahadees.com
p5150
F0.0006826907847667109
tp5151
(Vyearofmoo.com
p5152
F0.0003659278775412728
tp5153
(Vhoneybadger.io
p5154
F0.0003133140446486377
tp5155
(Vslatestudio.com
p5156
F0.00030754008049527323
tp5157
(Vegghead.io
p5158
F0.00028647113221448453
tp5159
(Vnaluzie.onet.pl
p5160
F4.823788592959177e-05
tp5161
(Vscotch.io
p5162
F4.3581747338826194e-05
tp5163
(Vapi.jquery.com
p5164
F2.7340318442941523e-05
tp5165
(Vinteractivepython.org
p5166
F1.5106459870851388e-05
tp5167
(Vpinboard.in
p5168
F1.1987355819752743e-05
tp5169
(Vsouthwest.com
p5170
F5.259489660213136e-06
tp5171
(Vwykop.pl
p5172
F3.724426316229092e-06
tp5173
tp5174
s((S'johnlewis.ie'
p5175
tp5176
(ttp5177
((Vcoreboot.org
p5178
F0.02854268245491835
tp5179
(Vdistroshare.com
p5180
F0.016549572788962446
tp5181
(Vwebmail.w14a.comcast.net
p5182
F0.013918136600019624
tp5183
(Vdeconetworks.com
p5184
F0.007967123011370798
tp5185
(Vjeanlouisnguyen.blogspot.ca
p5186
F0.005415745410279979
tp5187
(Vpilaresdelcodigo.wordpress.com
p5188
F0.004368068633605357
tp5189
(Vae.sjsu.edu
p5190
F0.00432630123544891
tp5191
(Vsenk9.wordpress.com
p5192
F0.0035087719298245615
tp5193
(Vreadditing.herokuapp.com
p5194
F0.0031414092774758665
tp5195
(Vanderswallin.net
p5196
F0.0027987907111832813
tp5197
(Vgeorgakopoulos.org
p5198
F0.001107007252449383
tp5199
(Vzupimages.net
p5200
F0.0010530772654731792
tp5201
(Vjoomla.quantumcs.com
p5202
F0.0007784613047770943
tp5203
(Vchromium.org
p5204
F0.0007239176971487771
tp5205
(Vciteworld.com
p5206
F0.000622003528792297
tp5207
(Vtechreport.com
p5208
F0.0003636459011841565
tp5209
(Vfunhousegames.co
p5210
F0.00029423524559166105
tp5211
(Vbuddypress.org
p5212
F0.00017586529805995192
tp5213
(Vwiki.archlinux.org
p5214
F0.00013728228690694814
tp5215
(Vtvxs.gr
p5216
F9.757876076671679e-05
tp5217
tp5218
s((S'alpha0.com'
p5219
tp5220
(ttp5221
(ts((S'coreboot.org'
p5222
tp5223
(ttp5224
((Vhappyassassin.net
p5225
F0.059476348436577016
tp5226
(Vgit.buildroot.net
p5227
F0.02452952891923749
tp5228
(Vflashrom.org
p5229
F0.017701817587736517
tp5230
(Vbrmlab.cz
p5231
F0.013296603505499648
tp5232
(Vtiny.wiki.kernel.org
p5233
F0.012337571525115207
tp5234
(V86duino.com
p5235
F0.010515115478500344
tp5236
(Veskolar.com
p5237
F0.009344584495521896
tp5238
(Vjohnlewis.ie
p5239
F0.006332038626695642
tp5240
(Vseabios.org
p5241
F0.00443494523109805
tp5242
(Vsavebydiy.com
p5243
F0.0036583215796897038
tp5244
(Vlists.denx.de
p5245
F0.0029219143576826195
tp5246
(Vdonate.ccf.org.tw
p5247
F0.0027590143659023876
tp5248
(Vmetacloud.jira.com
p5249
F0.002028728663370954
tp5250
(Vembeddedlinux.org.cn
p5251
F0.0018237464363575382
tp5252
(Vfsf.org
p5253
F0.0017019026720611005
tp5254
(Vdev.milaap.org
p5255
F0.0011945877468052004
tp5256
(Vwiki.archlinux.org
p5257
F0.0007416826313193679
tp5258
(Vhitech.vesti.ru
p5259
F0.00033012905439744935
tp5260
(Vmark.intel.com
p5261
F0.00029483913576752523
tp5262
(Vlinux.softpedia.com
p5263
F2.1233992224112045e-05
tp5264
tp5265
s((S'docks.com'
p5266
tp5267
(ttp5268
((Vnew-startups.com
p5269
F0.0011150896408172368
tp5270
(Vimei.info
p5271
F0.00013258549617717544
tp5272
(Vdocs.com
p5273
F0.00011210307582814303
tp5274
tp5275
s((S'walla.co.il'
p5276
tp5277
(ttp5278
((Vynet.co.il
p5279
F0.020681855597970564
tp5280
(Vsport5.co.il
p5281
F0.01671716174222901
tp5282
(Vone.co.il
p5283
F0.0158659102755873
tp5284
(Vmako.co.il
p5285
F0.01332301405197086
tp5286
(Vnrg.co.il
p5287
F0.008862240216676337
tp5288
(Vgoogle.co.il
p5289
F0.007271907105170784
tp5290
(Vhaaretz.co.il
p5291
F0.005973013842627749
tp5292
(Vrotter.net
p5293
F0.005844035385500475
tp5294
(Vnana10.co.il
p5295
F0.005317331090295053
tp5296
(Vglobes.co.il
p5297
F0.004428857379564541
tp5298
tp5299
s((S'railscasts.com'
p5300
tp5301
(ttp5302
(ts((S'beta0.com'
p5303
tp5304
(ttp5305
(ts((S'beta6.com'
p5306
tp5307
(ttp5308
(ts((S'alpha8.com'
p5309
tp5310
(ttp5311
(ts((S'stakeventures.com'
p5312
tp5313
(ttp5314
(ts((S'ycombinator.com'
p5315
tp5316
(ttp5317
((Vhackerne.ws
p5318
F0.002258449013607999
tp5319
(Vtechmeme.com
p5320
F0.0012691820221576143
tp5321
(Vnews.layervault.com
p5322
F0.0009917455368117767
tp5323
(Vproducthunt.com
p5324
F0.0006783600822242837
tp5325
(Vspacerogue.net
p5326
F0.0006178246123912907
tp5327
(Vxcortex.com
p5328
F0.0005490919247667366
tp5329
(Vblog.samaltman.com
p5330
F0.00045371434238055064
tp5331
(Vnautil.us
p5332
F0.0004510529032547637
tp5333
(Vnews.dbanotes.net
p5334
F0.0003639712839933979
tp5335
(Vlesswrong.com
p5336
F0.00029064409138113845
tp5337
(Vnikcub.com
p5338
F0.00023565540621483204
tp5339
(Vlobste.rs
p5340
F0.00016749410462020464
tp5341
(Vgwucolumbian.service-now.com
p5342
F0.00015106314765607595
tp5343
(Vdatatau.com
p5344
F0.0001409348825942487
tp5345
(Vnet-benefits.net
p5346
F0.00013016942453237583
tp5347
tp5348
s((S'fetchapp.com'
p5349
tp5350
(ttp5351
((Vcheckout.shopify.com
p5352
F0.03289034869667742
tp5353
(Vpixelunion.net
p5354
F0.014754481133273599
tp5355
(Vvfbpro.com
p5356
F0.006749764676306224
tp5357
(Vmovimus-wrestling.myshopify.com
p5358
F0.004611150121474517
tp5359
(Vsiteorigin.uservoice.com
p5360
F0.0013398333270103824
tp5361
(Vnivel7.zendesk.com
p5362
F0.0010256196709226026
tp5363
(Vlocalinternettraffic.basecamphq.com
p5364
F0.0007945726175017724
tp5365
(Vfindacaravan.co.uk
p5366
F0.000773582354640265
tp5367
(Vmygedlive.com
p5368
F0.0006667648984276862
tp5369
(Vsupergiantgames.com
p5370
F0.0006353591339866412
tp5371
(Vrubinmuseum.mooclients.com
p5372
F0.0005533319807440471
tp5373
(Vstore-ugs15e.mybigcommerce.com
p5374
F0.0005459376175282371
tp5375
(Vdowntownhq.com
p5376
F0.0005201510438608135
tp5377
(Vwebmail1.cogeco.ca
p5378
F0.0005121806493696923
tp5379
(Vccparkboard.com
p5380
F0.0005069670278806741
tp5381
(Vmy-cubby-house-rocks.myshopify.com
p5382
F0.000469641480868186
tp5383
(Vpredictablesuccess.com
p5384
F0.00046456904822288767
tp5385
(Vabookapart.com
p5386
F0.000443290002711978
tp5387
(Vjoridweb.com
p5388
F0.00037026980326331123
tp5389
(Vevanabrams.com
p5390
F0.00036538634981349104
tp5391
tp5392
s((S'instagram.com'
p5393
tp5394
(ttp5395
((Vask.fm
p5396
F0.009839861689494809
tp5397
(Vtwitter.com
p5398
F0.00852219868530378
tp5399
(Vt.co
p5400
F0.00590372865211456
tp5401
(Vtumblr.com
p5402
F0.0028467374135406447
tp5403
(Vbuzzfeed.com
p5404
F0.0021394192027941565
tp5405
(Viconosquare.com
p5406
F0.0021111893321816588
tp5407
(Vfacebook.com
p5408
F0.00192459481539883
tp5409
(Vvk.com
p5410
F0.0017823909564906018
tp5411
(Vwebsta.me
p5412
F0.001677039473359781
tp5413
(Vpinterest.com
p5414
F0.0016538952803498866
tp5415
(Vtwitch.tv
p5416
F0.000413087885165486
tp5417
(Vsprashivai.ru
p5418
F0.00037472447172838525
tp5419
tp5420
s((S'beta2.com'
p5421
tp5422
(ttp5423
((Vlogopond.com
p5424
F8.342355902882032e-05
tp5425
tp5426
s((S'imgur.com'
p5427
tp5428
(ttp5429
((Veksisozluk.com
p5430
F0.007959158123693156
tp5431
(Vsteamcommunity.com
p5432
F0.005482409223054582
tp5433
(Vl.moapi.net
p5434
F0.0042747932543380305
tp5435
(Vptt.cc
p5436
F0.004205827649589891
tp5437
(Vreddit.com
p5438
F0.002423451953582919
tp5439
(Vus.battle.net
p5440
F0.0023017082856949867
tp5441
(Vprntscr.com
p5442
F0.002184980056042118
tp5443
(Viamchucky.github.io
p5444
F0.002029496111172061
tp5445
(Vplurk.com
p5446
F0.0012164439471213228
tp5447
(Vgamefaqs.com
p5448
F0.0011121531273015387
tp5449
(Vflashback.org
p5450
F0.0010824160224589597
tp5451
(Vtwitch.tv
p5452
F0.0008429300641815612
tp5453
(Vboards.4chan.org
p5454
F0.0008128220671250406
tp5455
tp5456
s((S'mozilla.org'
p5457
tp5458
(ttp5459
((Vtrovi.com
p5460
F0.003908185540139704
tp5461
(Vastromenda.com
p5462
F0.003661281447262505
tp5463
(Vdefault-search.net
p5464
F0.003546628603773007
tp5465
(Vyandex.ru
p5466
F0.003418356746361168
tp5467
(Vhome.tb.ask.com
p5468
F0.002485574080687845
tp5469
(Vmystartsearch.com
p5470
F0.002372836999030979
tp5471
(Vgroovorio.com
p5472
F0.0021940789678751077
tp5473
(Vcr4.gogorithm.com
p5474
F0.0014396275046440782
tp5475
(Vistartsurf.com
p5476
F0.001407008639371235
tp5477
(Vcr2.gogorithm.com
p5478
F0.0011775681487276746
tp5479
(Vvosteran.com
p5480
F0.0011286580230675245
tp5481
(Vupdatesoftnow.com
p5482
F0.0011115485450116163
tp5483
(Vsearch.yahoo.com
p5484
F0.0010762443747588434
tp5485
(Vsweet-page.com
p5486
F0.0009996025717427229
tp5487
(Vhd-plugin.com
p5488
F0.0009837360668146014
tp5489
(Vget.adobe.com
p5490
F0.0008646924779831686
tp5491
(Vcij.campaignism.com
p5492
F0.0007996086228882707
tp5493
(Vieonline.microsoft.com
p5494
F0.0007893274514678609
tp5495
(Vaz307127.vo.msecnd.net
p5496
F0.0007404118225709963
tp5497
tp5498
s((S'guru99.com'
p5499
tp5500
(ttp5501
((Vtoolsqa.com
p5502
F0.005719466566131465
tp5503
(Vabap101.com
p5504
F0.003011493349875067
tp5505
(Vregistria.app.box.com
p5506
F0.0026405273456051367
tp5507
(Vhanelsoft.vn
p5508
F0.002062561850334693
tp5509
(Vassertselenium.com
p5510
F0.00195169518565124
tp5511
(Vseleniummadeeasy.blogspot.co.uk
p5512
F0.0017882739008798492
tp5513
(Vsaptraininghub.com
p5514
F0.0017882409332036706
tp5515
(Vqtpfaq.wordpress.com
p5516
F0.0017873677324844871
tp5517
(Vcodeodor.com
p5518
F0.0016453585640558656
tp5519
(Vmanage.hivelocity.net
p5520
F0.001623640201331385
tp5521
(Vsoftwaretestinggenius.com
p5522
F0.001583393157862956
tp5523
(Vcommunity.stresstimulus.com
p5524
F0.001557093159406643
tp5525
(Vtennisworlditalia.com
p5526
F0.0012915493611922993
tp5527
(Vroqit.sharepoint.com
p5528
F0.0010722141775454032
tp5529
(Vsyrinx.catsone.com
p5530
F0.0009775579010200494
tp5531
(Vculverlabs.co
p5532
F0.0009439906846807562
tp5533
(Vwebmail.trigma.co.in
p5534
F0.0008988027832973669
tp5535
(Vnewtours.demoaut.com
p5536
F0.0008537480868080438
tp5537
(Vajmadison.com
p5538
F0.0008427717137978187
tp5539
(Vin.playstation.com
p5540
F0.0008242438736899647
tp5541
tp5542
s((S'google.co.il'
p5543
tp5544
(ttp5545
((Vynet.co.il
p5546
F0.02090290556127998
tp5547
(Vwalla.co.il
p5548
F0.010178080865357519
tp5549
(Vmako.co.il
p5550
F0.009531641570181064
tp5551
(Vhe.wikipedia.org
p5552
F0.005168147982441724
tp5553
(Vone.co.il
p5554
F0.004797051193030695
tp5555
(Vsport5.co.il
p5556
F0.004629557192589989
tp5557
(Vpanet.co.il
p5558
F0.004466318634153449
tp5559
(Vyad2.co.il
p5560
F0.004239283102327047
tp5561
(Vfxp.co.il
p5562
F0.004224135214989242
tp5563
(Vil.msn.com
p5564
F0.0025525166492135123
tp5565
(Vjewishjournal.com
p5566
F0.0016738899904644618
tp5567
(Vhaaretz.co.il
p5568
F0.0011658029360413589
tp5569
tp5570
s((S'welcometonightvale.com'
p5571
tp5572
(ttp5573
((Vkaramicrabbit.tumblr.com
p5574
F0.046660274848194315
tp5575
(Vassbutt-inthetardis-withsherlock.tumblr.com
p5576
F0.02699022905654333
tp5577
(Vheard-comic.com
p5578
F0.02576808721506442
tp5579
(Vnightvale.libsyn.com
p5580
F0.0030840219412858728
tp5581
(Vnightvale.bandcamp.com
p5582
F0.0029100392034955014
tp5583
(Vforum.ianti-virus.com
p5584
F0.0009595825158807621
tp5585
(Vtopatoco.com
p5586
F8.365148782536246e-05
tp5587
(Vpodbay.fm
p5588
F1.5005313972050512e-05
tp5589
(Vnationstates.net
p5590
F1.3306299935942108e-05
tp5591
(Vkhanacademy.org
p5592
F3.1321865143484366e-06
tp5593
(Vitunes.apple.com
p5594
F1.3008854342133617e-06
tp5595
(Vp1.dntrck.com
p5596
F5.811641924690855e-07
tp5597
(Vamazon.co.uk
p5598
F4.0711242932196677e-07
tp5599
(Vetsy.com
p5600
F2.412140427903423e-07
tp5601
(Vtumblr.com
p5602
F8.782749462968333e-08
tp5603
(Vmail.google.com
p5604
F2.9178958487822285e-08
tp5605
(Vgoogle.com
p5606
F1.0780567744388767e-08
tp5607
(Vyoutube.com
p5608
F4.510915729903013e-10
tp5609
tp5610
s((S'alpha14.com'
p5611
tp5612
(ttp5613
((Vdofusbook.net
p5614
F0.0006337329293461555
tp5615
tp5616
s((S'happyassassin.net'
p5617
tp5618
(ttp5619
((Vmndm.gov.on.ca
p5620
F0.04298894933263563
tp5621
(Veriberto.pro.br
p5622
F0.01202062754212667
tp5623
(Vblog.hansenpartnership.com
p5624
F0.011842526405633201
tp5625
(Vcalm.aber.ac.uk
p5626
F0.011433569710412046
tp5627
(Vbugs.freedesktop.org
p5628
F0.0009542923479526986
tp5629
(Vsandboxie.com
p5630
F0.0007907844422448724
tp5631
(Vmanyland.com
p5632
F0.0007040551653256227
tp5633
(Vmarc.info
p5634
F0.0005867879121690093
tp5635
(Vforums.opensuse.org
p5636
F0.0005194968302130223
tp5637
(Veeti.com.tw
p5638
F0.0005194955121359924
tp5639
(Vimaginecup.com
p5640
F0.0003215762268482594
tp5641
(V4sysops.com
p5642
F0.00014510480483848856
tp5643
(Vanimeultima.tv
p5644
F0.0001281134603127242
tp5645
(Vthomas-krenn.com
p5646
F7.921381869224323e-05
tp5647
(Vjustinguitar.com
p5648
F6.288087035151911e-05
tp5649
(Vcomputer.howstuffworks.com
p5650
F2.4267097954854636e-05
tp5651
(Vcompileonline.com
p5652
F2.3703323624266067e-05
tp5653
(Vsevenforums.com
p5654
F2.367194472127469e-06
tp5655
(Vtechnet.microsoft.com
p5656
F2.1155661906668695e-06
tp5657
(Vaccounts.google.com
p5658
F1.3084216140549257e-07
tp5659
tp5660
s((S'npmjs.com'
p5661
tp5662
(ttp5663
((Vnodesource.com
p5664
F0.002475681191626671
tp5665
(Vcodeforgeek.com
p5666
F0.0015223448358876865
tp5667
(Vjjasonclark.com
p5668
F0.0012831416081046803
tp5669
(Vizs.me
p5670
F0.0007100516689384093
tp5671
(Vtrans.intel.com
p5672
F0.0004883046672334489
tp5673
(Valamut.optimizasas.com
p5674
F0.0004459434402893469
tp5675
(Vblog.nodejs.org
p5676
F0.00042721844760140005
tp5677
(Vnodejsmodules.org
p5678
F0.0004185635432821385
tp5679
(Vapp.fastly.com
p5680
F0.00041488571345869955
tp5681
(Vnpm-inc.slack.com
p5682
F0.00036155499200505155
tp5683
(Vchabotspace.org
p5684
F0.0003207799923645326
tp5685
(Vaccel.com
p5686
F0.0002820650338676678
tp5687
(Vscottksmith.com
p5688
F0.00021685254027261461
tp5689
(Vnasdaqprivatemarket.com
p5690
F0.00019315488793301982
tp5691
(Vgithub.fctechno.com
p5692
F0.0001924153372516093
tp5693
(Vhapijs.com
p5694
F0.0001878925730829334
tp5695
(Vnpm.com
p5696
F0.0001531924863591102
tp5697
(Vlocal.roskilde-festival.dk
p5698
F0.00015076612999214429
tp5699
(Vws-i.org
p5700
F0.00014700851801278407
tp5701
(Vbooks.google.co.in
p5702
F3.5309301524327415e-05
tp5703
tp5704
s((S'hotmail.com'
p5705
tp5706
(ttp5707
((Vstartpagina.nl
p5708
F0.0033795478641330968
tp5709
(Vsignout.live.com
p5710
F0.0019536193173443693
tp5711
(Vaccount.mojang.com
p5712
F0.0011799134425937946
tp5713
(Vde.msn.com
p5714
F0.0009699166517050574
tp5715
(Vgoogle.co.ve
p5716
F0.0006409109624436532
tp5717
(Vpesquisaweb.com.br
p5718
F0.0006155523385053518
tp5719
(Vlogin.skype.com
p5720
F0.0005895501588447668
tp5721
(Vsearch.sidecubes.com
p5722
F0.0005731926797966754
tp5723
(Vfr.wow.com
p5724
F0.0005031414370583318
tp5725
(Vsearch.hao123.com.br
p5726
F0.0004901181822968964
tp5727
(Vtwitch.tv
p5728
F0.00040739971987316105
tp5729
(Vaccount.live.com
p5730
F0.0003368996069412944
tp5731
(Vhumblebundle.com
p5732
F0.00032895974347243637
tp5733
(Vsearch.findwide.com
p5734
F0.00028479862167211977
tp5735
(Vminecraft.net
p5736
F0.00024431603156685087
tp5737
(Vgoogle.com.ec
p5738
F0.00021696344549993276
tp5739
(Vus.battle.net
p5740
F0.00020060590540145736
tp5741
(Vstore.steampowered.com
p5742
F0.00018927089713552498
tp5743
(Vsteamcommunity.com
p5744
F0.0001840770810935155
tp5745
tp5746
s((S'chrome.com'
p5747
tp5748
(ttp5749
(ts((S'alpha3.com'
p5750
tp5751
(ttp5752
((Vanimeq.com.br
p5753
F2.1789299758136615e-06
tp5754
tp5755
s((S'amazon.co.uk'
p5756
tp5757
(ttp5758
((Vhotukdeals.com
p5759
F0.009607538119142368
tp5760
(Vebay.co.uk
p5761
F0.008784920218691808
tp5762
(Vsignup.ask4.com
p5763
F0.004451023000148134
tp5764
(Vargos.co.uk
p5765
F0.003516693019612358
tp5766
(Vgoogle.co.uk
p5767
F0.0033173248895694944
tp5768
(Vuk-mg42.mail.yahoo.com
p5769
F0.0026420618576403648
tp5770
(Vbbc.co.uk
p5771
F0.00241704974016918
tp5772
(Vlovefilm.com
p5773
F0.0018107881897302233
tp5774
(Vtesco.com
p5775
F0.0017671562317682302
tp5776
(Vgame.co.uk
p5777
F0.0012513572163597596
tp5778
(Vjohnlewis.com
p5779
F0.0006249988359875704
tp5780
(Vbtmail.bt.com
p5781
F0.00044421611594085137
tp5782
tp5783
s((S'goldsteintech.com'
p5784
tp5785
(ttp5786
(ts((S'netshaker.co.uk'
p5787
tp5788
(ttp5789
((Vs.viralstat.com
p5790
F0.08303781984556848
tp5791
(Vbdizz.exclusiverewards.awardsgirl.biz
p5792
F0.018150694621282857
tp5793
(Vlovely-mature.net
p5794
F0.017122762063005892
tp5795
(Vbigjuicymelons.com
p5796
F0.011049723756906077
tp5797
(Vnakedebonybeauties.com
p5798
F0.008958246055020248
tp5799
(Vstolenvideos.net
p5800
F0.003976740870233645
tp5801
(Vwordsjournal.com
p5802
F0.0032121879588839944
tp5803
(Varcadenewsco.com
p5804
F0.002776322682032478
tp5805
(Vclick.trafficholder.com
p5806
F0.0008243004934314452
tp5807
(Vmediaseed.info
p5808
F0.0006353511983892364
tp5809
(Vgermanporntube.biz
p5810
F0.0005585864040069265
tp5811
(Vgo.trafficshop.com
p5812
F0.00034242830071300385
tp5813
(Vlargepornfilms.com
p5814
F0.00010685187436135079
tp5815
(Vsexmovies1.com
p5816
F5.778871482713951e-05
tp5817
(Vhourfreeporn.com
p5818
F1.0513650990155937e-05
tp5819
(Vhugedomains.com
p5820
F3.578901096140947e-06
tp5821
(Vbestvideos.xxx
p5822
F1.6135779356125929e-06
tp5823
(Vclick.cpvrdr.com
p5824
F8.692509107025027e-07
tp5825
(Vpornvideoxo.com
p5826
F2.976233159891486e-07
tp5827
(Voffers.bycontext.com
p5828
F9.440065557229909e-08
tp5829
tp5830
s((S'alpha4.com'
p5831
tp5832
(ttp5833
((Vgoogle.com.au
p5834
F8.213878316722479e-08
tp5835
tp5836
s((S'techonthenet.com'
p5837
tp5838
(ttp5839
(ts((S'highlightjs.org'
p5840
tp5841
(ttp5842
((Vpc035860.github.io
p5843
F0.010335118319770248
tp5844
(Vnewday.name
p5845
F0.007221323816427815
tp5846
(V0719fe55bbae4d421d6b3e0dc691d65fae7b028e.googledrive.com
p5847
F0.006422626357133111
tp5848
(Vronoaldo-159361.use1.nitrousbox.com
p5849
F0.002660013683440678
tp5850
(Vsugarrushva.my03.com
p5851
F0.002246395765697844
tp5852
(Vsoftwaremaniacs.org
p5853
F0.002030453152175975
tp5854
(Vprismjs.com
p5855
F0.002014716480822872
tp5856
(Vmaxiang.info
p5857
F0.001863840502840374
tp5858
(Vcp-hosting.jino.ru
p5859
F0.00170624855891169
tp5860
(Vh.it-dev.ithome.com.tw
p5861
F0.0010742351837380157
tp5862
(Vdev.docs.umi-cms.ru
p5863
F0.0010494647729657875
tp5864
(Vchartjs.org
p5865
F0.0010486345805046495
tp5866
(Vdown.chinaz.com
p5867
F0.001011902412418411
tp5868
(Vwebdesignshock.com
p5869
F0.0009830343547259544
tp5870
(Vindianconsultancyinfo.blogspot.in
p5871
F0.0009330088085303663
tp5872
(Vgetskel.com
p5873
F0.000928254071250259
tp5874
(Vithome.slack.com
p5875
F0.000822522283999647
tp5876
(Vtrac.intranet.peoplesearchmedia.com
p5877
F0.000816316730891586
tp5878
(Vbi-landtrust.org
p5879
F0.0007971797551772396
tp5880
(Vaahanblog.com
p5881
F0.0007859217495301555
tp5882
tp5883
s((S'stackoverflow.com'
p5884
tp5885
(ttp5886
(ts((S'cracked.com'
p5887
tp5888
(ttp5889
((Vlistverse.com
p5890
F0.002726385758898505
tp5891
(Vcollegehumor.com
p5892
F0.002107328674389131
tp5893
(Varchive.today
p5894
F0.0016765785990839604
tp5895
(Vescapistmagazine.com
p5896
F0.0016443018805989268
tp5897
(Vdorkly.com
p5898
F0.0015727526783965238
tp5899
(Vsmbc-comics.com
p5900
F0.0014025142688979721
tp5901
(Vtheonion.com
p5902
F0.0012152073952430848
tp5903
(Voddee.com
p5904
F0.0008038470483622185
tp5905
(Vavclub.com
p5906
F0.0007375924550347175
tp5907
(Vexplosm.net
p5908
F0.0007325112118358349
tp5909
(Vthechive.com
p5910
F0.0006896736374762467
tp5911
(Vmentalfloss.com
p5912
F0.0004837719810559199
tp5913
(Vbuzzfeed.com
p5914
F0.00045508882873294493
tp5915
tp5916
s((S'abc.com'
p5917
tp5918
(ttp5919
((Vmeetabsolut.com
p5920
F0.0031955386784506094
tp5921
(Vopen.discuz.net
p5922
F0.0028337582997703895
tp5923
(Vyazhou.tmall.com
p5924
F0.002802578453825836
tp5925
(Vlakeb2b.com
p5926
F0.0025841774127784573
tp5927
(Vcms.abcdmedia.com
p5928
F0.001587606989071278
tp5929
(Vapp.abcnews.go.com
p5930
F0.0015192742210007107
tp5931
(Vabcjira.disney.com
p5932
F0.0012591874858150457
tp5933
(Vmodernfamily.com
p5934
F0.0012107782345300523
tp5935
(Vbig-daddy.foodtecsolutions.com
p5936
F0.0012037987465471631
tp5937
(Vriplbugzilla.ripl.ricoh.com
p5938
F0.0011962024684307715
tp5939
(Vqa.api.watchabc.go.com
p5940
F0.0011943870020886247
tp5941
(Vapi.bleacherreport.com
p5942
F0.001171328635838596
tp5943
(Vrampholdings.basecamphq.com
p5944
F0.0008524808967788638
tp5945
(Vsecure.mashery.com
p5946
F0.0008438503781991504
tp5947
(Vlimelight.service-now.com
p5948
F0.0007969756363028618
tp5949
(Vdatamapper.com
p5950
F0.0007877611733532446
tp5951
(Vabcjira.corp.dig.com
p5952
F0.0007119620105955248
tp5953
(Vkimkardashian.celebuzz.com
p5954
F0.0006931630338676814
tp5955
(Vecl.ecyber.com
p5956
F0.0006539975303919972
tp5957
(Vcolliers.ivivacloud.com
p5958
F0.0006473558318697716
tp5959
tp5960
s((S'apidock.com'
p5961
tp5962
(ttp5963
((Vapi.rubyonrails.org
p5964
F0.004283722809508841
tp5965
(Vlogentries.com
p5966
F0.0031281175847644965
tp5967
(Vguides.rubyonrails.org
p5968
F0.0014298972896033487
tp5969
(Vbsonspec.org
p5970
F0.0013823136499941477
tp5971
(Vadtaily.hackpad.com
p5972
F0.0013067944421232297
tp5973
(Vadmin.revieworld.com
p5974
F0.0012428262182843334
tp5975
(Vsportngin.atlassian.net
p5976
F0.000914667802116352
tp5977
(Vrailsdoc.com
p5978
F0.0008941412847720574
tp5979
(Vgsubbarao.com
p5980
F0.0008810756888817209
tp5981
(Vruby-doc.org
p5982
F0.000875561057367794
tp5983
(Vgotealeaf.campfirenow.com
p5984
F0.0008217247009736729
tp5985
(Vruby-forum.com
p5986
F0.0007341966194683126
tp5987
(Vrequiremind.com
p5988
F0.0006038566509753178
tp5989
(V3edge.in
p5990
F0.0006037040162545684
tp5991
(Vcapterrapaulo.aws.af.cm
p5992
F0.0005021993641797336
tp5993
(Vstrftimer.com
p5994
F0.0005021070563973819
tp5995
(Vclojuredocs.org
p5996
F0.0004751783760686909
tp5997
(Vwebmail.abril.com.br
p5998
F0.00046069404857109657
tp5999
(Vnvcad.nvidia.com
p6000
F0.0004513071790077689
tp6001
(Vruby.about.com
p6002
F0.0004484059714551321
tp6003
tp6004
s((S'lodash.com'
p6005
tp6006
(ttp6007
((Vnpmjs.org
p6008
F0.009589273778824653
tp6009
(Vunderscorejs.org
p6010
F0.007571979538976456
tp6011
(Vangular-ui.github.io
p6012
F0.0029675898311779716
tp6013
(Vlocalhost.jam3.net
p6014
F0.002377031407181265
tp6015
(Vpa.staging-cauth.factset.com
p6016
F0.00209499866681903
tp6017
(Vgithub.va.opower.it
p6018
F0.001964117417781993
tp6019
(Vdevdocs.io
p6020
F0.001877080163686683
tp6021
(Vgithub.ua.com
p6022
F0.0017646045688696824
tp6023
(Vbackbonejs.org
p6024
F0.0014656836702782712
tp6025
(Vgithub.yandex-team.ru
p6026
F0.0012739152585747456
tp6027
(Vblog.codecentric.de
p6028
F0.001212875661246421
tp6029
(Vmydatacards.com
p6030
F0.0009981420548767995
tp6031
(Vthoraxjs.org
p6032
F0.0008747890308158014
tp6033
(Vkitcheck.invisionapp.com
p6034
F0.0008682676282988721
tp6035
(Vwebradar.slack.com
p6036
F0.0008432386315725078
tp6037
(Vmomentjs.com
p6038
F0.0008407096971832771
tp6039
(Vmukesh.next.in-dev.projectplace.com
p6040
F0.0007987947036965482
tp6041
(Vwiki.nginx.org
p6042
F0.0007610293991208612
tp6043
(Vexport.ngrok.com
p6044
F0.0007502959434867858
tp6045
(Vsublimecodeintel.github.io
p6046
F0.0006802616645388807
tp6047
tp6048
s((S'lwn.net'
p6049
tp6050
(ttp6051
((Vsuccessfulsoftware.net
p6052
F0.005252112500049234
tp6053
(Vlinuxfr.org
p6054
F0.004822843418206723
tp6055
(Vghzl.co
p6056
F0.0034472746606284085
tp6057
(Vphoronix.com
p6058
F0.002768949835679411
tp6059
(Vlinux-bg.org
p6060
F0.0026851094101852297
tp6061
(Vbugs.freedesktop.org
p6062
F0.002523399741763606
tp6063
(Vrt.wiki.kernel.org
p6064
F0.002237663304438635
tp6065
(Vrajalanetti.com
p6066
F0.002206267253682163
tp6067
(Vsimepar.br
p6068
F0.0018997695554617766
tp6069
(Vlxer.com
p6070
F0.0016418547532840177
tp6071
(Vplanet.postgresql.org
p6072
F0.0016138535921117138
tp6073
(Vnorrod.nl
p6074
F0.0014726421294774892
tp6075
(Vwebmail.delaval.com
p6076
F0.001380474439094912
tp6077
(Velementarynow.com
p6078
F0.0012930064543167485
tp6079
(Vusers.csc.calpoly.edu
p6080
F0.001283081096542379
tp6081
(Vbeyond3d.com
p6082
F0.0012644611077741394
tp6083
(V100ask.org
p6084
F0.0012163660952326189
tp6085
(Vanandtech.com
p6086
F0.001147878137408774
tp6087
(Vohjelmointiputka.net
p6088
F0.00110908323285851
tp6089
(Vwebmail.alltele.net
p6090
F0.0010886146327560872
tp6091
tp6092
s((S'keyvalue.org'
p6093
tp6094
(ttp6095
((Vrubygems.org
p6096
F1.8680492428768945e-05
tp6097
(Vgithub.com
p6098
F3.475709217831192e-07
tp6099
tp6100
s((S'espn.com.ar'
p6101
tp6102
(ttp6103
((Vscrum.com.ar
p6104
F0.010993594299895673
tp6105
(Vespndeportes.espn.go.com
p6106
F0.007175210794359291
tp6107
(Vespndeportes.com.ar
p6108
F0.00467576688317078
tp6109
(Vaplenorugby.com.ar
p6110
F0.003594119177539684
tp6111
(Vxdvideos.blogspot.de
p6112
F0.0025050439398247824
tp6113
(Vresultados.com
p6114
F0.0019467364624908923
tp6115
(Vrugbyfun.com.ar
p6116
F0.001777218018291617
tp6117
(Vrugbytime.com
p6118
F0.0017688796243421857
tp6119
(Vmanagerzone.com
p6120
F0.001547500413386392
tp6121
(Vunsa.edu.pe
p6122
F0.0013063543469877495
tp6123
(Ves.atpworldtour.com
p6124
F0.000966622250736153
tp6125
(Vtycsports.com
p6126
F0.0008485692676388447
tp6127
(Vtorneoriverplatense.foroargentina.net
p6128
F0.0007318500107197493
tp6129
(Vuar.com.ar
p6130
F0.0006951635653525864
tp6131
(Vbasquetcaliente.com
p6132
F0.0005458159235797727
tp6133
(Vtenfieldigital.com.uy
p6134
F0.0004922685071378933
tp6135
(Vurubasket.com
p6136
F0.0004907004701968754
tp6137
tp6138
s((S'linkedin.com'
p6139
tp6140
(ttp6141
((Vxing.com
p6142
F0.0035272738274342397
tp6143
(Vus-mg6.mail.yahoo.com
p6144
F0.0034621026445398524
tp6145
(Vmail.google.com
p6146
F0.00285240789862983
tp6147
(Vtwitter.com
p6148
F0.0023210936167840177
tp6149
(Ve.mail.ru
p6150
F0.0017568898115882413
tp6151
(Vviadeo.com
p6152
F0.0017304525049372677
tp6153
(Vindeed.com
p6154
F0.001351932687287556
tp6155
(Vdub126.mail.live.com
p6156
F0.0012331686466150727
tp6157
(Vapi.addthis.com
p6158
F0.000836236539960899
tp6159
(Vfacebook.com
p6160
F0.0007638182750437176
tp6161
(Vbehance.net
p6162
F0.00029182320364485996
tp6163
(Voutlook.office365.com
p6164
F0.0002846521831975362
tp6165
tp6166
s((S'alibaba.com'
p6167
tp6168
(ttp6169
(ts((S'mobileread.com'
p6170
tp6171
(ttp6172
(ts((S'alpha46.com'
p6173
tp6174
(ttp6175
(ts((S'overviewproject.org'
p6176
tp6177
(ttp6178
((Voverview.com
p6179
F0.013548319859454793
tp6180
(Vlittlesis.org
p6181
F0.012921384251263353
tp6182
(Velroys.bandcamp.com
p6183
F0.005604719764011799
tp6184
(Vfisglobalprod.service-now.com
p6185
F0.0027371091709573916
tp6186
(Voverview.ap.org
p6187
F0.0026836158192090395
tp6188
(Vwiki.galaxyproject.org
p6189
F0.002043501888555042
tp6190
(Vchannelkit.com
p6191
F0.0017293196382374887
tp6192
(Vefiling.drcor.mcit.gov.cy
p6193
F0.0014768824178119791
tp6194
(Vdscolourlabsupload.livelinkprint.com
p6195
F0.0012329816091058937
tp6196
(Vtestitradotti.wikitesti.com
p6197
F0.0010093570123032435
tp6198
(Vpastehtml.com
p6199
F0.0007975083253402882
tp6200
(Vdocumentcloud.org
p6201
F0.00046667221128699875
tp6202
(Vocw.mit.edu
p6203
F0.00011461168173759792
tp6204
(Vvimeo.com
p6205
F5.400773335620366e-07
tp6206
(Vwolframalpha.com
p6207
F2.920683330121841e-07
tp6208
(Vdrive.google.com
p6209
F1.603062489110311e-07
tp6210
(Vmail.google.com
p6211
F2.1876544812566715e-08
tp6212
tp6213
s((S'oracle-base.com'
p6214
tp6215
(ttp6216
(ts((S'alpha43.com'
p6217
tp6218
(ttp6219
(ts((S'alpha19.com'
p6220
tp6221
(ttp6222
(ts((S'ebay.co'
p6223
tp6224
(ttp6225
((Vhellospy.com
p6226
F0.005177550920724857
tp6227
(Vrebelsmarket.com
p6228
F0.0005491041467531676
tp6229
(Vshapefit.com
p6230
F0.0004141026011421527
tp6231
(Vdandwiki.com
p6232
F0.0003587106615425603
tp6233
(Vlastcall.com
p6234
F0.00026525258064012805
tp6235
(Vteenvogue.com
p6236
F0.00015161079116054492
tp6237
(Vtechtimes.com
p6238
F0.00011506358240409716
tp6239
(Velitesecurity.org
p6240
F9.430181295235401e-05
tp6241
(Vi.rietumu.lv
p6242
F7.968053663914909e-05
tp6243
(Vbigbadtoystore.com
p6244
F6.218557419049928e-05
tp6245
(Vrense.com
p6246
F1.8313178990648464e-05
tp6247
(Vjofogas.hu
p6248
F7.2650310444479825e-06
tp6249
(Vs.taobao.com
p6250
F4.016817948772722e-06
tp6251
(Vkeep.google.com
p6252
F3.7294146250969885e-06
tp6253
(Vsweet-page.com
p6254
F6.001653733854772e-07
tp6255
(Vamazon.com
p6256
F5.676054551839604e-07
tp6257
(Vgoogle.com.br
p6258
F1.2066006231720475e-08
tp6259
(Vgoogle.com
p6260
F6.338193108873472e-09
tp6261
(Vfacebook.com
p6262
F3.8903125658133814e-10
tp6263
tp6264
s((S'beta9.com'
p6265
tp6266
(ttp6267
(ts((S'caltech.edu'
p6268
tp6269
(ttp6270
(ts((S'sarasoueidan.com'
p6271
tp6272
(ttp6273
(ts((S'microsoftonline.com'
p6274
tp6275
(ttp6276
((Voutlook.office365.com
p6277
F0.024347605660153537
tp6278
(Vportal.office.com
p6279
F0.011690434932379782
tp6280
(Vemail.osu.edu
p6281
F0.006910995116528097
tp6282
(Vmicorreo.utch.edu.co
p6283
F0.004660257010817195
tp6284
(Vpod51034.outlook.com
p6285
F0.0035024387091754116
tp6286
(Vextranet.cst.ucf.edu
p6287
F0.002850235653695134
tp6288
(Vpod51036.outlook.com
p6289
F0.0023747886761452605
tp6290
(Vonedrive.live.com
p6291
F0.0020998770637864705
tp6292
(Vcygnus.cc.kuleuven.be
p6293
F0.0015074970028902178
tp6294
(Vcorreo.ulpgc.es
p6295
F0.0014246748936958325
tp6296
(Vpod51035.outlook.com
p6297
F0.0013341279960284724
tp6298
(Vportal.unitec.edu
p6299
F0.0007402917339882808
tp6300
(Vmyoffice.bt.com
p6301
F0.0007339432560181329
tp6302
(Vmicorreo.javeriana.edu.co
p6303
F0.000595836499246719
tp6304
(Vcocorou.jp
p6305
F0.0005824237235714597
tp6306
(Vintranet.upc.edu.pe
p6307
F0.0005785024765138494
tp6308
tp6309
s((S'brentozar.com'
p6310
tp6311
(ttp6312
(ts((S'wolframalpha.com'
p6313
tp6314
(ttp6315
((Vwebassign.net
p6316
F0.006517849643425926
tp6317
(Vmathworld.wolfram.com
p6318
F0.003393997804121385
tp6319
(Vtutorial.math.lamar.edu
p6320
F0.0032305370516692486
tp6321
(Vmathxl.com
p6322
F0.002903553433297141
tp6323
(Vsymbolab.com
p6324
F0.0026494218523835946
tp6325
(Vpurplemath.com
p6326
F0.0023617804926934385
tp6327
(Vquest.cns.utexas.edu
p6328
F0.0022502976628350187
tp6329
(Vmath.stackexchange.com
p6330
F0.0021096126650983816
tp6331
(Vdesmos.com
p6332
F0.0016572406004577939
tp6333
(Vchegg.com
p6334
F0.0011195735650166758
tp6335
(Vmathway.com
p6336
F0.0008791764257050895
tp6337
tp6338
s((S'alpha24.com'
p6339
tp6340
(ttp6341
(ts((S'joyent.com'
p6342
tp6343
(ttp6344
((Vcampaignanalytics.myacxiomtest.com
p6345
F0.007656653535002253
tp6346
(Vnumber-none.com
p6347
F0.005462783823445065
tp6348
(Vpkgsrc.smartos.org
p6349
F0.005407598258175054
tp6350
(Vapi.test.welike.ru
p6351
F0.004273914611325554
tp6352
(Vlescoupains.slack.com
p6353
F0.0033319372702312815
tp6354
(Vgadgetsvooriphone.nl
p6355
F0.003100892886924377
tp6356
(Veinsights.atlassian.net
p6357
F0.002615584326266742
tp6358
(Vonehungrymind.com
p6359
F0.002407876940074788
tp6360
(Vinternap.com
p6361
F0.0022029664249209368
tp6362
(Vengineering.gosquared.com
p6363
F0.0018869293852964656
tp6364
(Vspringpad.com
p6365
F0.0017024582812026898
tp6366
(Vsmartos.org
p6367
F0.0016777105888884866
tp6368
(Vjoyentcloud.com
p6369
F0.001627445909835359
tp6370
(Vnodejs.org
p6371
F0.001574777926200704
tp6372
(Vdev3.unique-cottages.com
p6373
F0.0014837016016750098
tp6374
(Vmediotype.com
p6375
F0.0014024307406130148
tp6376
(Vdeldan.com
p6377
F0.001394599847901454
tp6378
(Vnodeweekly.com
p6379
F0.001343872013715105
tp6380
(Vhueniverse.com
p6381
F0.0012569674115744031
tp6382
(Vmy.joyentcloud.com
p6383
F0.0012517293629356347
tp6384
tp6385
s((S'toyota.com'
p6386
tp6387
(ttp6388
((Vqa.specificmedia.com
p6389
F0.02042095613104565
tp6390
(Vautomobiles.honda.com
p6391
F0.016338080322730805
tp6392
(Vnissanusa.com
p6393
F0.009795714948433232
tp6394
(Vlexus.com
p6395
F0.0067516003806337745
tp6396
(Vford.com
p6397
F0.00559533209166779
tp6398
(Vchevrolet.com
p6399
F0.005139097555811134
tp6400
(Vhyundaiusa.com
p6401
F0.0050815929254295995
tp6402
(Vsubaru.com
p6403
F0.0049315665645608174
tp6404
(Vtoyotafinancial.com
p6405
F0.003137881281160016
tp6406
(Vmazdausa.com
p6407
F0.0014695901289885416
tp6408
(Vkia.com
p6409
F0.0013766102337624071
tp6410
(Vvw.com
p6411
F0.0013534451070939724
tp6412
(Vtoyotadurability.com
p6413
F0.0012774832505814773
tp6414
(Vtickets.theportalgrp.com
p6415
F0.001198841472260434
tp6416
(Vscion.com
p6417
F0.0011852406513489999
tp6418
tp6419
s((S'yahoo.com'
p6420
tp6421
(ttp6422
((Vsearch.safefinder.com
p6423
F0.009634514947491827
tp6424
(Vfacebook.com
p6425
F0.009307743324214716
tp6426
(Vgoogle.com
p6427
F0.007993397163605226
tp6428
(Vdefault-search.net
p6429
F0.00638461452160443
tp6430
(Vyoutube.com
p6431
F0.00588895962389419
tp6432
(Vistart.webssearches.com
p6433
F0.004950212773619762
tp6434
(Vmysearch.avg.com
p6435
F0.003889205065770996
tp6436
(Vtrovi.com
p6437
F0.003690493176671326
tp6438
(Vreddit.com
p6439
F0.003380895730880115
tp6440
(Vmsn.com
p6441
F0.0033709754356519212
tp6442
(Vhome.tb.ask.com
p6443
F0.003246479649348346
tp6444
(Vbing.com
p6445
F0.001870128319245984
tp6446
(Vcr2.gogorithm.com
p6447
F0.0017706224180467011
tp6448
tp6449
s((S'live.com'
p6450
tp6451
(ttp6452
((Vhotmail.com
p6453
F0.03407584705530906
tp6454
(Vgoogle.com.br
p6455
F0.009265640436663175
tp6456
(Vmsn.com
p6457
F0.005826312472339241
tp6458
(Voutlook.com
p6459
F0.005581978726363533
tp6460
(Vistart.webssearches.com
p6461
F0.004093831585578022
tp6462
(Vfacebook.com
p6463
F0.004037818878021313
tp6464
(Vtrovi.com
p6465
F0.0035716095806425908
tp6466
(Vsearch.safefinder.com
p6467
F0.0032300633341410773
tp6468
(Vsearch.sidecubes.com
p6469
F0.0025310821336464863
tp6470
(Vhome.tb.ask.com
p6471
F0.0021570512124755577
tp6472
(Vistartsurf.com
p6473
F0.0010630926812854498
tp6474
(Vsearch.ask.com
p6475
F0.0009246157662065858
tp6476
tp6477
s((S'astralapp.com'
p6478
tp6479
(ttp6480
(ts((S'giflike.com'
p6481
tp6482
(ttp6483
((V192.168.33.10.xip.io
p6484
F0.0029944838455476758
tp6485
(Vprmptr.com
p6486
F0.0027936549891153916
tp6487
(Vdev.comingsoon.net
p6488
F0.0027169735774319596
tp6489
(Vkonwertujplika.pl
p6490
F0.002401999311191374
tp6491
(Vbulletinboards.1800runaway.org
p6492
F0.0020535507537810926
tp6493
(Vquick-break.net
p6494
F0.001965415682500802
tp6495
(Vgoogleglass.blog.jp
p6496
F0.001888773352221067
tp6497
(Vevolutionmedia.pl
p6498
F0.001575418658488921
tp6499
(Vyt2gif.com
p6500
F0.0015676074246532394
tp6501
(Vcomicbooksfrombrazil.tumblr.com
p6502
F0.001191175510736897
tp6503
(Vbeiz.jp
p6504
F0.0010855741344639473
tp6505
(Vmcclan.joriscoenen.nl
p6506
F0.0009896366918257403
tp6507
(Vcollegefootball.rivals.com
p6508
F0.0007786256730771759
tp6509
(Vanpfoto.nl
p6510
F0.00061065570348849
tp6511
(Vjstatham.com
p6512
F0.0005371080090636977
tp6513
(Vstereotronique.com
p6514
F0.000497382524465003
tp6515
(Vmongolia.seesaa.net
p6516
F0.00046012774022502435
tp6517
(V538.nl
p6518
F0.00045926873481025435
tp6519
(Veverydayhero.com.au
p6520
F0.0004583765311216065
tp6521
(Vgifmake.com
p6522
F0.00042351304067237734
tp6523
tp6524
s((S'codinghorror.com'
p6525
tp6526
(ttp6527
(ts((S'lego.com'
p6528
tp6529
(ttp6530
(ts((S'alpha32.com'
p6531
tp6532
(ttp6533
(ts((S'shawarma-time.com'
p6534
tp6535
(ttp6536
(ts((S'nodejs.org'
p6537
tp6538
(ttp6539
((Vnpmjs.org
p6540
F0.052409661337086105
tp6541
(Vjoyent.com
p6542
F0.007351561156388441
tp6543
(Vsublime.wbond.net
p6544
F0.003073132718141977
tp6545
(Vdocs.angularjs.org
p6546
F0.001574110665611822
tp6547
(Vdevcenter.heroku.com
p6548
F0.0015366532457436828
tp6549
(Vgithub.com
p6550
F0.0012227627639955184
tp6551
(Vcnodejs.org
p6552
F0.0010209300693521325
tp6553
(Vexpressjs.com
p6554
F0.0008330170388315085
tp6555
(V4.cn
p6556
F0.0006356454753574265
tp6557
(Vhowtonode.org
p6558
F0.0006255531085389839
tp6559
(Vjetbrains.com
p6560
F0.0005101985440803224
tp6561
(Vcordova.apache.org
p6562
F0.0004781782751358757
tp6563
(Vjxcore.com
p6564
F0.0004499365153167975
tp6565
(Vgit-scm.com
p6566
F0.00037663157036173423
tp6567
(Vmongodb.org
p6568
F0.00037044058643897516
tp6569
(Vnodeschool.io
p6570
F0.00032931842272583485
tp6571
(Vandrew.cmu.edu
p6572
F0.0003280903620817059
tp6573
tp6574
s((S'alpha31.com'
p6575
tp6576
(ttp6577
(ts((S'practicingruby.com'
p6578
tp6579
(ttp6580
((Velmcitycraftworks.org
p6581
F0.023109641123805664
tp6582
(Vhartsem.edu
p6583
F0.01576023487552252
tp6584
(Vvdumoulin.github.io
p6585
F0.014616148715765574
tp6586
(Vblog.rubybestpractices.com
p6587
F0.014336265722118734
tp6588
(Vletter.ly
p6589
F0.009270472292980331
tp6590
(Vfabioanselmo.github.io
p6591
F0.007632800412583806
tp6592
(Vnas.int.stangl.co.za
p6593
F0.006892014145900156
tp6594
(Vpracticalruby.com
p6595
F0.006233190950798924
tp6596
(Vjamesfriend.com.au
p6597
F0.004684389272748566
tp6598
(Vdevblog.avdi.org
p6599
F0.0029803058169662632
tp6600
(Vrubytechlist.com
p6601
F0.0027833693680260445
tp6602
(Vstats.fanjas.com
p6603
F0.002452099050482813
tp6604
(Vcodon.com
p6605
F0.002302760390183461
tp6606
(Vtestingeducation.org
p6607
F0.0022754087308275747
tp6608
(Vherdt.de
p6609
F0.0022693966419629025
tp6610
(Vrubyoffrails.com
p6611
F0.0021707508112341948
tp6612
(Vcodecoreyvr.slack.com
p6613
F0.001842643106583627
tp6614
(Vdaniel.haxx.se
p6615
F0.0017404757300328755
tp6616
(Vschibsted.service-now.com
p6617
F0.0012539919721074684
tp6618
(Vallin.qiita.com
p6619
F0.0011750421056754533
tp6620
tp6621
s((S'metaskills.net'
p6622
tp6623
(ttp6624
((Vctshryock.com
p6625
F0.016547468798205022
tp6626
(Vredmine.bikecityguide.org
p6627
F0.0021527305687740767
tp6628
(Vatendesign.atlassian.net
p6629
F0.0003169074849782714
tp6630
(Vcoderwall.com
p6631
F0.00021703084325282697
tp6632
(Vphantomjs.org
p6633
F0.00013313754282917278
tp6634
(Vhttpd.apache.org
p6635
F1.5940797752535055e-05
tp6636
(Vgithub.com
p6637
F3.3243081757242964e-06
tp6638
(Vduckduckgo.com
p6639
F1.0081056908941716e-06
tp6640
(Vtrello.com
p6641
F9.761391994511724e-07
tp6642
(Vstartpage.com
p6643
F6.875454166190843e-07
tp6644
(Vstackoverflow.com
p6645
F3.0192988684047274e-07
tp6646
(Vtweetdeck.twitter.com
p6647
F1.599518661211605e-07
tp6648
(Vbing.com
p6649
F9.369324416725723e-08
tp6650
(Vgoogle.com.sg
p6651
F5.183408317133579e-08
tp6652
tp6653
s((S'github.io'
p6654
tp6655
(ttp6656
((Vlukecarbis.github.io
p6657
F0.019639527656929768
tp6658
(Vbuke.github.io
p6659
F0.013217398454201612
tp6660
(Vbriangordon.github.io
p6661
F0.009287699283311393
tp6662
(Vgpeyre.github.io
p6663
F0.008611401092566274
tp6664
(V6889692.github.io
p6665
F0.008225091134009764
tp6666
(Vmattsharpe.github.io
p6667
F0.00815808798985246
tp6668
(Vkalakuh.github.io
p6669
F0.007584589614740369
tp6670
(Vstevejwikeley.github.io
p6671
F0.00743578488101414
tp6672
(Vgovlab.github.io
p6673
F0.005946039187036417
tp6674
(Vlopezrj.github.io
p6675
F0.005642699636979904
tp6676
(Vrweather.github.io
p6677
F0.005466472303206997
tp6678
(Vharrydeluxe.github.io
p6679
F0.005292730375055698
tp6680
(Vfavoorr.github.io
p6681
F0.004616774648508087
tp6682
(Vthink2011.github.io
p6683
F0.004302731567056891
tp6684
(Vlxc-webpanel.github.io
p6685
F0.00421468554494567
tp6686
(Viamtrask.github.io
p6687
F0.003928938799817474
tp6688
(Vgit.github.io
p6689
F0.0037792006892635455
tp6690
(Vjakiestfu.github.io
p6691
F0.0036454348083036284
tp6692
(Vigorescobar.github.io
p6693
F0.0036386593204775024
tp6694
(Vwxfengyun.github.io
p6695
F0.0036010132128431577
tp6696
tp6697
s((S'paulund.co.uk'
p6698
tp6699
(ttp6700
((Vdesignfloat.com
p6701
F0.014682317874154185
tp6702
(Vtikslus.com
p6703
F0.009972109256922046
tp6704
(Vtuflow.com
p6705
F0.00941413071944854
tp6706
(Vthemeswordpressfree.com
p6707
F0.0064874181764638375
tp6708
(V1dex.ch
p6709
F0.005137631363583222
tp6710
(Vcodingfusion.com
p6711
F0.005027579500723988
tp6712
(Vwp-tips.net
p6713
F0.004666974061316192
tp6714
(Vdanangsmartphone.vn
p6715
F0.004652234916816997
tp6716
(Vtak.ee
p6717
F0.004626630229509653
tp6718
(Venjoycss.com
p6719
F0.004177601750527054
tp6720
(Ve-kitap.org
p6721
F0.004108657082764539
tp6722
(Vpurecssmenu.com
p6723
F0.0039179659775167705
tp6724
(Vccs.seemysite.us
p6725
F0.003615513921040149
tp6726
(Vpro.agence-hybrid.com
p6727
F0.003342605497371602
tp6728
(Vhobium.com
p6729
F0.003266090976893467
tp6730
(Vwplift.com
p6731
F0.0028646937118022783
tp6732
(Vsimplemediacode.info
p6733
F0.002693832260479542
tp6734
(Vcubic-bezier.com
p6735
F0.002685931857532827
tp6736
(Vleagueoflegends-wiki.com
p6737
F0.00265266660471949
tp6738
(Vgmgcongress.com
p6739
F0.0025931240388389495
tp6740
tp6741
s((S'stackexchange.com'
p6742
tp6743
(ttp6744
((Vdrupal.org
p6745
F0.0018087338073138374
tp6746
(Vsuperuser.com
p6747
F0.0017565770216195539
tp6748
(Vstackoverflow.com
p6749
F0.0017298447513904261
tp6750
(Vexchange.jacobs-university.de
p6751
F0.0017227839744996746
tp6752
(Vencrypted.google.com
p6753
F0.0016974100217127502
tp6754
(Vstartpage.com
p6755
F0.0011022911608110297
tp6756
(Vknightsandmerchants.net
p6757
F0.0010559136442041205
tp6758
(Vcourses.edx.org
p6759
F0.0009489679492966093
tp6760
(Vwen.lu
p6761
F0.0007011318157478892
tp6762
(Vdev53.mainlinemenswear.co.uk
p6763
F0.0004911855144103377
tp6764
(Vbodytonicmusic.com
p6765
F0.0004665108146013598
tp6766
(Vwpsites.net
p6767
F0.00045658378453616134
tp6768
(Vmathoverflow.net
p6769
F0.00038500259922329095
tp6770
(Vbuildwithcraft.com
p6771
F0.00036671354486146547
tp6772
(Vshkspr.mobi
p6773
F0.00034314590131385466
tp6774
tp6775
s((S'alpha45.com'
p6776
tp6777
(ttp6778
(ts((S'marionettejs.com'
p6779
tp6780
(ttp6781
((Vnetguru.co
p6782
F0.004179512576203563
tp6783
(Vradiodev.djazz.se
p6784
F0.003777872461298111
tp6785
(Vbackbonemarionette.readthedocs.org
p6786
F0.0035891628757557417
tp6787
(Vbackbonejs.org
p6788
F0.00338275404730614
tp6789
(Vmojotech.com
p6790
F0.0025241453350434147
tp6791
(Vjira.westpac.co.nz
p6792
F0.0016843049374121672
tp6793
(Vneat.bourbon.io
p6794
F0.001541424203294707
tp6795
(Vmi.tv
p6796
F0.0013908046961791426
tp6797
(Vvictorsavkin.com
p6798
F0.0013447376959585082
tp6799
(Vplottablejs.org
p6800
F0.001268975589454481
tp6801
(Vbackbonerails.com
p6802
F0.0012360838244924689
tp6803
(Vapp.codegrid.net
p6804
F0.001163886158911156
tp6805
(Vsanlamdigital.co.za
p6806
F0.001099227051454295
tp6807
(Vstream.sanlam.co.za
p6808
F0.0010781394393674915
tp6809
(Vd3gblc8a9weyfb.cloudfront.net
p6810
F0.0010371620433850157
tp6811
(Vatlassian.bldstools.com
p6812
F0.0009999689932095128
tp6813
(Vaccounts.hullapp.io
p6814
F0.0009223059085072539
tp6815
(Vde.droidcon.com
p6816
F0.0008280114777445569
tp6817
(Vforum.acidtu.be
p6818
F0.0007090679449586008
tp6819
(Vconfluence.rmp-oudan.net
p6820
F0.0006990816078409367
tp6821
tp6822
s((S'baidu.com'
p6823
tp6824
(ttp6825
((Vweibo.com
p6826
F0.027237351880198574
tp6827
(Vbilibili.com
p6828
F0.015872227198823714
tp6829
(Vuser.qzone.qq.com
p6830
F0.013327046598158254
tp6831
(Vgoogle.com.hk
p6832
F0.012046312454520806
tp6833
(Vs.taobao.com
p6834
F0.00874462576261445
tp6835
(Vdouban.com
p6836
F0.008413626118841796
tp6837
(Vacfun.tv
p6838
F0.007379018265028736
tp6839
(Vrenren.com
p6840
F0.007066561429865499
tp6841
(Vzhihu.com
p6842
F0.005108085147881503
tp6843
(Vyouku.com
p6844
F0.004951436561725886
tp6845
(Vhao123.com
p6846
F0.0028257992460768403
tp6847
(Vv.youku.com
p6848
F0.002222559857311278
tp6849
tp6850
s((S'docks.qc.ca'
p6851
tp6852
(ttp6853
((Vgoogle.com
p6854
F1.8234564997169045e-08
tp6855
tp6856
s((S'.'
p6857
tp6858
(ttp6859
(ts((S'alpha17.com'
p6860
tp6861
(ttp6862
(ts((S'collegehumor.com'
p6863
tp6864
(ttp6865
((Vdorkly.com
p6866
F0.008021933011457285
tp6867
(Vepicfail.com
p6868
F0.0012799687830245953
tp6869
(Vcracked.com
p6870
F0.0010912017310832412
tp6871
(Vwebmail.iac.com
p6872
F0.0010835730286289731
tp6873
(Vfunnyordie.com
p6874
F0.0008083489140107018
tp6875
(Vbitboard.com
p6876
F0.0007468065544100305
tp6877
(Vjakeandamir.com
p6878
F0.000684379580816286
tp6879
(Vsmosh.com
p6880
F0.0005418167439286141
tp6881
(Votaku-streamers.com
p6882
F0.0004226580805814449
tp6883
(Vescapistmagazine.com
p6884
F0.00037066058045890797
tp6885
(Vkillsometime.com
p6886
F0.0003187066730836541
tp6887
(Vexplosm.net
p6888
F0.00020320890175623739
tp6889
(Vslowrobot.com
p6890
F0.00019192407440080052
tp6891
(Vbreak.com
p6892
F0.00014199769895208476
tp6893
(Vcockenblog.tumblr.com
p6894
F0.00013743128785720813
tp6895
tp6896
s((S'safefinder.com'
p6897
tp6898
(ttp6899
((Vca.search.yahoo.com
p6900
F0.0029244510928526416
tp6901
(Vpornhub.com
p6902
F0.001289683158149094
tp6903
(Vapps.facebook.com
p6904
F0.0012647655096910647
tp6905
(Vtuneuppro.com
p6906
F0.0010544851280576753
tp6907
(Vyouporn.com
p6908
F0.0009827774222949221
tp6909
(Vgoogle.co.za
p6910
F0.0009601737530226502
tp6911
(Vfeed.snapdo.com
p6912
F0.0009272621782743603
tp6913
(Vroblox.com
p6914
F0.0007794440513365415
tp6915
(Vxnxx.com
p6916
F0.0006499708133725999
tp6917
(Vlenovo.com
p6918
F0.0006219854391525674
tp6919
(Vmozilla.org
p6920
F0.0004626983764898858
tp6921
(Vstart.sweetpacks.com
p6922
F0.00037309378931740285
tp6923
(Vmypcbackup.com
p6924
F0.00034282324813356824
tp6925
(Vreimageplus.com
p6926
F0.00030580678293120657
tp6927
tp6928
s((S'machonmeir.net'
p6929
tp6930
(ttp6931
((Vheb.machonora.co.il
p6932
F0.029002781088597537
tp6933
(Vjava4developers.com
p6934
F0.014888147039637771
tp6935
(Vpolloalacerveza.net
p6936
F0.0076491775277561175
tp6937
(Vblogs.haaretz.co.il
p6938
F0.0003847481746756713
tp6939
(Vdaat.ac.il
p6940
F0.00027566871658616553
tp6941
(Vde.giveawayoftheday.com
p6942
F0.00021326767274075617
tp6943
(Vaurora-israel.co.il
p6944
F0.0001214345009017726
tp6945
(Vtime100.ru
p6946
F7.434543967636661e-05
tp6947
(Vjssnews.com
p6948
F5.5182887124508044e-05
tp6949
(Vd.co.il
p6950
F4.879871076648798e-05
tp6951
(Vlukyanchenko.donetsk.ua
p6952
F3.604043881396682e-05
tp6953
(Vfincaraiz.com.co
p6954
F3.412630786408771e-05
tp6955
(Vstatic.bestsocialfeed.com
p6956
F3.0072721777110772e-05
tp6957
(Vhe.wikipedia.org
p6958
F5.486249593194593e-06
tp6959
(Vtranslate.google.de
p6960
F4.921660586178725e-06
tp6961
(Vcxz.to
p6962
F4.716191392479089e-06
tp6963
(Vukrinform.ua
p6964
F4.369652023853493e-06
tp6965
(Vmako.co.il
p6966
F1.874362769907174e-06
tp6967
(Vdub121.mail.live.com
p6968
F2.4786804665218696e-07
tp6969
(Vgoogle.fr
p6970
F2.7931584446728225e-08
tp6971
tp6972
s((S'thoughtbot.com'
p6973
tp6974
(ttp6975
((Vupcase.com
p6976
F0.024989667086915485
tp6977
(Vformkeep.com
p6978
F0.014646203355550037
tp6979
(Vjameschambers.co
p6980
F0.008357425242515544
tp6981
(Vtammersaleh.com
p6982
F0.004943316112993391
tp6983
(Vhoundci.com
p6984
F0.004806836698868746
tp6985
(Vsiyelo.com
p6986
F0.002945051927677963
tp6987
(Vgiantrobots.fm
p6988
F0.00211715962498671
tp6989
(Vmapsdesign.tumblr.com
p6990
F0.002099795643319399
tp6991
(Vapeth.com
p6992
F0.0019577595682550466
tp6993
(Vdevblog.avdi.org
p6994
F0.0019100218616960073
tp6995
(Vacademicwork.se
p6996
F0.0017322341701425485
tp6997
(Vrinse.io
p6998
F0.001560292892647523
tp6999
(Vatomic.io
p7000
F0.0014838520150369518
tp7001
(Vmartialcodex.com
p7002
F0.0014348262119961987
tp7003
(Vlvh.me
p7004
F0.0013953332488518147
tp7005
(Vbrightnewt.com
p7006
F0.0013170589638774016
tp7007
(Vsetentaydos.com
p7008
F0.0012088216882618495
tp7009
(Vryanterry.net
p7010
F0.0011578899857040137
tp7011
(Vdrp.io
p7012
F0.0011536686663590216
tp7013
(Vlaurium.nusii.com
p7014
F0.001150569134284429
tp7015
tp7016
s((S'chabad.org'
p7017
tp7018
(ttp7019
((Vaish.com
p7020
F0.01054631331832647
tp7021
(Vcollive.com
p7022
F0.004970635902076991
tp7023
(Vmychabad.org
p7024
F0.00479952306765223
tp7025
(Vchabadorg.clhosting.org
p7026
F0.0026968763395004464
tp7027
(Vmechon-mamre.org
p7028
F0.0023557864688366643
tp7029
(Vkinus.com
p7030
F0.0020396592651405697
tp7031
(Vtorahcafe.com
p7032
F0.001940989808469816
tp7033
(Vdailytehillim.com
p7034
F0.0015873698084554664
tp7035
(Vhebcal.com
p7036
F0.0014436713269138249
tp7037
(V24jewish.wordpress.com
p7038
F0.0013219416815438239
tp7039
(Vcabad.org
p7040
F0.0012176026736432492
tp7041
(Vcrownheights.info
p7042
F0.0011202900423400895
tp7043
(Vtorahanytime.com
p7044
F0.001078311000246013
tp7045
(Valislam.org
p7046
F0.0008990103735309587
tp7047
(Vchabadmanagement.com
p7048
F0.0008384592362293009
tp7049
(Vcesjds.org
p7050
F0.0007915022233819323
tp7051
(Vbooks.google.dz
p7052
F0.0007632211907478664
tp7053
(Vdaat.ac.il
p7054
F0.0007604603296922424
tp7055
(Vkabbalaonline.org
p7056
F0.000751615258682406
tp7057
(Vlchaimweekly.org
p7058
F0.0007106067441943094
tp7059
tp7060
s((S'washingtonpost.com'
p7061
tp7062
(ttp7063
((Vnytimes.com
p7064
F0.0071083310906934994
tp7065
(Vpolitico.com
p7066
F0.0029822746578390207
tp7067
(Vdilbert.com
p7068
F0.002935138932842993
tp7069
(Vlatimes.com
p7070
F0.0022105993684488033
tp7071
(Vtalkingpointsmemo.com
p7072
F0.002206509006630301
tp7073
(Vbaltimoresun.com
p7074
F0.0021690323038019367
tp7075
(Vslate.com
p7076
F0.0019321960786904552
tp7077
(Vgocomics.com
p7078
F0.0015326308869880682
tp7079
(Vonline.wsj.com
p7080
F0.001430631468152857
tp7081
(Vusatoday.com
p7082
F0.001315549880614042
tp7083
(Vwashingtontimes.com
p7084
F0.0010347389235055996
tp7085
(Vwtop.com
p7086
F0.00044007412137804747
tp7087
tp7088
s((S'w3school.com'
p7089
tp7090
(ttp7091
((Vw3cschool.com
p7092
F0.016848580090399343
tp7093
(Vww42.w2school.com
p7094
F0.004291811319552824
tp7095
(V3school.com
p7096
F0.0021977340819445182
tp7097
(Vparkerfascinators.com
p7098
F0.0021656213530791687
tp7099
(Vschool.com
p7100
F0.001781688336765498
tp7101
(Vw3schoo.com
p7102
F0.0017558854139412652
tp7103
(Vw3shool.com
p7104
F0.0012361420266678192
tp7105
(Vcoldtruth.com
p7106
F0.0011880913356054495
tp7107
(Vaemco-llc.com
p7108
F0.0011789003171037082
tp7109
(Vonemillionlines.com
p7110
F0.0011517473219239188
tp7111
(Vairnet.uvic.ca
p7112
F0.0011280446881227477
tp7113
(Vvs.ustc.edu.cn
p7114
F0.0010680922209072342
tp7115
(V9lessons.info
p7116
F0.0010606988345003136
tp7117
(Vserwer1453945.home.pl
p7118
F0.001046509449364734
tp7119
(Vwildlifeanimalz.blogspot.com
p7120
F0.0009575356302511197
tp7121
(Vrefinedcoutureblog.com
p7122
F0.0009527585701069093
tp7123
(Vwebreference.com
p7124
F0.0009375143675576051
tp7125
(Vw3schoos.com
p7126
F0.0009136420344726391
tp7127
(Vasp.net-informations.com
p7128
F0.0009060898631196563
tp7129
(V3wschool.com
p7130
F0.0008974430884862859
tp7131
tp7132
s((S'paradisefibers.net'
p7133
tp7134
(ttp7135
((V4theperfectsmile.com
p7136
F0.06983718937446444
tp7137
(Vmorehousefarm.com
p7138
F0.00860733344809778
tp7139
(Vknitpicks.com
p7140
F0.00042883308195252175
tp7141
(Vgoogle.com
p7142
F2.791227813979068e-09
tp7143
tp7144
s((S'alpha7.com'
p7145
tp7146
(ttp7147
(ts((S'techcrunch.com'
p7148
tp7149
(ttp7150
((Vventurebeat.com
p7151
F0.0024037609708602837
tp7152
(Vmashable.com
p7153
F0.002277152232552824
tp7154
(Vtechmeme.com
p7155
F0.002102955620560181
tp7156
(Vpando.com
p7157
F0.0020474406626040174
tp7158
(Vrecode.net
p7159
F0.0018864342868544382
tp7160
(Vvalleywag.gawker.com
p7161
F0.0018795175515385783
tp7162
(Vnews.ycombinator.com
p7163
F0.0018683397079593117
tp7164
(Vthenextweb.com
p7165
F0.0017588173685099972
tp7166
(Vengadget.com
p7167
F0.0015970751891468925
tp7168
(Vcrunchbase.com
p7169
F0.0008626965652541891
tp7170
(Vgeekwire.com
p7171
F0.0005407513019916513
tp7172
(Vnewspicks.com
p7173
F0.0004418912807186634
tp7174
tp7175
s((S'alphapixel.com'
p7176
tp7177
(ttp7178
((Vwfvrj.petrobras.com.br
p7179
F0.008663177057381214
tp7180
(Vmundopositivo.com.br
p7181
F0.00018420454425057862
tp7182
(Vgoogle.ae
p7183
F1.5531341005293674e-07
tp7184
(Vgoogle.com.pk
p7185
F1.0732731449454997e-07
tp7186
tp7187
s((S'oranlooney.com'
p7188
tp7189
(ttp7190
((Vnpmjs.org
p7191
F9.37878187396508e-06
tp7192
(Vsearch.disconnect.me
p7193
F2.222519934059104e-06
tp7194
(Vgithub.com
p7195
F1.2404606312831473e-07
tp7196
(Vgoogle.com.ua
p7197
F1.1512227389007056e-07
tp7198
(Vbing.com
p7199
F4.6492935284599696e-08
tp7200
tp7201
s((S'herokuapp.com'
p7202
tp7203
(ttp7204
((Vsr-prod-icloud-proxy.herokuapp.com
p7205
F0.08161429214060793
tp7206
(Vandroid-arsenal.herokuapp.com
p7207
F0.07801101682298646
tp7208
(Vadvoca.com
p7209
F0.02923353690290205
tp7210
(Vgovuk-verify.herokuapp.com
p7211
F0.02790615001777462
tp7212
(Vmalcolmahoy.com
p7213
F0.022625781482584106
tp7214
(Vlaas.herokuapp.com
p7215
F0.008699556603244092
tp7216
(Vsmr-candidates.herokuapp.com
p7217
F0.007872684682073946
tp7218
(Vsfmdemo.herokuapp.com
p7219
F0.006455193363710713
tp7220
(Vospc-taxes.herokuapp.com
p7221
F0.0061363899502141946
tp7222
(Vremembr.herokuapp.com
p7223
F0.0059229458273964185
tp7224
(Vstackedit-beta.herokuapp.com
p7225
F0.005875879718490083
tp7226
(Vroskilde.dev.umwelt.dk
p7227
F0.005602763201122328
tp7228
(Vnetshowmefront.herokuapp.com
p7229
F0.005175252881674901
tp7230
(Vneighbormate.com
p7231
F0.004572710409386998
tp7232
(Vsantbook.herokuapp.com
p7233
F0.0042283874839730475
tp7234
(Vsfdc-styleguide.herokuapp.com
p7235
F0.003398698656172439
tp7236
(Vthesportsphysio.wordpress.com
p7237
F0.0033295640155798466
tp7238
(Vdicks-api.herokuapp.com
p7239
F0.00273224043715847
tp7240
(Vmbahroni.us
p7241
F0.0015688217323094706
tp7242
(Vpapertrailapp.com
p7243
F0.00042209412837909606
tp7244
tp7245
s((S'theoldreader.com'
p7246
tp7247
(ttp7248
((Vcluborlov.blogspot.com.br
p7249
F0.001629483712195623
tp7250
(Vhome.nielskim.nl
p7251
F0.001583765973314186
tp7252
(Vboards.cruisecritic.com
p7253
F0.001485453300561661
tp7254
(Vdtmpower.net
p7255
F0.0014122945690184302
tp7256
(Vmail.luetzen.dk
p7257
F0.0011100585027773505
tp7258
(Vportal.filadelfia.br
p7259
F0.0008692568306636837
tp7260
(Vgigabitescafe.com
p7261
F0.0007618165206089385
tp7262
(Vdelphifeeds.com
p7263
F0.0005999661440565003
tp7264
(Vbrusselnieuws.be
p7265
F0.0005860492509324877
tp7266
(Vtheaquilareport.com
p7267
F0.0005821878023734192
tp7268
(Vradionacional.com.ar
p7269
F0.0005543664620062667
tp7270
(Vvott.ru
p7271
F0.0004978213381410596
tp7272
(Vunz.com
p7273
F0.0004920895591088345
tp7274
(Vone.npr.org
p7275
F0.0004875921931996698
tp7276
(Vforum.pdnk.org
p7277
F0.00046894424078728703
tp7278
(Vwebmail.wmich.edu
p7279
F0.0004127460638011333
tp7280
(Vylilauta.org
p7281
F0.0003986461030724298
tp7282
(Vivorytower.com
p7283
F0.0003872626065568982
tp7284
(Vhomebrewchatter.com
p7285
F0.0003844828465516838
tp7286
(Vs126-pl.ogame.gameforge.com
p7287
F0.0003813682539531203
tp7288
tp7289
s((S'testy.com'
p7290
tp7291
(ttp7292
((Vgoogle.com
p7293
F5.7582840045330454e-09
tp7294
(Vfacebook.com
p7295
F4.906167885604807e-10
tp7296
tp7297
s((S'9gag.com'
p7298
tp7299
(ttp7300
((Vhugelol.com
p7301
F0.003233730888247263
tp7302
(Vmemecenter.com
p7303
F0.0025017981164674975
tp7304
(Vkwejk.pl
p7305
F0.0021561817990461748
tp7306
(Vmangareader.net
p7307
F0.001933358652853593
tp7308
(Vdumpert.nl
p7309
F0.0015286863776028295
tp7310
(Veksisozluk.com
p7311
F0.001271977269860276
tp7312
(Vtwitch.tv
p7313
F0.0012509446636704555
tp7314
(Vhiddenlol.com
p7315
F0.0010730062228643238
tp7316
(Vmangafox.me
p7317
F0.0006855088296482892
tp7318
(Vjeuxvideo.com
p7319
F0.0005999945477223184
tp7320
(Vhaivl.com
p7321
F0.0004240296668315654
tp7322
(Vmangahere.co
p7323
F0.0003718523999781129
tp7324
tp7325
s((S'wappalyzer.com'
p7326
tp7327
(ttp7328
((Vbrianhoffdesign.com
p7329
F0.017272113780765753
tp7330
(Vtimeline.knightlab.com
p7331
F0.008668102017199369
tp7332
(Vdarshahr.com
p7333
F0.0054544153204078225
tp7334
(Vjosedacosta.info
p7335
F0.00536462666662247
tp7336
(Vminimega.it
p7337
F0.004239089791021288
tp7338
(Vwanderthemap.com
p7339
F0.0029197650695239716
tp7340
(Vprovider.ir
p7341
F0.002919297322576874
tp7342
(Vno-margin-for-errors.com
p7343
F0.0027876437736915343
tp7344
(Vvesternet.com
p7345
F0.002659244233930543
tp7346
(Vmadbee.com.ua
p7347
F0.0019426843859136594
tp7348
(Vgottliebgordon.com
p7349
F0.001745586130447524
tp7350
(Vpages.colorzilla.com
p7351
F0.0011613857785460003
tp7352
(Vprincipedifirenze.com
p7353
F0.0011141059188894402
tp7354
(Vopentext.com
p7355
F0.0010226293326996592
tp7356
(Vtest.snds.ch
p7357
F0.0008915049727132276
tp7358
(Vgrammarly.com
p7359
F0.0008736177962281473
tp7360
(Vchrispederick.com
p7361
F0.0008235010323233211
tp7362
(Vabellio.com
p7363
F0.0008085582632635542
tp7364
(Vplatmaison.fr
p7365
F0.000779830054795855
tp7366
(Vrovendaleag.com
p7367
F0.0007629134106233632
tp7368
tp7369
s((S'pow.cx'
p7370
tp7371
(ttp7372
(ts((S'malwarebytes.org'
p7373
tp7374
(ttp7375
((Vsupport.mozilla.org
p7376
F0.002946039787681787
tp7377
(Vbleepingcomputer.com
p7378
F0.0023474999475237225
tp7379
(Vcomment-supprimer.com
p7380
F0.0018166374168833335
tp7381
(Vmalwaretips.com
p7382
F0.001629098375412804
tp7383
(Vcome-eliminare.com
p7384
F0.0015074407673850052
tp7385
(Varturogoga.com
p7386
F0.0012352271533589269
tp7387
(Vcommunity.norton.com
p7388
F0.0011850054985019177
tp7389
(Vcomo-eliminar.com
p7390
F0.001152007048775999
tp7391
(Vschoonepc.nl
p7392
F0.0010037166273452
tp7393
(V0427d7.se
p7394
F0.0009096205488029283
tp7395
(Vovermanforum.com
p7396
F0.0008884252668932268
tp7397
(Vsuperantispyware.com
p7398
F0.0007473313069392516
tp7399
(Vs.vgsgaming-ads.com
p7400
F0.0005204533027943224
tp7401
(Vforum.avast.com
p7402
F0.0004889239140342746
tp7403
(Vsecure.logmeinrescue.com
p7404
F0.00047870775669676827
tp7405
(Vkickass.to
p7406
F0.00037890471511992395
tp7407
(Vfile.net
p7408
F0.00035415702658305647
tp7409
tp7410
s((S'java4developers.com'
p7411
tp7412
(ttp7413
((Ves.scribd.com
p7414
F1.7118346571980739e-06
tp7415
tp7416
s((S'alpha5.com'
p7417
tp7418
(ttp7419
((Valliedhealthworld.com
p7420
F0.019944027102666077
tp7421
(Vkempsvilleruritanclub.org
p7422
F0.002170740268617562
tp7423
(Vmsgboard.alphasoftware.com
p7424
F0.001026299469818061
tp7425
(Vwhois.com
p7426
F1.4852977486330757e-05
tp7427
tp7428
s((S'youtube.com'
p7429
tp7430
(ttp7431
(ts((S'speakerdeck.com'
p7432
tp7433
(ttp7434
((Vdemo.coffee-themes.com
p7435
F0.0039671592074744305
tp7436
(Vspeakerd.s3.amazonaws.com
p7437
F0.0031840326414409345
tp7438
(Vstartupsmart.com.au
p7439
F0.0024248497613811744
tp7440
(Vmaddisondesigns.com
p7441
F0.0023298317533521225
tp7442
(Vthemes-lab.com
p7443
F0.0022676382593878877
tp7444
(Vfontstruct.com
p7445
F0.0022317005850366494
tp7446
(Vreadability.com
p7447
F0.002135284711928032
tp7448
(Vadmin.smartphone.userlocal.jp
p7449
F0.002003364625203868
tp7450
(Vbagtheweb.com
p7451
F0.001999111954713731
tp7452
(Vclickwork7network.com
p7453
F0.0017965561747034368
tp7454
(Vinteractly.com
p7455
F0.0017284060116690148
tp7456
(Vtest.proxistore.com
p7457
F0.001579048509965591
tp7458
(Vrajhimself.com
p7459
F0.0013000119296729658
tp7460
(Vcodecondo.com
p7461
F0.001220573693455316
tp7462
(Vcss-happylife.com
p7463
F0.0011575611844464764
tp7464
(Vaneventapart.com
p7465
F0.0011068669516008853
tp7466
(Vmaketea.co.uk
p7467
F0.0009992090820833237
tp7468
(V960.gs
p7469
F0.0009955768862741556
tp7470
(Vgrapplemobile.atlassian.net
p7471
F0.000977010403519926
tp7472
(Vadmin.taggedpdf.com.au
p7473
F0.0008888000838847269
tp7474
tp7475
s((S'javascriptkit.com'
p7476
tp7477
(ttp7478
(ts((S'quirksmode.org'
p7479
tp7480
(ttp7481
(ts((S'alpha23.com'
p7482
tp7483
(ttp7484
(ts((S'livejournal.com'
p7485
tp7486
(ttp7487
((Vlenta.ru
p7488
F0.007630193552149961
tp7489
(Vecho.msk.ru
p7490
F0.005440124097184883
tp7491
(Vnewsru.com
p7492
F0.00489071664256173
tp7493
(Vrusvesna.su
p7494
F0.0048745836111702455
tp7495
(Vartlebedev.ru
p7496
F0.00466291265138468
tp7497
(Vnavalny.com
p7498
F0.004605537564307319
tp7499
(Vgazeta.ru
p7500
F0.004564734729053364
tp7501
(Vexler.ru
p7502
F0.004269929777672117
tp7503
(Vrbc.ru
p7504
F0.004190171181083074
tp7505
(Vvoicesevas.ru
p7506
F0.0032223065289894
tp7507
(Vd3.ru
p7508
F0.0009741109205437652
tp7509
tp7510
s((S'thomsonreuters.com'
p7511
tp7512
(ttp7513
((Vsafe.thomson.com
p7514
F0.030832054497359252
tp7515
(Vwestlawnext.com
p7516
F0.019168229888908983
tp7517
(Vtoc.taleo.net
p7518
F0.014028723919678314
tp7519
(Vtlr.webex.com
p7520
F0.007636867845543037
tp7521
(Viajira.amers.ime.reuters.com
p7522
F0.006034711929050182
tp7523
(Vweb2.westlaw.com
p7524
F0.0043949705952408555
tp7525
(Vcustomers.reuters.com
p7526
F0.002099353496390455
tp7527
(Vc.na19.visual.force.com
p7528
F0.0017503317625148596
tp7529
(Vworld-check.com
p7530
F0.001083729972256897
tp7531
(Vcheckpoint.riag.com
p7532
F0.0010419773660895351
tp7533
(Vnetworkconfigtool.tfn.com
p7534
F0.001019429994483754
tp7535
(Vsevone.int.westgroup.net
p7536
F0.0009695130151175092
tp7537
(Vscimagojr.com
p7538
F0.0009191009540180929
tp7539
(Vnsawiki.int.westgroup.com
p7540
F0.0008389564388648248
tp7541
(Vadvance.lexis.com
p7542
F0.000772931138830263
tp7543
(Vtsswiki.thomsonreuterslifesciences.com
p7544
F0.0007232264777151544
tp7545
(Vthomsonreuters.sendthisfile.com
p7546
F0.0005922969606019056
tp7547
(Vaccount.endnote.com
p7548
F0.00055656065857256
tp7549
tp7550
s((S'tvtropes.org'
p7551
tp7552
(ttp7553
((Vdarthsanddroids.net
p7554
F0.001500247463499134
tp7555
(Vbrianspage.com
p7556
F0.001190719319934098
tp7557
(Vtvsinopse.kinghost.net
p7558
F0.0007400792503836695
tp7559
(Vthatguywiththeglasses.com
p7560
F0.0005833013882610892
tp7561
(Vgingasite.net
p7562
F0.000501607122821144
tp7563
(Vforums.spacebattles.com
p7564
F0.00048495945186655885
tp7565
(Vknowyourmeme.com
p7566
F0.00046413679362313165
tp7567
(Vsomethingawful.com
p7568
F0.00041006250033043837
tp7569
(Vecchi-anime.blogspot.com
p7570
F0.0003929467804378441
tp7571
(Vthe-editing-room.com
p7572
F0.0003602536513208618
tp7573
(Vcrystalhall.org
p7574
F0.0003559825488437577
tp7575
(Vhentai2read.com
p7576
F0.0003398529854742772
tp7577
(V16personalities.com
p7578
F0.0003332813271432821
tp7579
(Vanimenewsnetwork.co.uk
p7580
F0.00027232622901355853
tp7581
(Vparahumans.wordpress.com
p7582
F0.00021676107587459498
tp7583
(Vlesbolution.tumblr.com
p7584
F0.0002133517961502453
tp7585
(Vrpol.net
p7586
F0.00021168773843842435
tp7587
(V1d4chan.org
p7588
F0.00020931403545750485
tp7589
(Vjellyneo.net
p7590
F0.00020794189731850084
tp7591
(Vlddb.com
p7592
F0.00020783572379088003
tp7593
tp7594
s((S'npmjs.org'
p7595
tp7596
(ttp7597
((Vnodejs.org
p7598
F0.010494459964947274
tp7599
(Vdavid-dm.org
p7600
F0.006542003267643495
tp7601
(Vnpm.org
p7602
F0.006134208234528082
tp7603
(Vgruntjs.com
p7604
F0.0029211295928985143
tp7605
(Vexpressjs.com
p7606
F0.0018580190969996859
tp7607
(Vnodejsmodules.org
p7608
F0.0011800901385269275
tp7609
(Vbower.io
p7610
F0.0011670803746021577
tp7611
(Vcnodejs.org
p7612
F0.0009502443704459891
tp7613
(Vdocs.phonegap.com
p7614
F0.0008210498882526792
tp7615
(Vtableless.com.br
p7616
F0.0005392750711791978
tp7617
(Vbuild.dojotoolkit.org
p7618
F0.0005254189745328796
tp7619
(Vnpmsearch.com
p7620
F0.0005250922833998067
tp7621
(Vtopsape.ru
p7622
F0.00047415424368048097
tp7623
(Vmongoosejs.com
p7624
F0.0004731517322995981
tp7625
(Vblog.modulus.io
p7626
F0.0004540619250656133
tp7627
(Vnpm.curasystems.com
p7628
F0.0004430193639247029
tp7629
(Vgithub.com
p7630
F0.0003485181562174436
tp7631
(Vforum.wp-parsi.com
p7632
F0.0003472306438609726
tp7633
(Vkarma-runner.github.io
p7634
F0.000329557526923341
tp7635
tp7636
s((S'blogspot.co.uk'
p7637
tp7638
(ttp7639
((Vsoccersportthai.blogspot.co.uk
p7640
F0.0707374040707374
tp7641
(Vproofreadmyfile.blogspot.com
p7642
F0.030689329556185082
tp7643
(Vibrahimyamanabdullahi.blogspot.co.uk
p7644
F0.017033585087578337
tp7645
(Vsapbasissociety.blogspot.co.uk
p7646
F0.015119098559406645
tp7647
(Vpersianbooks2.blogspot.co.uk
p7648
F0.01447080599024062
tp7649
(Vblogsofnote.blogspot.co.uk
p7650
F0.014427657547298217
tp7651
(Vkizomba-zouk.blogspot.co.uk
p7652
F0.012347802817439838
tp7653
(Vbmackie.blogspot.co.uk
p7654
F0.01162535643781531
tp7655
(Vsherrysbeautyandfashion.blogspot.co.uk
p7656
F0.011378935939196526
tp7657
(Vmwholt.blogspot.co.uk
p7658
F0.011096992799661162
tp7659
(Vhongleili.blogspot.co.uk
p7660
F0.010588425476883283
tp7661
(Vportableappz.blogspot.co.uk
p7662
F0.008682119747727087
tp7663
(Vjandjalpacas.blogspot.co.uk
p7664
F0.006606792608650769
tp7665
(Vsuitcaseboy.blogspot.co.uk
p7666
F0.0065030737184372306
tp7667
(Vsliekje.blogspot.co.uk
p7668
F0.006483803155788567
tp7669
(Vyourcreativefuel.blogspot.co.uk
p7670
F0.006483803155788567
tp7671
(Vmonica-or.blogspot.co.uk
p7672
F0.006322861094645326
tp7673
(Vsleazybeats.blogspot.co.uk
p7674
F0.0062287104622871054
tp7675
(Vquickshout.blogspot.co.uk
p7676
F0.005905511811023622
tp7677
(Vblogger.co.uk
p7678
F0.00456841015757446
tp7679
tp7680
s((S'bbc.co.uk'
p7681
tp7682
(ttp7683
((Vtheguardian.com
p7684
F0.005088657297280494
tp7685
(Vgoogle.co.uk
p7686
F0.0048885746025793785
tp7687
(Vdailymail.co.uk
p7688
F0.0039057337262425624
tp7689
(Vitv.com
p7690
F0.003679825184559333
tp7691
(Vchannel4.com
p7692
F0.0033050800389549597
tp7693
(Vradiofarda.com
p7694
F0.0027556011474314124
tp7695
(Vamazon.co.uk
p7696
F0.002622046319871563
tp7697
(Vbbcpersian.com
p7698
F0.0023148103512629077
tp7699
(Vhotukdeals.com
p7700
F0.001549231478388807
tp7701
(Vwww1.skysports.com
p7702
F0.001469809432519245
tp7703
(Vuk.search.yahoo.com
p7704
F0.0008524752807078012
tp7705
(Vebay.co.uk
p7706
F0.0006278903848877499
tp7707
tp7708
s((S'fabiensanglard.net'
p7709
tp7710
(ttp7711
((Vnom.com
p7712
F0.016733385481372414
tp7713
(Vmeet.emulex.com
p7714
F0.009327642729015897
tp7715
(Vemulex.my.salesforce.com
p7716
F0.009142718564326422
tp7717
(Vasicweb.emulex.com
p7718
F0.007491289198606272
tp7719
(Vopenhighschoolcourses.org
p7720
F0.006642895061989392
tp7721
(Vneilblevins.com
p7722
F0.004470560344097675
tp7723
(Vlinor.fr
p7724
F0.0038202984095753404
tp7725
(Vhmsconfluence.activision.com
p7726
F0.003148796306750467
tp7727
(Vdevinsmith.net
p7728
F0.002372270790317621
tp7729
(Vhobbygamedev.com
p7730
F0.0022267112008906844
tp7731
(Vthink-like-a-git.net
p7732
F0.002052212874160923
tp7733
(Vgamedev.stackexchange.com
p7734
F0.0019690283982804094
tp7735
(Vgp32spain.com
p7736
F0.0015787369595053969
tp7737
(Vsda.se
p7738
F0.0014976407646989833
tp7739
(Vbenefitsmedical.com
p7740
F0.0014063662602922299
tp7741
(Vengineering.zenpayroll.com
p7742
F0.0013555184723144803
tp7743
(Vblog.yourkarma.com
p7744
F0.0011144507108844686
tp7745
(Vshoutem.slack.com
p7746
F0.0007275420982314113
tp7747
(Vwiki.mcselec.com
p7748
F0.0004583651642475172
tp7749
(Vopengl.org
p7750
F0.000321510536147959
tp7751
tp7752
s((S'coffeescript.org'
p7753
tp7754
(ttp7755
((Vjs2coffee.org
p7756
F0.020693182805269154
tp7757
(Vcoffeescriptcookbook.com
p7758
F0.014455852566642792
tp7759
(Vjashkenas.github.io
p7760
F0.00597237858670336
tp7761
(Vqt.digia.com
p7762
F0.004797684021126827
tp7763
(Vsfx-preprod.stickyadstv.com
p7764
F0.0027912496327303117
tp7765
(Vjavascriptlint.com
p7766
F0.002506203361792715
tp7767
(Vpartners.lvh.me
p7768
F0.0023582097429332553
tp7769
(Varcturo.github.io
p7770
F0.0020018046119188045
tp7771
(Vzaach.github.io
p7772
F0.0015149175427134683
tp7773
(Vcodewars.com
p7774
F0.0013883333963012228
tp7775
(Vknockoutjs.com
p7776
F0.001286273833775628
tp7777
(Vunderscorejs.org
p7778
F0.0012831854535160887
tp7779
(Vricardo.cc
p7780
F0.0012189409076568609
tp7781
(Vmaxtaco.github.io
p7782
F0.001213609594430271
tp7783
(Vangular.ru
p7784
F0.0012103536082053226
tp7785
(Vevanhahn.com
p7786
F0.0011630444344667876
tp7787
(Vww2.coffescript.org
p7788
F0.001032622426625998
tp7789
(Vgateway.asebis.com
p7790
F0.0009404174612931528
tp7791
(Vlvh.me
p7792
F0.0008143742914703072
tp7793
(Vswdev.com
p7794
F0.0008014909843128782
tp7795
tp7796
s((S'mortgagecalculator.org'
p7797
tp7798
(ttp7799
((Vmlstoledo.com
p7800
F0.002289881028527568
tp7801
(Vecf.ganb.uscourts.gov
p7802
F0.002150350332913875
tp7803
(Vsef.fusionmls.com
p7804
F0.0017126636580814146
tp7805
(Vnom.fusionmls.com
p7806
F0.0012663389234897188
tp7807
(Vmoneychimp.com
p7808
F0.0010296039907220602
tp7809
(Vnexusthemes.com
p7810
F0.0009361985436735829
tp7811
(Vluminouswm.com
p7812
F0.0007395303318144178
tp7813
(Vtn-murfreesboro.civicplus.com
p7814
F0.0007395303318144178
tp7815
(Vturquoisekosherfish.com
p7816
F0.0007395303318144178
tp7817
(Vtour.nneren.previsite.com
p7818
F0.0007377367825841108
tp7819
(Vpopville.wpengine.netdna-cdn.com
p7820
F0.0007369530082134957
tp7821
(Vstjosephcountyindiana.com
p7822
F0.0007309605565805052
tp7823
(Vbestplaces.coldwellbanker.com
p7824
F0.0007305960044710725
tp7825
(Vloftplace.com
p7826
F0.0007303300151423214
tp7827
(Vmyutahnest.com
p7828
F0.0007207697129977007
tp7829
(Vmatrix.carolinamls.com
p7830
F0.0006728210371216791
tp7831
(Vatproperties.com
p7832
F0.0004691549728514806
tp7833
(Vmatrix.mlslistings.com
p7834
F0.00043129308413106487
tp7835
(Vbrighton-exchange.com
p7836
F0.0003896827677490704
tp7837
(Vmortgagcalculator.org
p7838
F0.0003896827677490704
tp7839
tp7840
s((S'brianhoffdesign.com'
p7841
tp7842
(ttp7843
((Vjulesbassoleil.fr
p7844
F0.02258870564717641
tp7845
(Vbuildinamsterdam.com
p7846
F0.0021647716932154523
tp7847
(Vbigspaceship.com
p7848
F0.0006050698189508977
tp7849
(Vt.co
p7850
F2.1457306701085447e-07
tp7851
(Vbing.com
p7852
F5.23841591319579e-08
tp7853
(Vgoogle.fr
p7854
F1.0868162185405198e-08
tp7855
tp7856
s.