(dp0
((S'giantitp.com'
p1
tp2
(ttp3
(ccopy_reg
_reconstructor
p4
(c__main__
WebsiteCorrelation
p5
c__builtin__
object
p6
Ntp7
Rp8
(dp9
S'url'
p10
Verfworld.com
p11
sS'score'
p12
F0.008313517015065911
sbg4
(g5
g6
Ntp13
Rp14
(dp15
g10
Vgoblinscomic.org
p16
sg12
F0.006473269917805954
sbg4
(g5
g6
Ntp17
Rp18
(dp19
g10
Vdarthsanddroids.net
p20
sg12
F0.005610390028611089
sbg4
(g5
g6
Ntp21
Rp22
(dp23
g10
Vlfgcomic.com
p24
sg12
F0.004073293740962843
sbg4
(g5
g6
Ntp25
Rp26
(dp27
g10
Vdrmcninja.com
p28
sg12
F0.003437414948370633
sbg4
(g5
g6
Ntp29
Rp30
(dp31
g10
Vsomethingpositive.net
p32
sg12
F0.0026684503609331104
sbg4
(g5
g6
Ntp33
Rp34
(dp35
g10
Valiendice.com
p36
sg12
F0.002623600598880402
sbg4
(g5
g6
Ntp37
Rp38
(dp39
g10
Vshigabooks.com
p40
sg12
F0.0022465062321960576
sbg4
(g5
g6
Ntp41
Rp42
(dp43
g10
Vpenny-arcade.com
p44
sg12
F0.0016181254120623545
sbg4
(g5
g6
Ntp45
Rp46
(dp47
g10
Vtabletitans.com
p48
sg12
F0.0014296406978231725
sbg4
(g5
g6
Ntp49
Rp50
(dp51
g10
Vcad-comic.com
p52
sg12
F0.001362522215243745
sbg4
(g5
g6
Ntp53
Rp54
(dp55
g10
Vleasticoulddo.com
p56
sg12
F0.0013389172909489737
sbg4
(g5
g6
Ntp57
Rp58
(dp59
g10
Vgunnerkrigg.com
p60
sg12
F0.001210886296063751
sbg4
(g5
g6
Ntp61
Rp62
(dp63
g10
Vweregeek.com
p64
sg12
F0.0009731457576328922
sbg4
(g5
g6
Ntp65
Rp66
(dp67
g10
Vgirlgeniusonline.com
p68
sg12
F0.0005483166017193799
sbg4
(g5
g6
Ntp69
Rp70
(dp71
g10
Vmail.westminster.net
p72
sg12
F0.0005344363179475438
sbtp73
s.