(dp0
((S'alpha21.com'
p1
tp2
(ttp3
((Vnaver.com
p4
F1.1258501626907744e-07
tp5
tp6
s((S'alpha40.com'
p7
tp8
(ttp9
(ts((S'pocketworx.com'
p10
tp11
(ttp12
(ts((S'mojotech.com'
p13
tp14
(ttp15
(ts((S'alpha29.com'
p16
tp17
(ttp18
(ts((S'verou.me'
p19
tp20
(ttp21
(ts((S'alpha34.com'
p22
tp23
(ttp24
((Vlivingsocial.com
p25
F9.079445109447686e-06
tp26
tp27
s((S'railsenvy.com'
p28
tp29
(ttp30
((Vproxylala.pw
p31
F0.07315634218289085
tp32
(Vafreshcup.wordpress.com
p33
F0.061630218687872766
tp34
(Vtheodinproject.com
p35
F0.000533130952642291
tp36
(Vforum.rubyonrails.pl
p37
F6.492624968274674e-05
tp38
(Vrailscasts.com
p39
F5.9049096962160154e-05
tp40
(Vkora-online.tv
p41
F5.540333318764308e-06
tp42
(Vyoutube.com
p43
F8.756484556477331e-10
tp44
tp45
s((S'python.org'
p46
tp47
(ttp48
((Vdjangopackages.com
p49
F0.028235770318671527
tp50
(Vdocs.djangoproject.com
p51
F0.011797606215775544
tp52
(Vpythonhosted.org
p53
F0.0072327330062755026
tp54
(Vwikidocs.net
p55
F0.00331444475734783
tp56
(Vnetworkx.github.io
p57
F0.0025721363577256035
tp58
(Vpython3wos.appspot.com
p59
F0.0017378741652830621
tp60
(Vconfluence.atlassian.com
p61
F0.001071124946390917
tp62
(Vpure-forum.org
p63
F0.0008837824192407215
tp64
(Vmoodle.macalester.edu
p65
F0.0007187880924060596
tp66
(Vdeveloper.foursquare.com
p67
F0.000605093370590939
tp68
(Vprogrammeerimine.cs.ut.ee
p69
F0.00043730836141456323
tp70
(Vtrailtiger.com
p71
F0.0004264912335899067
tp72
(Vvirtualenv.pypa.io
p73
F0.0004119807334448899
tp74
(Vliaoxuefeng.com
p75
F0.00039731681140257646
tp76
(Vpagekite.net
p77
F0.00038970019874352943
tp78
(Vh.yandex-team.ru
p79
F0.00032120697262060226
tp80
(Vreplicat.org
p81
F0.00030196437819484144
tp82
tp83
s((S'alpha35.com'
p84
tp85
(ttp86
(ts((S'rydia.net'
p87
tp88
(ttp89
((Vsincomics.com
p90
F0.021359696539829148
tp91
(Vhalflightcomics.com
p92
F0.012060105220756076
tp93
(Vstoryofthedoor.com
p94
F0.012027073087597992
tp95
(Valexanderthekid.tumblr.com
p96
F0.01121503814021068
tp97
(Vdcisgoingtohell.com
p98
F0.010699820225692566
tp99
(Vdubiouscompany.com
p100
F0.008778554737132042
tp101
(Vushala.smackjeeves.com
p102
F0.007147921459680803
tp103
(Vtrue-magic.com
p104
F0.006756772051863651
tp105
(Veqcomics.com
p106
F0.004581133879620812
tp107
(Vteamheartgold.deviantart.com
p108
F0.0041985387859174265
tp109
(Veverblue-comic.com
p110
F0.004143634823308365
tp111
(Vforgottenordercomic.com
p112
F0.003456092237085129
tp113
(Vamyachronicles.com
p114
F0.0028932456769697056
tp115
(Vblackbird.ashen-ray.com
p116
F0.002813647717287217
tp117
(Vhttydireth-vespera.smackjeeves.com
p118
F0.0020531153005398485
tp119
(Vdigitalextremes.slack.com
p120
F0.0016468962340205
tp121
(Vblindsprings.com
p122
F0.001613013680589577
tp123
(Vteahousecomic.com
p124
F0.0013120810467020735
tp125
(Vgiginuzlocke.smackjeeves.com
p126
F0.0011640229070923036
tp127
(Vegscomics.com
p128
F0.0010893065517749412
tp129
tp130
s((S'alpha27.com'
p131
tp132
(ttp133
(ts((S'beta7.com'
p134
tp135
(ttp136
(ts((S'nuclearsquid.com'
p137
tp138
(ttp139
((Vmolotang.com
p140
F0.025083419629501783
tp141
(Vcrucible.corp.appnexus.com
p142
F0.0014309814038058852
tp143
(Vanswers.perforce.com
p144
F0.000850176451716394
tp145
(Vruby-forum.com
p146
F0.00012045186657374666
tp147
(Vx.sankuai.com
p148
F7.04903956835881e-05
tp149
(Vpinboard.in
p150
F7.1203116432007166e-06
tp151
(Vtheverge.com
p152
F2.8217985580072086e-06
tp153
(Vsuperuser.com
p154
F1.8128071291828394e-06
tp155
(Vstackoverflow.com
p156
F7.170873291331439e-07
tp157
(V8tracks.com
p158
F4.5838400205375003e-07
tp159
(Vgoogle.com.ph
p160
F6.325116749043523e-08
tp161
(Vgithub.com
p162
F2.4893524466823384e-08
tp163
(Vgoogle.com
p164
F2.4395329918893198e-08
tp165
(Vmail.google.com
p166
F9.62054693148217e-09
tp167
(Vfacebook.com
p168
F3.2707786008337474e-10
tp169
tp170
s((S'penny-arcade.com'
p171
tp172
(ttp173
(ts((S'ruby-doc.org'
p174
tp175
(ttp176
((Vruby-lang.org
p177
F0.013201199696001907
tp178
(Vruby-forum.com
p179
F0.008747609502763641
tp180
(Vrubymonk.com
p181
F0.0066763845359754164
tp182
(Vapi.rubyonrails.org
p183
F0.005878717500206361
tp184
(Vpine.fm
p185
F0.0024445864869402467
tp186
(Vrubydoc.info
p187
F0.0018924510596828913
tp188
(Vpb.vanburg.ru
p189
F0.0016634643017226075
tp190
(Vcodewars.com
p191
F0.0013226159920880281
tp192
(Vfabricationgem.org
p193
F0.0012286729167879811
tp194
(Vrubydocs.org
p195
F0.0012119574037700268
tp196
(Vapidock.com
p197
F0.0010269281121975656
tp198
(Vmootools.net
p199
F0.0009992932546863443
tp200
(Vblog.remarkablelabs.com
p201
F0.0008252490196022697
tp202
(Valexa.bitmakerlabs.com
p203
F0.0008213445688254505
tp204
(Vbloc.io
p205
F0.0008046723518956768
tp206
(Vtlk.io
p207
F0.0008028277194664875
tp208
(Vit-ebooks-search.info
p209
F0.0007187965547440323
tp210
(Vrailstutorial.org
p211
F0.0006903101397194037
tp212
(Vget.wynk.in
p213
F0.000643192538966548
tp214
(Vhorizon.launchacademy.com
p215
F0.0006275973357841288
tp216
tp217
s((S'walla.co'
p218
tp219
(ttp220
((Vmspowerpack.com
p221
F0.00042286056172976963
tp222
(Vmslworld.egged.co.il
p223
F4.631610521254681e-05
tp224
(Vsimplestoolbar.com
p225
F4.4748032871714525e-05
tp226
(Vlink4u.co.il
p227
F8.555601488820286e-06
tp228
(Vpanet.co.il
p229
F2.0687343820870316e-06
tp230
(Vgoogle.co.il
p231
F1.3330927104853262e-06
tp232
(Vsearches.vi-view.com
p233
F1.4813106299849904e-07
tp234
(Vxnxx.com
p235
F9.644941531802667e-08
tp236
(Vmysearch.avg.com
p237
F3.890298355709239e-08
tp238
(Visearch.omiga-plus.com
p239
F3.272544785429898e-08
tp240
(Vistart.webssearches.com
p241
F2.1441877890798774e-08
tp242
(Vtrovi.com
p243
F1.6677189871460833e-08
tp244
(Vsweet-page.com
p245
F1.3795853007327792e-08
tp246
(Vmystartsearch.com
p247
F1.0474484448833913e-08
tp248
(Vvk.com
p249
F5.105423590911466e-09
tp250
(Vyoutube.com
p251
F5.776359629362245e-10
tp252
tp253
s((S'diasp.eu'
p254
tp255
(ttp256
((Vcybette.com
p257
F0.02790506560906111
tp258
(Vd.consumium.org
p259
F0.008538320796909941
tp260
(Vkolabsys.com
p261
F0.005063497897014986
tp262
(Vproverochka.businesscatalyst.com
p263
F0.00446202210729135
tp264
(Vawable.imgur.com
p265
F0.004351204351204351
tp266
(Vfantasylife.nintendo.com
p267
F0.004010262386895224
tp268
(Vpodupti.me
p269
F0.0020148652279036445
tp270
(Vforum.sportenter.co.il
p271
F0.001306915155467928
tp272
(Vfreefotohelp.ru
p273
F0.0008028673835125448
tp274
(Vfuckyouverymuch.dk
p275
F0.0004181940984847102
tp276
(Vredbox.com
p277
F4.213100135421364e-05
tp278
(Vnypost.com
p279
F1.7682904543184476e-05
tp280
(Vbeforeitsnews.com
p281
F1.6786280627496154e-05
tp282
(Vnaturalnews.com
p283
F1.2519575881711194e-05
tp284
(Vrus.postimees.ee
p285
F8.37074626064608e-06
tp286
(Vinfowars.com
p287
F8.345739769065305e-06
tp288
(Vya.ru
p289
F4.903540471922245e-06
tp290
(Vello.co
p291
F1.0571140123657e-06
tp292
(Vvimeo.com
p293
F7.446324075200837e-07
tp294
(Vwordpress.com
p295
F5.822044442670433e-07
tp296
tp297
s((S'nasa.gov'
p298
tp299
(ttp300
((Vnasa.jerusalem.com
p301
F0.0034835518377293096
tp302
(Vspaceweather.com
p303
F0.0033475442840786474
tp304
(Vspace.com
p305
F0.002945265177369104
tp306
(Vswpc.noaa.gov
p307
F0.002494603391767854
tp308
(Vesa.int
p309
F0.001361835042951779
tp310
(Vwhat-if.xkcd.com
p311
F0.0012732149429607702
tp312
(Vciclops.org
p313
F0.0012026940365659103
tp314
(Vcoasttocoastam.com
p315
F0.0011265697014438598
tp316
(Vmarssociety.de
p317
F0.00112391909362521
tp318
(Vweb.taskcracker.com
p319
F0.001026107590113099
tp320
(Vbibobuzz.com
p321
F0.0009696968425407064
tp322
(Vnanowerk.com
p323
F0.0008919591961055805
tp324
(Vbarnstormers.com
p325
F0.000739077425229431
tp326
(Vepod.usra.edu
p327
F0.000649929188302291
tp328
(Vroshihogan.blogspot.com
p329
F0.0006483939270824397
tp330
(Vsolarham.net
p331
F0.0006229008473932558
tp332
(Vharztourist.de
p333
F0.0005347227582500918
tp334
(Vgoehren-ruegen.de
p335
F0.0004998782773573379
tp336
(Vstats.mutu.sivit.org
p337
F0.0004962087088050525
tp338
tp339
s((S'sivers.org'
p340
tp341
(ttp342
((Vexamine.com
p343
F0.007219883173093456
tp344
(Vuwitechnology.com
p345
F0.006839846558005141
tp346
(Vtruefilms.com
p347
F0.0034328335396701663
tp348
(Vsitebeam.net
p349
F0.0032794691752359648
tp350
(Vdocs.withdraft.com
p351
F0.0030549495715956874
tp352
(Vmynavigatorweb.nl
p353
F0.0028599137643591107
tp354
(Vsingapore.recruit.net
p355
F0.0025840897233237402
tp356
(Vmarketplaceleaders.org
p357
F0.0025240834176874162
tp358
(Vblog.placeit.net
p359
F0.0020766650167739096
tp360
(Vkairosbio.com
p361
F0.0019437477085309572
tp362
(Vcenteroftheweb.com
p363
F0.0019412848515847046
tp364
(Valytadros.com
p365
F0.001937933895566251
tp366
(Vfullstackacademy.slack.com
p367
F0.0018748035385513495
tp368
(Vrailstutorial.org
p369
F0.0018368225687322617
tp370
(Vlintool.github.io
p371
F0.0018285739313244568
tp372
(Vhiretheworld.com
p373
F0.0018284838365313551
tp374
(Vadvancedlifeskills.com
p375
F0.0017834354092023132
tp376
(Vballcharts.com
p377
F0.0017386913484488426
tp378
(Vci.appveyor.com
p379
F0.001590201798643241
tp380
(Vblog.zackshapiro.com
p381
F0.0014996575814189902
tp382
tp383
s((S'mako.co.il'
p384
tp385
(ttp386
((Vynet.co.il
p387
F0.011501648380391862
tp388
(Vwalla.co.il
p389
F0.00755377749758904
tp390
(Vsport5.co.il
p391
F0.006583331507016732
tp392
(Vone.co.il
p393
F0.0059019222903439065
tp394
(Vnrg.co.il
p395
F0.005228495987774255
tp396
(V10tv.nana10.co.il
p397
F0.004148038854238269
tp398
(Vhaaretz.co.il
p399
F0.003253005553176228
tp400
(Vreshet.tv
p401
F0.002500336501581295
tp402
(Vnana10.co.il
p403
F0.0022548316724417413
tp404
(Vcalcalist.co.il
p405
F0.0018417326869460925
tp406
(Vrotter.net
p407
F0.0017081143185362219
tp408
(Vsdarot.tv
p409
F0.001147891993212563
tp410
(Vbeitar-jerusalem.net
p411
F0.0009314917537399742
tp412
(Vglobes.co.il
p413
F0.0008028600928230333
tp414
tp415
s((S'alpha6.com'
p416
tp417
(ttp418
(ts((S'apple.com'
p419
tp420
(ttp421
(ts((S'extracheese.org'
p422
tp423
(ttp424
(ts((S'alpha37.com'
p425
tp426
(ttp427
(ts((S'alpha10.com'
p428
tp429
(ttp430
(ts((S'alpha36.com'
p431
tp432
(ttp433
(ts((S'dropbox.com'
p434
tp435
(ttp436
((Vapp.box.com
p437
F0.0013404739791132872
tp438
(Vonedrive.live.com
p439
F0.0013325521252906328
tp440
(Vmail.google.com
p441
F0.0012791638643396106
tp442
(Vwetransfer.com
p443
F0.0012718690578820595
tp444
(Vdl.dropboxusercontent.com
p445
F0.001113213379752746
tp446
(Vbasecamp.com
p447
F0.0009847477842498521
tp448
(Vevernote.com
p449
F0.000911169342945063
tp450
(Vtrello.com
p451
F0.0007707266331317271
tp452
(Vgoo.gl
p453
F0.0005643067133763446
tp454
(Vapp.asana.com
p455
F0.0003447113809095475
tp456
(Vpastebin.com
p457
F0.0002867605076989273
tp458
(Vbit.ly
p459
F0.00028238188059720985
tp460
(Vdb.tt
p461
F0.00024846578865390364
tp462
(Vodesk.com
p463
F0.00023057830681953457
tp464
tp465
s((S'docks.com'
p466
tp467
(ttp468
((Vnew-startups.com
p469
F0.0011150896408172368
tp470
(Vimei.info
p471
F0.00013258549617717544
tp472
(Vdocs.com
p473
F0.00011210307582814303
tp474
tp475
s((S'cappuccino-project.org'
p476
tp477
(ttp478
(ts((S'astralapp.com'
p479
tp480
(ttp481
(ts((S'w3schools.com'
p482
tp483
(ttp484
((Vw3school.com
p485
F0.011502063248230303
tp486
(Vinfo343.ischool.uw.edu
p487
F0.00222680914685972
tp488
(Vhackthissite.org
p489
F0.0020351576929919703
tp490
(Vw3.org
p491
F0.0016574297507289558
tp492
(Vkb.iu.edu
p493
F0.0013406884083077707
tp494
(Vspidermarks.com
p495
F0.0011385526915260464
tp496
(Vtutorialspoint.com
p497
F0.0009175821542880868
tp498
(Vpicoctf.com
p499
F0.0004549384568337717
tp500
(Vw3shools.com
p501
F0.00037857890125446626
tp502
(Vapi.jquery.com
p503
F0.0003059480826287719
tp504
(Vmarianocalvo.com
p505
F0.0002950192275021
tp506
(Vprofit.notice.nl
p507
F0.00028931787484113804
tp508
(Vinsight.ccsf.edu
p509
F0.00027594889236203874
tp510
(Vxps.pk4labs.com
p511
F0.0002748864938891834
tp512
(Vtoster.ru
p513
F0.00025806812375980776
tp514
(Vkarlstads.itslearning.com
p515
F0.00022547500963902747
tp516
(Vhtmlgoodies.com
p517
F0.00021626982800444284
tp518
tp519
s((S'surrey.ac.uk'
p520
tp521
(ttp522
((Vpod51031.outlook.com
p523
F0.0017963586262663706
tp524
(Vexchange.uml.edu
p525
F0.0016144286007902184
tp526
(Vproximity.instructure.com
p527
F0.0015774356511539845
tp528
(Vexchange.ict.usc.edu
p529
F0.0015382841826919614
tp530
(Vsavingcountrymusic.com
p531
F0.0014328752846817757
tp532
(Vkaggle.com
p533
F0.001367232926914554
tp534
(Vussu.co.uk
p535
F0.0012484564641502206
tp536
(Vsurrey.summon.serialssolutions.com
p537
F0.0012332027866896894
tp538
(Vthecompleteuniversityguide.co.uk
p539
F0.0009841707655122726
tp540
(Vuppmax.uu.se
p541
F0.0009450092846242944
tp542
(Vsurrey-uk.sona-systems.com
p543
F0.0008319067088646201
tp544
(Vukeas.com.tw
p545
F0.0007918761171179304
tp546
(Vlms.neumont.edu
p547
F0.0007807936079197472
tp548
(Vunitemps.com
p549
F0.0007186507649313663
tp550
(Vbda.uk.com
p551
F0.0007096719081631982
tp552
(Vcreativeplusonline.co.uk
p553
F0.0006779957155228734
tp554
(Vcancercentrelondon.co.uk
p555
F0.0006776894018489342
tp556
(Vgradintel.com
p557
F0.0006630566913471102
tp558
(Vprogramsinformationpeople.org
p559
F0.0005993082113115775
tp560
(Vemeraldinsight.com
p561
F0.0005816681288147595
tp562
tp563
s((S'iosreviews.net'
p564
tp565
(ttp566
((Vfilter.usd262.net
p567
F0.0006673834859664083
tp568
(Va3.mzstatic.com
p569
F7.803355442840422e-05
tp570
(Vappszoom.com
p571
F2.7909670351906058e-05
tp572
(Vvimeo.com
p573
F4.509971547090617e-07
tp574
(Vgoogle.com.my
p575
F1.679023567040801e-07
tp576
(Vencrypted.google.com
p577
F1.581442718563291e-07
tp578
(Vduckduckgo.com
p579
F1.2340433203180587e-07
tp580
(Vtwitch.tv
p581
F6.699834316704951e-08
tp582
(Vgoogle.com
p583
F1.7100833862031203e-08
tp584
tp585
s((S'superuser.com'
p586
tp587
(ttp588
((Vstackexchange.com
p589
F0.004099459401758269
tp590
(Vlibc6.org
p591
F0.0030590372069599944
tp592
(Vencrypted.google.com
p593
F0.001023749016786298
tp594
(Vstartpage.com
p595
F0.0008201129671354862
tp596
(Vxie.lu
p597
F0.0007714776591323591
tp598
(Vforum.transmissionbt.com
p599
F0.0007119466006968179
tp600
(Vsmartredirect.de
p601
F0.00047585572816905144
tp602
(Vserverfault.com
p603
F0.00047570928055575365
tp604
(Vaskubuntu.com
p605
F0.0004297365953529304
tp606
(Vvirtualrouter.codeplex.com
p607
F0.00036603824366120835
tp608
(Ventiteinconnue.com
p609
F0.0002567725344910978
tp610
(Vservice.whiteclarke.com
p611
F0.0002535906271887286
tp612
(Vnetmechanic.dyndns.org
p613
F0.000249944877301956
tp614
(Vsocial.technet.microsoft.com
p615
F0.0002398143987486882
tp616
(Vcode5gaming.com
p617
F0.00022645517687985438
tp618
(Vmxc.ru
p619
F0.00021803652826213085
tp620
(Vwen.lu
p621
F0.00021779296914272678
tp622
(Vkldp.org
p623
F0.0001614334562921192
tp624
tp625
s((S'regexper.com'
p626
tp627
(ttp628
((Vstats.wefra.de
p629
F0.01654884318766067
tp630
(Vservices.balihoo.com
p631
F0.011492809144005528
tp632
(Virchelp.org
p633
F0.009514896272032445
tp634
(Vbalihoo.wikispaces.com
p635
F0.008600634473034897
tp636
(Vconfig.whatsapp.net
p637
F0.008235261768587769
tp638
(Vope.comlocal.com
p639
F0.0054417942296446095
tp640
(Vex-parrot.com
p641
F0.005244206124024955
tp642
(Vscriptular.com
p643
F0.004299777068208656
tp644
(Vquovo.slack.com
p645
F0.004205529280171921
tp646
(Vslant.co
p647
F0.004089682490907161
tp648
(Vifconfig.me
p649
F0.003823109724905924
tp650
(Vjex.im
p651
F0.003593484437396034
tp652
(Vregexpal.com
p653
F0.003533949522620317
tp654
(Vredmine.nokaut.pl
p655
F0.003469110832330577
tp656
(Vmyezapp.com
p657
F0.0033483126266631424
tp658
(Vosslab.msopentech.cn
p659
F0.003287199672690848
tp660
(Vregexcrossword.com
p661
F0.0032797965438917417
tp662
(Vflockhart.virtualave.net
p663
F0.003141157502640796
tp664
(Vww1.regexp.com
p665
F0.0030955896640652257
tp666
(Vwisepilgrim.tk
p667
F0.0027548002769799186
tp668
tp669
s((S'foobar2000.org'
p670
tp671
(ttp672
((Vxiph.org
p673
F0.012560316380569403
tp674
(Vchromium.woolyss.com
p675
F0.00955818180112687
tp676
(Vnnc-board.com
p677
F0.008407273052412243
tp678
(Vseriosoft.org
p679
F0.00812328805121656
tp680
(Vifi-audio.com
p681
F0.00682673706152465
tp682
(Vthalassa.feralhosting.com
p683
F0.006206348719177406
tp684
(Vexactaudiocopy.de
p685
F0.0059219804079789435
tp686
(Vhydrogenaud.io
p687
F0.004881531371685709
tp688
(Vsrware.net
p689
F0.0038989963128243216
tp690
(Vopen-end-music.de
p691
F0.0028752770792993695
tp692
(Vforum.pskovonline.ru
p693
F0.002540252362730567
tp694
(Vforum.hdmovie.vn
p695
F0.0019178192491957236
tp696
(Vmassengeschmack.tv
p697
F0.0017078779488777472
tp698
(Vforums.ffshrine.org
p699
F0.001649445296546487
tp700
(Vsmsserver.itouchnet.co.za
p701
F0.0015547791300949707
tp702
(Vburrrn.net
p703
F0.0013273025950887873
tp704
(Vjenny317.pixnet.net
p705
F0.0010201545082112753
tp706
(V10file.com
p707
F0.0009778273268755075
tp708
tp709
s((S'ycombinator.com'
p710
tp711
(ttp712
((Vhackerne.ws
p713
F0.002258449013607999
tp714
(Vtechmeme.com
p715
F0.0012691820221576143
tp716
(Vnews.layervault.com
p717
F0.0009917455368117767
tp718
(Vproducthunt.com
p719
F0.0006783600822242837
tp720
(Vspacerogue.net
p721
F0.0006178246123912907
tp722
(Vxcortex.com
p723
F0.0005490919247667366
tp724
(Vblog.samaltman.com
p725
F0.00045371434238055064
tp726
(Vnautil.us
p727
F0.0004510529032547637
tp728
(Vnews.dbanotes.net
p729
F0.0003639712839933979
tp730
(Vlesswrong.com
p731
F0.00029064409138113845
tp732
(Vnikcub.com
p733
F0.00023565540621483204
tp734
(Vlobste.rs
p735
F0.00016749410462020464
tp736
(Vgwucolumbian.service-now.com
p737
F0.00015106314765607595
tp738
(Vdatatau.com
p739
F0.0001409348825942487
tp740
(Vnet-benefits.net
p741
F0.00013016942453237583
tp742
tp743
s((S'netdna-ssl.com'
p744
tp745
(ttp746
((Vservermat.info
p747
F0.015230253887760331
tp748
(Vfinedininglovers.com
p749
F0.007828688392923909
tp750
(Vblog.myfitnesspal.com
p751
F0.006571678856628307
tp752
(Vvisual.ly
p753
F0.005523052877933682
tp754
(Vredrow.co.uk
p755
F0.0054794740749505135
tp756
(Vgrainandmortar.com
p757
F0.005173594116386273
tp758
(Vskillsera.com
p759
F0.004438460562360511
tp760
(Vblank-box.net
p761
F0.003202477829561559
tp762
(Vkls-ukraine.com.ua
p763
F0.0026298015359082477
tp764
(Vfinerthings.in
p765
F0.002208584819772735
tp766
(Vhostedcloudy.com
p767
F0.001929990552717578
tp768
(Vzino.im
p769
F0.0017095925364803445
tp770
(Vsram.com
p771
F0.0015705995916889095
tp772
(Vs1magnettvcom.maynemyltf.netdna-cdn.com
p773
F0.0013414146062946583
tp774
(Vhomepath.com
p775
F0.0010985648416592306
tp776
(Vagents.equator.com
p777
F0.000992105542015471
tp778
(Vnewhdplugin.net
p779
F0.0006650805674776797
tp780
(Virvsluggage.com
p781
F0.0006295881279719576
tp782
(Vcool-tv.net
p783
F0.0006268836631248746
tp784
(Vbettielou.blogspot.com
p785
F0.0005037569778605635
tp786
tp787
s((S'alpha12.com'
p788
tp789
(ttp790
(ts((S'theenchanter.com'
p791
tp792
(ttp793
(ts((S'mashable.com'
p794
tp795
(ttp796
((Vtechcrunch.com
p797
F0.003269554441150279
tp798
(Vthenextweb.com
p799
F0.0020893059576553882
tp800
(Vtheverge.com
p801
F0.0011964644051488723
tp802
(Vengadget.com
p803
F0.0011541180149668715
tp804
(Vwired.com
p805
F0.0010062199169788152
tp806
(Vt.co
p807
F0.001000532665223137
tp808
(Vgizmodo.com
p809
F0.0008873288390789227
tp810
(Vbusinessinsider.com
p811
F0.0007152040206950399
tp812
(Vdigg.com
p813
F0.0005093257403694798
tp814
(Vmacrumors.com
p815
F0.00048813763950878304
tp816
(Vfastcompany.com
p817
F0.0004186323234047929
tp818
(Varstechnica.com
p819
F0.00036950639928100704
tp820
(Vfeedly.com
p821
F0.000247658170357474
tp822
tp823
s((S'alpha2.com'
p824
tp825
(ttp826
((Valpharooms.com
p827
F0.003697445800052664
tp828
(Vsculpteo.com
p829
F0.00044483632406326206
tp830
(Vuk.pinterest.com
p831
F1.5539860296655933e-05
tp832
(Vimgur.com
p833
F1.9443935627705352e-07
tp834
(Vdrive.google.com
p835
F2.224820992362993e-08
tp836
tp837
s((S'designtaxi.com'
p838
tp839
(ttp840
((Vnaturpixel.com
p841
F0.002525569674668886
tp842
(Vresearch.facebook.com
p843
F0.0024447558932316087
tp844
(Vmrhyde.com
p845
F0.002101027503719101
tp846
(Vpurpleheart.org
p847
F0.0015727754663803514
tp848
(Vedpuzzle.com
p849
F0.0014091455933541925
tp850
(Vallenby-pratt.com
p851
F0.0012811653560782217
tp852
(Valiciavera.com
p853
F0.0012265785229286553
tp854
(Vtheinspiration.com
p855
F0.0011984722954081271
tp856
(Vmodernhousemagazine.com
p857
F0.0011556103820603895
tp858
(Vhaebc.com
p859
F0.0011554678439678909
tp860
(Vhep.eiz.jp
p861
F0.0011284011989747447
tp862
(Vsomethingcomics.tumblr.com
p863
F0.001076472847460011
tp864
(Vmensstyleadvice.com
p865
F0.0010069390317375387
tp866
(Vjobisjob.de
p867
F0.0009852059176329467
tp868
(Vassets.gecapital.com.au
p869
F0.0009332437835811571
tp870
(Vcreativereview.co.uk
p871
F0.000928881838058707
tp872
(Vzombiesamurai.pl
p873
F0.0009227463467303423
tp874
(Vecsediekszer.hu
p875
F0.0008745579998976046
tp876
(Vkarne.pl
p877
F0.0008697854085080444
tp878
(Vilghirlandaio.com
p879
F0.000848768909519732
tp880
tp881
s((S'alpha41.com'
p882
tp883
(ttp884
(ts((S'mortgagecalculator.org'
p885
tp886
(ttp887
((Vmlstoledo.com
p888
F0.002289881028527568
tp889
(Vecf.ganb.uscourts.gov
p890
F0.002150350332913875
tp891
(Vsef.fusionmls.com
p892
F0.0017126636580814146
tp893
(Vnom.fusionmls.com
p894
F0.0012663389234897188
tp895
(Vmoneychimp.com
p896
F0.0010296039907220602
tp897
(Vnexusthemes.com
p898
F0.0009361985436735829
tp899
(Vluminouswm.com
p900
F0.0007395303318144178
tp901
(Vtn-murfreesboro.civicplus.com
p902
F0.0007395303318144178
tp903
(Vturquoisekosherfish.com
p904
F0.0007395303318144178
tp905
(Vtour.nneren.previsite.com
p906
F0.0007377367825841108
tp907
(Vpopville.wpengine.netdna-cdn.com
p908
F0.0007369530082134957
tp909
(Vstjosephcountyindiana.com
p910
F0.0007309605565805052
tp911
(Vbestplaces.coldwellbanker.com
p912
F0.0007305960044710725
tp913
(Vloftplace.com
p914
F0.0007303300151423214
tp915
(Vmyutahnest.com
p916
F0.0007207697129977007
tp917
(Vmatrix.carolinamls.com
p918
F0.0006728210371216791
tp919
(Vatproperties.com
p920
F0.0004691549728514806
tp921
(Vmatrix.mlslistings.com
p922
F0.00043129308413106487
tp923
(Vbrighton-exchange.com
p924
F0.0003896827677490704
tp925
(Vmortgagcalculator.org
p926
F0.0003896827677490704
tp927
tp928
s((S'alpha25.com'
p929
tp930
(ttp931
(ts((S'diveintopython.net'
p932
tp933
(ttp934
((Vluisartola.com
p935
F0.01308713593306666
tp936
(Vlearn.gramener.com
p937
F0.0066802362512468775
tp938
(Vdjango-chinese-docs-14.readthedocs.org
p939
F0.006255710972095312
tp940
(Vlignos.org
p941
F0.003607044345427541
tp942
(Vdocs.python.org
p943
F0.0029514139252664086
tp944
(Vdiveintopython3.net
p945
F0.0024584698132149164
tp946
(Vscipy.org
p947
F0.00233695159956468
tp948
(Vcalazan.com
p949
F0.0018844901747393514
tp950
(Vconnexus-jjm.appspot.com
p951
F0.0016320116054158607
tp952
(Vtour-sz.com
p953
F0.0015841490518749704
tp954
(Vsagemath.org
p955
F0.0013459797709473023
tp956
(Vapp.azendoo.com
p957
F0.001330340715038685
tp958
(Vgit.crl.vecna.com
p959
F0.0011964902951342728
tp960
(Vtechprom.ru
p961
F0.0011357111225529769
tp962
(Vmozgovipc.blogspot.co.il
p963
F0.0008450978246330817
tp964
(Vcforbeginners.com
p965
F0.0006691024343003037
tp966
(Vquality.mozilla.org
p967
F0.0006626145240006626
tp968
(Vvipod.ecommtools.com
p969
F0.0006560723137483598
tp970
(Vtrac.kit-xxi.com.ua
p971
F0.0006007910415380251
tp972
(Vwoodpecker.org.cn
p973
F0.0005948740571413293
tp974
tp975
s((S'alpha26.com'
p976
tp977
(ttp978
(ts((S'alpha49.com'
p979
tp980
(ttp981
(ts((S'stakeventures.com'
p982
tp983
(ttp984
(ts((S'alpha11.com'
p985
tp986
(ttp987
(ts((S'metaskills.net'
p988
tp989
(ttp990
((Vctshryock.com
p991
F0.016547468798205022
tp992
(Vredmine.bikecityguide.org
p993
F0.0021527305687740767
tp994
(Vatendesign.atlassian.net
p995
F0.0003169074849782714
tp996
(Vcoderwall.com
p997
F0.00021703084325282697
tp998
(Vphantomjs.org
p999
F0.00013313754282917278
tp1000
(Vhttpd.apache.org
p1001
F1.5940797752535055e-05
tp1002
(Vgithub.com
p1003
F3.3243081757242964e-06
tp1004
(Vduckduckgo.com
p1005
F1.0081056908941716e-06
tp1006
(Vtrello.com
p1007
F9.761391994511724e-07
tp1008
(Vstartpage.com
p1009
F6.875454166190843e-07
tp1010
(Vstackoverflow.com
p1011
F3.0192988684047274e-07
tp1012
(Vtweetdeck.twitter.com
p1013
F1.599518661211605e-07
tp1014
(Vbing.com
p1015
F9.369324416725723e-08
tp1016
(Vgoogle.com.sg
p1017
F5.183408317133579e-08
tp1018
tp1019
s((S'overapi.com'
p1020
tp1021
(ttp1022
((Vapis.pw
p1023
F0.007200668343131401
tp1024
(Vtroy.labs.daum.net
p1025
F0.00701409345452805
tp1026
(V121down.com
p1027
F0.005797076194085878
tp1028
(Vbullium.com
p1029
F0.005647792665666607
tp1030
(Vpittalis.hostings.co.uk
p1031
F0.005007780530559443
tp1032
(Vwebmail.garmin.com
p1033
F0.004804957073805288
tp1034
(Vbumpsdocumentarily.squarespace.com
p1035
F0.004158373405198481
tp1036
(Vorays.wd-works.com
p1037
F0.004110381077529567
tp1038
(Vbootgraph.net
p1039
F0.004030362627239939
tp1040
(Vredmine.infogene.fr
p1041
F0.0034291946192749156
tp1042
(Vmitarbeiter.hs-heilbronn.de
p1043
F0.003285460978893482
tp1044
(Vnote-pad.net
p1045
F0.0032399080437864043
tp1046
(Vupsideos.com
p1047
F0.0032079887740138428
tp1048
(Vscm.ulster.ac.uk
p1049
F0.002922858853657464
tp1050
(Vibmwebsphereportalserver.blogspot.pt
p1051
F0.0026748188381356852
tp1052
(Vytub3.com
p1053
F0.0026007381348067253
tp1054
(Vvertical3w.teamwork.com
p1055
F0.002595337661272785
tp1056
(Vfindpatent.ru
p1057
F0.0025676768503163972
tp1058
(Vcheat-sheets.org
p1059
F0.0022810455972986374
tp1060
(Vlocaltest.me
p1061
F0.002195967292517345
tp1062
tp1063
s((S'meditation.com'
p1064
tp1065
(ttp1066
((Vmedication.com
p1067
F0.015265354800238521
tp1068
(Vhoroscopedays.com
p1069
F0.0001161929383741703
tp1070
(Vbrilliant.org
p1071
F6.724553867879327e-05
tp1072
(Vamharicmovies.com
p1073
F5.362787984026289e-05
tp1074
(Vlequipe.fr
p1075
F7.816310148203357e-07
tp1076
(Ven.wikipedia.org
p1077
F5.252421832353988e-08
tp1078
(Vsearch.ask.com
p1079
F3.7740381291546105e-08
tp1080
(Vgoogle.ca
p1081
F3.648383286054617e-08
tp1082
(Vreddit.com
p1083
F1.058890587253285e-08
tp1084
(Vgoogle.co.in
p1085
F3.669238772897556e-09
tp1086
(Vfacebook.com
p1087
F1.5397755423834308e-09
tp1088
tp1089
s((S'alpha48.com'
p1090
tp1091
(ttp1092
(ts((S'taskrabbit.com'
p1093
tp1094
(ttp1095
(ts((S'fetchapp.com'
p1096
tp1097
(ttp1098
((Vcheckout.shopify.com
p1099
F0.03289034869667742
tp1100
(Vpixelunion.net
p1101
F0.014754481133273599
tp1102
(Vvfbpro.com
p1103
F0.006749764676306224
tp1104
(Vmovimus-wrestling.myshopify.com
p1105
F0.004611150121474517
tp1106
(Vsiteorigin.uservoice.com
p1107
F0.0013398333270103824
tp1108
(Vnivel7.zendesk.com
p1109
F0.0010256196709226026
tp1110
(Vlocalinternettraffic.basecamphq.com
p1111
F0.0007945726175017724
tp1112
(Vfindacaravan.co.uk
p1113
F0.000773582354640265
tp1114
(Vmygedlive.com
p1115
F0.0006667648984276862
tp1116
(Vsupergiantgames.com
p1117
F0.0006353591339866412
tp1118
(Vrubinmuseum.mooclients.com
p1119
F0.0005533319807440471
tp1120
(Vstore-ugs15e.mybigcommerce.com
p1121
F0.0005459376175282371
tp1122
(Vdowntownhq.com
p1123
F0.0005201510438608135
tp1124
(Vwebmail1.cogeco.ca
p1125
F0.0005121806493696923
tp1126
(Vccparkboard.com
p1127
F0.0005069670278806741
tp1128
(Vmy-cubby-house-rocks.myshopify.com
p1129
F0.000469641480868186
tp1130
(Vpredictablesuccess.com
p1131
F0.00046456904822288767
tp1132
(Vabookapart.com
p1133
F0.000443290002711978
tp1134
(Vjoridweb.com
p1135
F0.00037026980326331123
tp1136
(Vevanabrams.com
p1137
F0.00036538634981349104
tp1138
tp1139
s((S'youtu.be'
p1140
tp1141
(ttp1142
((Vyoutube.be
p1143
F0.002327771504181619
tp1144
(Vuses.myherbalife.com
p1145
F0.0022052491406921487
tp1146
(Vbahrammoshiri.com
p1147
F0.00120513846529179
tp1148
(Vsteerbiddersales.com
p1149
F0.0010856524094649729
tp1150
(Vexams.evinrude.com
p1151
F0.0009387105668307909
tp1152
(Vwww2.memehk.com
p1153
F0.000840664053480079
tp1154
(Vmemehk.com
p1155
F0.0006322798687984735
tp1156
(Vmissyusa.com
p1157
F0.0006279402146092168
tp1158
(Vfollovvme.com
p1159
F0.0004785133661676418
tp1160
(Vtubetamil.com
p1161
F0.0004547101225723085
tp1162
(Vfirstlegoleague.org
p1163
F0.0004278581860366056
tp1164
(Vk8mer.com
p1165
F0.00038935924897389785
tp1166
(Vblaulichtreporter.de
p1167
F0.0003442025800306291
tp1168
(Veasykart.it
p1169
F0.00034177048920407956
tp1170
(Vnerdapproved.com
p1171
F0.00033383098580019383
tp1172
(Vwieboldtv.de
p1173
F0.0003332203017659258
tp1174
(Vphumidrama.com
p1175
F0.00032757148580445696
tp1176
(Vkilroynews.net
p1177
F0.0003270797996804544
tp1178
(Vhelpdesk.tankionline.com
p1179
F0.0002683043007451439
tp1180
(Vsaintsfc.co.uk
p1181
F0.0002499477358238586
tp1182
tp1183
s((S'ynet.co.il'
p1184
tp1185
(ttp1186
(ts((S'alpha51.com'
p1187
tp1188
(ttp1189
(ts((S'alpha1.com'
p1190
tp1191
(ttp1192
((Vtheaudience.com
p1193
F0.009694201243497019
tp1194
tp1195
s((S'tutorialspoint.com'
p1196
tp1197
(ttp1198
((Vwiki.python.org
p1199
F0.005812159708003393
tp1200
(Vtutorialpoint.com
p1201
F0.0021775165351430943
tp1202
(Vjavatpoint.com
p1203
F0.001968934012532698
tp1204
(Vhexvolt.blogspot.ru
p1205
F0.0015654524915361316
tp1206
(Verhvervsakademisydvest.sharepoint.com
p1207
F0.0010571098842477162
tp1208
(Vrallydev.com
p1209
F0.0007445860040062963
tp1210
(Vcprogramming.com
p1211
F0.0006934952073382222
tp1212
(Vebooks-it.org
p1213
F0.0006203165820055927
tp1214
(Vmkyong.com
p1215
F0.0005062963910686054
tp1216
(Vlardoors.ru
p1217
F0.00048065709207179333
tp1218
(Vstudytonight.com
p1219
F0.00044009319580119765
tp1220
(Vhomeandlearn.co.uk
p1221
F0.00042920870144858323
tp1222
(Vhub.attask.com
p1223
F0.00041461175045723575
tp1224
(Vfhict.nl
p1225
F0.0003724732036863049
tp1226
(Vbatman.jamk.fi
p1227
F0.00035189190319527444
tp1228
(Vservices.brics.dk
p1229
F0.00034668114031273604
tp1230
(Vjava2s.com
p1231
F0.0003430930183514621
tp1232
(Vncvps.blackboard.com
p1233
F0.00033488728945250517
tp1234
(Vforum-alsacetech.org
p1235
F0.00031760909843814436
tp1236
(Vvogella.com
p1237
F0.0003130399033593343
tp1238
tp1239
s((S'cappuccino.org'
p1240
tp1241
(ttp1242
(ts((S'alpha18.com'
p1243
tp1244
(ttp1245
(ts((S'sqlite.org'
p1246
tp1247
(ttp1248
(ts((S'amazon.com'
p1249
tp1250
(ttp1251
((Vebay.com
p1252
F0.006738821250621747
tp1253
(Vslickdeals.net
p1254
F0.004120650473717563
tp1255
(Vbestbuy.com
p1256
F0.0030788964220882925
tp1257
(Vwalmart.com
p1258
F0.003050477312560511
tp1259
(Vnewegg.com
p1260
F0.002798296769576636
tp1261
(Vnetflix.com
p1262
F0.0024294274563549496
tp1263
(Vreddit.com
p1264
F0.002175753691217573
tp1265
(Vgoogle.com
p1266
F0.001391784985509667
tp1267
(Vhulu.com
p1268
F0.0011102072873126314
tp1269
(Vblackfriday.com
p1270
F0.0008052288786513178
tp1271
(Vus-mg6.mail.yahoo.com
p1272
F0.000766715618933907
tp1273
(Vtarget.com
p1274
F0.0007593360528991675
tp1275
(Ven.wikipedia.org
p1276
F0.0005814582312035169
tp1277
(Vgoodreads.com
p1278
F0.000495839687204871
tp1279
tp1280
s((S'alpha13.com'
p1281
tp1282
(ttp1283
(ts((S'brentozar.com'
p1284
tp1285
(ttp1286
(ts((S'rubybestpractices.com'
p1287
tp1288
(ttp1289
(ts((S'alpha52.com'
p1290
tp1291
(ttp1292
(ts((S'adobe.com'
p1293
tp1294
(ttp1295
((Vmozilla.org
p1296
F0.015111450175616077
tp1297
(Vapps.facebook.com
p1298
F0.0059619678680743506
tp1299
(Vfilehippo.com
p1300
F0.004900062455243954
tp1301
(Vacrobat.com
p1302
F0.004836207731470023
tp1303
(Vshell.windows.com
p1304
F0.004715263584245032
tp1305
(Vfb1.farm2.zynga.com
p1306
F0.004637787853163249
tp1307
(Vsupport.google.com
p1308
F0.0037578816140994334
tp1309
(Vthanks.freesoftstore.com
p1310
F0.002328482156562959
tp1311
(Vupdate1024.com
p1312
F0.0013898408960056395
tp1313
(Vthanks.freesoftstore2.com
p1314
F0.0013255858152199373
tp1315
(Vowl.english.purdue.edu
p1316
F0.0013105499640232714
tp1317
(Veasyjet.com
p1318
F0.0007198307701079823
tp1319
(Vmacromedia.com
p1320
F0.0006869022921899767
tp1321
(Vsecure.sarsefiling.co.za
p1322
F0.0006844256605296551
tp1323
tp1324
s((S'wikipedia.org'
p1325
tp1326
(ttp1327
((Vencrypted.google.com
p1328
F0.00771525505585607
tp1329
(Vbing.com
p1330
F0.004811910265206266
tp1331
(Vanswers.yahoo.com
p1332
F0.003100154798136046
tp1333
(Vsearch.disconnect.me
p1334
F0.0027486073979923428
tp1335
(Vprinceton.edu
p1336
F0.002546492596888385
tp1337
(Vimdb.com
p1338
F0.0020199007621722297
tp1339
(Vboards.4chan.org
p1340
F0.0011714401370427696
tp1341
(Veksisozluk.com
p1342
F0.001109914847106986
tp1343
(Vduckduckgo.com
p1344
F0.0010408949383171428
tp1345
(Vreddit.com
p1346
F0.000775024669043505
tp1347
(Vwen.lu
p1348
F0.0007574262961416565
tp1349
(Vraterhub.com
p1350
F0.00044425107955377627
tp1351
(Vbaike.baidu.com
p1352
F0.00035421615396662187
tp1353
tp1354
s((S'twitter.com'
p1355
tp1356
(ttp1357
((Vinstagram.com
p1358
F0.009640668836346135
tp1359
(Vfacebook.com
p1360
F0.005754900727130478
tp1361
(Vtumblr.com
p1362
F0.005717088994814716
tp1363
(Vtwitch.tv
p1364
F0.005152529468333346
tp1365
(Vreddit.com
p1366
F0.004914842497878588
tp1367
(Vask.fm
p1368
F0.004444513960399476
tp1369
(Vlinkedin.com
p1370
F0.003428389609628508
tp1371
(Vyoutube.com
p1372
F0.0033467710833313545
tp1373
(Vgoogle.co.jp
p1374
F0.0017641893086358437
tp1375
(Vespn.go.com
p1376
F0.001334680555584708
tp1377
(Vvk.com
p1378
F0.0008567391042836494
tp1379
(Vgoogle.com.tr
p1380
F0.0008184359701507858
tp1381
tp1382
s((S'walmart.com'
p1383
tp1384
(ttp1385
((Vtarget.com
p1386
F0.016191472243672674
tp1387
(Vwww2.onlinecreditcenter6.com
p1388
F0.01191700934366368
tp1389
(Vblackfriday.com
p1390
F0.008828973008072028
tp1391
(Vbestbuy.com
p1392
F0.007051185413925967
tp1393
(Vkmart.com
p1394
F0.004302594970420979
tp1395
(Vtoysrus.com
p1396
F0.004132935890938453
tp1397
(Vsamsclub.com
p1398
F0.003398453827899621
tp1399
(Vhiringcenter.walmartstores.com
p1400
F0.002464230730206549
tp1401
(Vr.befrugal.com
p1402
F0.002102698555986174
tp1403
(Vwalgreens.com
p1404
F0.0018930996132344058
tp1405
(Vshopping.paypal.com
p1406
F0.0012793019201361572
tp1407
(Vkohls.com
p1408
F0.001067534574161307
tp1409
(Vgamestop.com
p1410
F0.00098459925813377
tp1411
(Vamazon.com
p1412
F0.0009239514095817645
tp1413
tp1414
s((S'alpha16.com'
p1415
tp1416
(ttp1417
(ts((S'google.com'
p1418
tp1419
(ttp1420
(ts((S'coursera.org'
p1421
tp1422
(ttp1423
((Vcourses.edx.org
p1424
F0.005682409218958396
tp1425
(Vudacity.com
p1426
F0.0032743153315409304
tp1427
(Vcodeskulptor.org
p1428
F0.002716798767326224
tp1429
(Vedx.org
p1430
F0.002345213620656822
tp1431
(Vmooc.guokr.com
p1432
F0.001304445694573597
tp1433
(Vudemy.com
p1434
F0.0012989515229204602
tp1435
(Vcodecademy.com
p1436
F0.001094793903822028
tp1437
(Vfuturelearn.com
p1438
F0.001069718425067974
tp1439
(Vd396qusza40orc.cloudfront.net
p1440
F0.0009671142040794794
tp1441
(Vmysliderule.com
p1442
F0.0006418503366131907
tp1443
(Vmiriadax.net
p1444
F0.0006400923571775631
tp1445
(Vocw.mit.edu
p1446
F0.0005196729488418822
tp1447
(Vonline.stanford.edu
p1448
F0.0004266295741752318
tp1449
(V1point3acres.com
p1450
F0.00034809050272295626
tp1451
tp1452
s((S'beta3.com'
p1453
tp1454
(ttp1455
((Vsearch.smartshopping.com
p1456
F1.0572516976406806e-07
tp1457
tp1458
s((S'puzzlescript.net'
p1459
tp1460
(ttp1461
(ts((S'python-requests.org'
p1462
tp1463
(ttp1464
((Vzhidaow.com
p1465
F0.009551755746611724
tp1466
(Vfreepythontips.wordpress.com
p1467
F0.006459608747061535
tp1468
(Vcrsmithdev.com
p1469
F0.003916645744413759
tp1470
(Vpythonforbeginners.com
p1471
F0.00257766774217122
tp1472
(Vdjrill.readthedocs.org
p1473
F0.002012919776840218
tp1474
(Vpypi.python.org
p1475
F0.0017488807041015017
tp1476
(Vsqlserverradio.co.il
p1477
F0.0015344216654011643
tp1478
(Vlftp.yar.ru
p1479
F0.0014730447987851177
tp1480
(Vcommunity.idolondemand.com
p1481
F0.0014134444923578169
tp1482
(Vlupaworld.com
p1483
F0.0012363183378873667
tp1484
(Vapi-help.campaigncommander.com
p1485
F0.0012157320254775146
tp1486
(Vcms.int.avast.com
p1487
F0.00106509819085949
tp1488
(V101skidka.slack.com
p1489
F0.001045992198313829
tp1490
(Vmy.itron.com
p1491
F0.0009469974323677864
tp1492
(Vgitlab.labs.nic.cz
p1493
F0.000788003055522052
tp1494
(Vcoupadev.atlassian.net
p1495
F0.0007800650703031773
tp1496
(Vctf.sobug.com
p1497
F0.0007446869450650168
tp1498
(Vpydoc.net
p1499
F0.0007438618658704967
tp1500
(Vcrummy.com
p1501
F0.0005123460621771358
tp1502
(Vhazel01.dot8.va.us.attask.com
p1503
F0.0004937072558779491
tp1504
tp1505
s((S'blogspot.com'
p1506
tp1507
(ttp1508
((Vassemblagemagazine.blogspot.co.uk
p1509
F0.006541988631317168
tp1510
(Vm5newsroom.blogspot.com
p1511
F0.004036872954197155
tp1512
(Vynotdownload.blogspot.fr
p1513
F0.0022117442599623263
tp1514
(Vmthplay.blogspot.com
p1515
F0.0020413221935465056
tp1516
(Vhamidrezashaabani.blogspot.com
p1517
F0.0019204729711661645
tp1518
(Vaufannada.blogspot.com
p1519
F0.0017903645833333333
tp1520
(Vbpi.fr
p1521
F0.0017869947498546654
tp1522
(Vesmor.blogspots.com
p1523
F0.00178335979137614
tp1524
(Vnasirabdulsattar.blogspot.com
p1525
F0.0015214354157980588
tp1526
(Vblogdauyeu.blogspot.com
p1527
F0.0015159288469955333
tp1528
(Vnetnam.vn
p1529
F0.0015090202188512115
tp1530
(Vncngame.blogspot.com
p1531
F0.0015063179670179727
tp1532
(Vm88vn.com
p1533
F0.001409084418436105
tp1534
(Vmncshop.co.id
p1535
F0.001362530038324371
tp1536
(Vmywardrobesl.blogspot.com
p1537
F0.0011306262301520825
tp1538
(Vshishology.blogspot.com
p1539
F0.0010837903091795939
tp1540
(Vkaka1951989.blogspot.com
p1541
F0.0010813764505062807
tp1542
(Vblogspots.com
p1543
F0.0010752472369247685
tp1544
(Vapp-vn.blogspot.com
p1545
F0.0010721612178382198
tp1546
(Vchoukngok.blogspot.com
p1547
F0.0010719783990852125
tp1548
tp1549
s((S'lifehacker.com'
p1550
tp1551
(ttp1552
(ts((S'similarweb.com'
p1553
tp1554
(ttp1555
(ts((S'beta1.com'
p1556
tp1557
(ttp1558
(ts((S'bankrate.com'
p1559
tp1560
(ttp1561
((Vmortgagecalculator.org
p1562
F0.003674986761427938
tp1563
(Vbanrate.com
p1564
F0.0024237581029067125
tp1565
(Voptimalblue.com
p1566
F0.0014267289259495735
tp1567
(Vquickenloans.com
p1568
F0.0012738188802054122
tp1569
(Vw3.kubotalink.com
p1570
F0.001263829190928985
tp1571
(Vhsh.com
p1572
F0.0012327096241926128
tp1573
(Vfreddiemac.com
p1574
F0.0011495189740705278
tp1575
(Vmortgagenewsdaily.com
p1576
F0.00083906765896721
tp1577
(Vdealerdaily.toyota.com
p1578
F0.000807919706891282
tp1579
(Vbakrate.com
p1580
F0.000734880820206442
tp1581
(Vjobs.alpineaccess.com
p1582
F0.0006636771653698376
tp1583
(Vuiccu.mortgagewebcenter.com
p1584
F0.0005437095103291574
tp1585
(Vlendingtree.com
p1586
F0.0005310374295979765
tp1587
(Vcreditcards.com
p1588
F0.0005299372151525152
tp1589
(Vfranklinfirstfinancial.com
p1590
F0.0005052295897674785
tp1591
(Vfreemoneyfinance.com
p1592
F0.0004901845049979707
tp1593
(Vfoundationsu.com
p1594
F0.0004821683800864459
tp1595
(Vtrc.taboola.com
p1596
F0.00047723627944017615
tp1597
(Vcrm.studentloanhelp.info
p1598
F0.0004618004691505321
tp1599
(Vnerdwallet.com
p1600
F0.00043990024211160443
tp1601
tp1602
s((S'labnol.org'
p1603
tp1604
(ttp1605
((Vdictation.io
p1606
F0.053638048227418224
tp1607
(Vshoutmeloud.com
p1608
F0.006330967493765026
tp1609
(Vchandigarh.craigslist.co.in
p1610
F0.005956020018352308
tp1611
(Vctrlq.org
p1612
F0.003126295253718603
tp1613
(Vsoftwarerecs.stackexchange.com
p1614
F0.0024987468507650713
tp1615
(Vwarriorbreak.com
p1616
F0.0018003759225045986
tp1617
(Vdavidwalsh.name
p1618
F0.0017453391136774254
tp1619
(Vchillingeffects.org
p1620
F0.0010805928441890496
tp1621
(Vbocktherobber.com
p1622
F0.0010176242920439393
tp1623
(Vdeadurl.com
p1624
F0.0009012318677442234
tp1625
(Vcrack-net.com
p1626
F0.0008675788308667134
tp1627
(Vacessotop.semanatopenem.com
p1628
F0.0008457425669831452
tp1629
(Vplaytool.com
p1630
F0.000833971133323157
tp1631
(Vblog.teamtreehouse.com
p1632
F0.0007845697379048289
tp1633
(Vscript.google.com
p1634
F0.000775616447790688
tp1635
(Vcurso.aspasl.com
p1636
F0.0007295140509111274
tp1637
(Vmuro.sk
p1638
F0.0007203143020910928
tp1639
(Vdigitalhubinc.com
p1640
F0.0006249173569437375
tp1641
(Vmeteoalarm.eu
p1642
F0.0006155205087474934
tp1643
(Vbazqux.com
p1644
F0.0006142111911626334
tp1645
tp1646
s((S'microsoft.com'
p1647
tp1648
(ttp1649
((Vaccount.live.com
p1650
F0.03392699089457
tp1651
(Vsupport.skype.com
p1652
F0.0035348837961288793
tp1653
(Vsupport.google.com
p1654
F0.0034552858349033064
tp1655
(Vaz307127.vo.msecnd.net
p1656
F0.0022238317607300075
tp1657
(Vbing.com
p1658
F0.0021814967174457966
tp1659
(Vinsider.windows.com
p1660
F0.0020978542030613587
tp1661
(Vsupport.mozilla.org
p1662
F0.0014405952463219156
tp1663
(Vshell.windows.com
p1664
F0.0009299673249284091
tp1665
(Vwunderlist.com
p1666
F0.000919005584821735
tp1667
(Vsupport.office.com
p1668
F0.0008910745265042753
tp1669
(Vmozilla.org
p1670
F0.0008072399269828862
tp1671
(Voffice.com
p1672
F0.0007969000993079764
tp1673
(Vportal.office.com
p1674
F0.0005823095407318863
tp1675
(Vjava.com
p1676
F0.0005101489984820142
tp1677
(Vmystartsearch.com
p1678
F0.0004853991371988819
tp1679
(Vmicrosoftstore.com
p1680
F0.0004429218660199628
tp1681
(Viegallery.com
p1682
F0.00043285860820947095
tp1683
tp1684
s((S'sitepoint.com'
p1685
tp1686
(ttp1687
((Vlearnable.com
p1688
F0.003775512545387916
tp1689
(Vtutsplus.com
p1690
F0.0018674564890191878
tp1691
(Vjquery4u.com
p1692
F0.0015746334577439493
tp1693
(Vsmashingmagazine.com
p1694
F0.0015285013069617425
tp1695
(Vphpdeveloper.org
p1696
F0.0009926448925364107
tp1697
(Vaskleo.com
p1698
F0.0007617632740019425
tp1699
(Vrockettheme.com
p1700
F0.0006841783339726206
tp1701
(Vohio.edu
p1702
F0.0006826065234712008
tp1703
(Vbaymard.com
p1704
F0.0005839645071941564
tp1705
(Vwfvrj.petrobras.com.br
p1706
F0.000577655622686037
tp1707
(Vflukeout.github.io
p1708
F0.0005158523372684569
tp1709
(Vcodeguide.hu
p1710
F0.0005057804575627206
tp1711
(Vdocs.angularjs.org
p1712
F0.0005039753917788309
tp1713
(Vrubyflow.com
p1714
F0.00047607335651278954
tp1715
(Vsocial.tesisquare.com
p1716
F0.0004735965093608097
tp1717
(Vmobility.synovus.com
p1718
F0.00046856522119488223
tp1719
(Vorder.sitepointmedia.com
p1720
F0.0004548368673123083
tp1721
(Vmanagewp.org
p1722
F0.00035966640079505813
tp1723
(Vapp.emailmeform.com
p1724
F0.0002865970293783667
tp1725
(Vhealthclubsystems.com
p1726
F0.0002705686531720551
tp1727
tp1728
s((S'history.com'
p1729
tp1730
(ttp1731
((Vaetv.com
p1732
F0.00798236133012671
tp1733
(Vthisdayinrock.com
p1734
F0.0037971496161920237
tp1735
(Vhistorynet.com
p1736
F0.0030760712668171076
tp1737
(Vdiscovery.com
p1738
F0.0021861770845481867
tp1739
(Von-this-day.com
p1740
F0.001472630734754977
tp1741
(Vtravelchannel.com
p1742
F0.001415992886466294
tp1743
(Vbiography.com
p1744
F0.0013597998334544566
tp1745
(Vunileverpc.com
p1746
F0.0012406136238727436
tp1747
(Voptimum.net
p1748
F0.0010563923348507547
tp1749
(Vdailyupliftingquotes.com
p1750
F0.000970086295744522
tp1751
(Vtodayinliterature.com
p1752
F0.0007611890843539773
tp1753
(Vmylifetime.com
p1754
F0.0007440318299485829
tp1755
(Vactivate.fox.com
p1756
F0.000740355482017051
tp1757
(Vwatchtveverywhere.com
p1758
F0.0007079766794187768
tp1759
(Vhistoryorb.com
p1760
F0.0006006680921527825
tp1761
(Vnationaldaycalendar.com
p1762
F0.0005802684968778012
tp1763
(Vushistory.org
p1764
F0.000472393245433172
tp1765
(Vmail.colton.k12.ca.us
p1766
F0.00046702853469422615
tp1767
(Vmyhatchets.haikulearning.com
p1768
F0.00035607368402211693
tp1769
tp1770
s((S'alpha33.com'
p1771
tp1772
(ttp1773
(ts((S'andismith.com'
p1774
tp1775
(ttp1776
(ts((S'alpha20.com'
p1777
tp1778
(ttp1779
(ts((S'alpha22.com'
p1780
tp1781
(ttp1782
(ts((S'jasonseifer.com'
p1783
tp1784
(ttp1785
((Vauto.pubtest.internal.33across.com
p1786
F0.01332036660478001
tp1787
(Vjuanpabloprado.com
p1788
F0.007676274719129683
tp1789
(Vpichost.me
p1790
F0.00024074733939569222
tp1791
(Vteamtreehouse.com
p1792
F0.00023630208318629474
tp1793
(Vmartinfowler.com
p1794
F8.655217132744378e-05
tp1795
(Vraindrop.io
p1796
F2.303324849420138e-05
tp1797
(Vdigitalocean.com
p1798
F5.704592440587661e-06
tp1799
(Vencrypted.google.com
p1800
F2.6578255453102915e-06
tp1801
(Vpivotaltracker.com
p1802
F8.601690807198737e-07
tp1803
(Vstackoverflow.com
p1804
F7.90829840897358e-07
tp1805
(Vb.hatena.ne.jp
p1806
F3.9690572298361973e-07
tp1807
(Vgithub.com
p1808
F8.47725944524667e-08
tp1809
tp1810
s((S'facebook.com'
p1811
tp1812
(ttp1813
(ts((S'optimalblue.com'
p1814
tp1815
(ttp1816
((Vcitrix.primelending.com
p1817
F0.01983806998658364
tp1818
(Vmyhome.ephmc.com
p1819
F0.016720531392230547
tp1820
(Vfidelitypassport.com
p1821
F0.01087249587963097
tp1822
(Vfwprodweb1.firstam.com
p1823
F0.008999345804891831
tp1824
(Vmbshighway.com
p1825
F0.006312007531425715
tp1826
(Vapp.mbslive.net
p1827
F0.006148799715304694
tp1828
(Vloanbright.com
p1829
F0.005486635184313487
tp1830
(Vcertmail.com
p1831
F0.004539485775908838
tp1832
(Vadmin.icanbuy.com
p1833
F0.004302288065316919
tp1834
(Vawh1-standard-v1.loankatalyst3.net
p1835
F0.004188018819862747
tp1836
(Vadvertiser.bankrate.com
p1837
F0.0039302373731837726
tp1838
(Vvalutrust.com
p1839
F0.003728968651207271
tp1840
(Vbayeq.sharepoint.com
p1841
F0.0033966070386933695
tp1842
(Vbestrateusa.com
p1843
F0.002661144791224875
tp1844
(Vmlive.benchmarklogin.com
p1845
F0.002634990218954017
tp1846
(Vadmin.mortgagedashboard.com
p1847
F0.002564102564102564
tp1848
(Vmandalaybay.com
p1849
F0.002411923893121066
tp1850
(Vlm.velocify.com
p1851
F0.0022535245289155587
tp1852
(Vsharepoint.alpinemc.com
p1853
F0.001958819698411903
tp1854
(Vgwrs.com
p1855
F0.001636530069401655
tp1856
tp1857
s((S'voormedia.com'
p1858
tp1859
(ttp1860
(ts((S'google.co.uk'
p1861
tp1862
(ttp1863
((Vbbc.co.uk
p1864
F0.015803661828799845
tp1865
(Vuk.search.yahoo.com
p1866
F0.015624271888821255
tp1867
(Vamazon.co.uk
p1868
F0.009254315963283003
tp1869
(Vebay.co.uk
p1870
F0.008528257560579584
tp1871
(Ven.wikipedia.org
p1872
F0.004255091317020974
tp1873
(Vreddit.com
p1874
F0.003980648583379911
tp1875
(Vdailymail.co.uk
p1876
F0.0038733698459187693
tp1877
(Vsearch.safefinder.com
p1878
F0.0028345322202820732
tp1879
(Vyoutube.com
p1880
F0.00276943281382409
tp1881
(Vtwitter.com
p1882
F0.002499320864991151
tp1883
(Vuk.msn.com
p1884
F0.0014519535531925948
tp1885
(Vaccounts.youtube.com
p1886
F0.0014106376960693401
tp1887
(Vtheguardian.com
p1888
F0.0012393448640209122
tp1889
(Vcr2.gogorithm.com
p1890
F0.001229652212371702
tp1891
tp1892
s((S'padolsey.com'
p1893
tp1894
(ttp1895
((Vpapagoarchery.com
p1896
F0.010473375849017473
tp1897
(Vvintagephotoboothnyc.com
p1898
F0.00996644957568581
tp1899
(Vwebmail.digitalgear.com
p1900
F0.007198731312699346
tp1901
(Vgod.richard.dev.xen.lan.expert-shops.com
p1902
F0.005221312448083541
tp1903
(Vfoaas.com
p1904
F0.005002293011606166
tp1905
(Vcnfeat.com
p1906
F0.00401750239583653
tp1907
(Vwifi.weixin.qq.com
p1908
F0.003792761744407321
tp1909
(Vfrontend.richard.dev.xen.lan.expert-shops.com
p1910
F0.0036325652028917203
tp1911
(Vjira.foryouandyourteam.com
p1912
F0.003233026610295946
tp1913
(Vicescrum.i-dalgo2.com
p1914
F0.003064895530648955
tp1915
(Vabgmanagementlimited.quickbase.com
p1916
F0.002340158796489762
tp1917
(Vsave-dep-mukku.blogspot.jp
p1918
F0.0023262142399424154
tp1919
(Vzero11.com.br
p1920
F0.0023032042085126734
tp1921
(Vwiki.s00.jp
p1922
F0.002212426322029087
tp1923
(Vozekisms.com
p1924
F0.0018377987713592483
tp1925
(Vzhangxinxu.com
p1926
F0.0016898954023123237
tp1927
(Vcvmlrobotics.blogspot.com
p1928
F0.0016786257882148291
tp1929
(Vredwoods.com
p1930
F0.0016160499719493919
tp1931
(Vrandomsnippets.com
p1932
F0.0013289677088390124
tp1933
(Vejohn.org
p1934
F0.0012231300524343327
tp1935
tp1936
s((S'reddit.com'
p1937
tp1938
(ttp1939
(ts((S'apidoc.com'
p1940
tp1941
(ttp1942
((Vapi.doc.com
p1943
F0.1111111111111111
tp1944
(Vapi.gehealthcare.com
p1945
F0.009782125389061804
tp1946
(Vapidock.com
p1947
F3.2379614904614277e-05
tp1948
tp1949
s((S'alpha39.com'
p1950
tp1951
(ttp1952
(ts((S'beta4.com'
p1953
tp1954
(ttp1955
(ts((S'technion.ac.il'
p1956
tp1957
(ttp1958
(ts((S'github.io'
p1959
tp1960
(ttp1961
((Vlukecarbis.github.io
p1962
F0.019639527656929768
tp1963
(Vbuke.github.io
p1964
F0.013217398454201612
tp1965
(Vbriangordon.github.io
p1966
F0.009287699283311393
tp1967
(Vgpeyre.github.io
p1968
F0.008611401092566274
tp1969
(V6889692.github.io
p1970
F0.008225091134009764
tp1971
(Vmattsharpe.github.io
p1972
F0.00815808798985246
tp1973
(Vkalakuh.github.io
p1974
F0.007584589614740369
tp1975
(Vstevejwikeley.github.io
p1976
F0.00743578488101414
tp1977
(Vgovlab.github.io
p1978
F0.005946039187036417
tp1979
(Vlopezrj.github.io
p1980
F0.005642699636979904
tp1981
(Vrweather.github.io
p1982
F0.005466472303206997
tp1983
(Vharrydeluxe.github.io
p1984
F0.005292730375055698
tp1985
(Vfavoorr.github.io
p1986
F0.004616774648508087
tp1987
(Vthink2011.github.io
p1988
F0.004302731567056891
tp1989
(Vlxc-webpanel.github.io
p1990
F0.00421468554494567
tp1991
(Viamtrask.github.io
p1992
F0.003928938799817474
tp1993
(Vgit.github.io
p1994
F0.0037792006892635455
tp1995
(Vjakiestfu.github.io
p1996
F0.0036454348083036284
tp1997
(Vigorescobar.github.io
p1998
F0.0036386593204775024
tp1999
(Vwxfengyun.github.io
p2000
F0.0036010132128431577
tp2001
tp2002
s((S'alpha.com'
p2003
tp2004
(ttp2005
((Vflashmusictracks.com
p2006
F0.03084234066343645
tp2007
(Vveexinc.com
p2008
F0.02566152206439976
tp2009
(Valphayouthfilmseries.com
p2010
F0.01272843204485028
tp2011
(Valphagame.com
p2012
F0.012381591705825314
tp2013
(Vbedsdirect-ardmore.com
p2014
F0.007470136665633929
tp2015
(Vkk-alpha.com
p2016
F0.007401414359343161
tp2017
(Valphagroup.com
p2018
F0.007136390264685519
tp2019
(Vwearealpha.ca
p2020
F0.005797101449275362
tp2021
(Valfa.com
p2022
F0.004664162782205082
tp2023
(Vteluguweb.in
p2024
F0.003982892274792836
tp2025
(Vnoram-eng.com
p2026
F0.00393360081818897
tp2027
(Veshre.eu
p2028
F0.0037174721189591076
tp2029
(Vnewsumontheweb.org
p2030
F0.0036302495318888766
tp2031
(Vcheck-alpha.com
p2032
F0.0031749589122964292
tp2033
(Valfa-chemistry.com
p2034
F0.002835487213043241
tp2035
(Vsolarpowerrocks.com
p2036
F0.002806772470347807
tp2037
(Vkerryexpress.com
p2038
F0.0027217594622241706
tp2039
(Vlkp.com
p2040
F0.002395657870110425
tp2041
(Vcroline.com
p2042
F0.0017521257407884566
tp2043
(Vaksci.com
p2044
F0.0016539834760689266
tp2045
tp2046
s((S'scirra.com'
p2047
tp2048
(ttp2049
((Vc2community.ru
p2050
F0.007406235634299808
tp2051
(Vforums.tigsource.com
p2052
F0.006516674763500749
tp2053
(Vschwer-muta.blogspot.com
p2054
F0.0023252657005772242
tp2055
(Vwayofthepixel.net
p2056
F0.001771588111111012
tp2057
(Vblog.rubukkit.org
p2058
F0.001722506455389649
tp2059
(Vgamedev.ru
p2060
F0.00155671710308373
tp2061
(Velm-lang.org
p2062
F0.001454633678371806
tp2063
(Vkaamelott.co
p2064
F0.0014379499425883405
tp2065
(Vapp.mopub.com
p2066
F0.0013974901440273661
tp2067
(Vgame.9128.com
p2068
F0.001325856745272391
tp2069
(Vbases-hacking.org
p2070
F0.0012120643217503788
tp2071
(Va710594.byethost24.com
p2072
F0.0011639507815098104
tp2073
(Vyoyogames.com
p2074
F0.0010952749740584789
tp2075
(Vforums.wasabistudio.ca
p2076
F0.0010359152424912791
tp2077
(Velbitcoin.org
p2078
F0.0010213289204327799
tp2079
(Vstencyl.com
p2080
F0.0009509958272804534
tp2081
(Vfilmin.es
p2082
F0.000825167958358985
tp2083
(Vwowgame.jp
p2084
F0.0007702468672979726
tp2085
(Vcollaboration.swisscom.com
p2086
F0.0007476651600406859
tp2087
(Vfpl78.free.fr
p2088
F0.000719450980093071
tp2089
tp2090
s((S'chromium.org'
p2091
tp2092
(ttp2093
((Vdeveloper.chrome.com
p2094
F0.022100752027343448
tp2095
(Vjohnlewis.ie
p2096
F0.008052545533720222
tp2097
(Vimperialviolet.org
p2098
F0.004177426369874129
tp2099
(Vdownload-chromium.appspot.com
p2100
F0.004009500944262519
tp2101
(Vscotthelme.co.uk
p2102
F0.003532999099854658
tp2103
(Vcode.google.com
p2104
F0.002697460919000486
tp2105
(Vchromium.googlesource.com
p2106
F0.0020873460363834335
tp2107
(Vproductforums.google.com
p2108
F0.001335644399033382
tp2109
(Vwiki.archlinux.org
p2110
F0.0012934590063155952
tp2111
(Vkb.sitecore.net
p2112
F0.001156154586531049
tp2113
(Vblogmicrosoftbrasil.com.br
p2114
F0.0010548510155260927
tp2115
(Vexample.com
p2116
F0.0003803379258623619
tp2117
(Vdownloads.yahoo.com
p2118
F0.00034267692060830046
tp2119
(Vjava.com
p2120
F0.00031751464182818584
tp2121
(Vminutoms.com.br
p2122
F0.00029505951595761227
tp2123
(Vmattcutts.com
p2124
F0.0002391419420138638
tp2125
(Vgigaom.com
p2126
F0.00023660680057301445
tp2127
(Vcorom.vn
p2128
F0.00023047213023705282
tp2129
(Vvpnhelp.homeawaycorp.com
p2130
F0.0002284515048063452
tp2131
tp2132
s((S'alpha28.com'
p2133
tp2134
(ttp2135
(ts((S'gmail.com'
p2136
tp2137
(ttp2138
((Vgoogle.co.in
p2139
F0.002160747949931791
tp2140
(Vreddit.com
p2141
F0.0019094229668676123
tp2142
(Vnetflix.com
p2143
F0.0015143636335367562
tp2144
(Vamazon.com
p2145
F0.001114998532370577
tp2146
(Vdropbox.com
p2147
F0.0008313813311958971
tp2148
(Ven.wikipedia.org
p2149
F0.0008247348851858367
tp2150
(Vpandora.com
p2151
F0.0008159585716037036
tp2152
(Vaccount.live.com
p2153
F0.0007445104894934813
tp2154
(Vfacebook.com
p2155
F0.0007035519930853775
tp2156
(Vstartpagina.nl
p2157
F0.0004478025187472418
tp2158
(Vlinkedin.com
p2159
F0.00038762191829156073
tp2160
(Vsoundcloud.com
p2161
F0.00035534929141919615
tp2162
(Vstackoverflow.com
p2163
F0.000352430535378393
tp2164
(Vtrovi.com
p2165
F0.0003270559567248911
tp2166
(Vbing.com
p2167
F0.0003186797288942869
tp2168
(Vsearch.safefinder.com
p2169
F0.0003181670220008833
tp2170
(Vhome.tb.ask.com
p2171
F0.000309598054277362
tp2172
tp2173
s((S'oranlooney.com'
p2174
tp2175
(ttp2176
((Vnpmjs.org
p2177
F9.37878187396508e-06
tp2178
(Vsearch.disconnect.me
p2179
F2.222519934059104e-06
tp2180
(Vgithub.com
p2181
F1.2404606312831473e-07
tp2182
(Vgoogle.com.ua
p2183
F1.1512227389007056e-07
tp2184
(Vbing.com
p2185
F4.6492935284599696e-08
tp2186
tp2187
s((S'testy.com'
p2188
tp2189
(ttp2190
((Vgoogle.com
p2191
F5.7582840045330454e-09
tp2192
(Vfacebook.com
p2193
F4.906167885604807e-10
tp2194
tp2195
s((S'ebay.com'
p2196
tp2197
(ttp2198
((Vamazon.com
p2199
F0.010715418955713561
tp2200
(Vpaypal.com
p2201
F0.004491756406860376
tp2202
(Vetsy.com
p2203
F0.003662715716951191
tp2204
(Vslickdeals.net
p2205
F0.003069012319460808
tp2206
(Valiexpress.com
p2207
F0.0028328755606823754
tp2208
(Vus-mg6.mail.yahoo.com
p2209
F0.0019084091674699396
tp2210
(Vwalmart.com
p2211
F0.0017906265490819154
tp2212
(Ve.mail.ru
p2213
F0.0016764064461063679
tp2214
(Vgoogle.com
p2215
F0.0010756325212520402
tp2216
(Vautobia.com
p2217
F0.0008751469412171619
tp2218
(Vbestbuy.com
p2219
F0.0006417003644546833
tp2220
(Vnewegg.com
p2221
F0.0005644308027097123
tp2222
(Vmail.aol.com
p2223
F0.0004919381996496611
tp2224
tp2225
s((S'sixrevisions.com'
p2226
tp2227
(ttp2228
((Vforum.hangarnet.com.br
p2229
F0.004522612841241663
tp2230
(Viconpaper.org
p2231
F0.004388601429190374
tp2232
(Vpanosfx.com
p2233
F0.003981522100667729
tp2234
(Vliptonicetea.com
p2235
F0.0039197345769073555
tp2236
(Vtiny.cc
p2237
F0.003371601640395747
tp2238
(Vbohemian.curated.co
p2239
F0.003326202922179347
tp2240
(Vnoupe.com
p2241
F0.002781459432749324
tp2242
(Vvle-project.org
p2243
F0.002767415707556039
tp2244
(Vsixrevision.com
p2245
F0.0022085172602788606
tp2246
(Vbusiness.tutsplus.com
p2247
F0.0017757417437201713
tp2248
(Vforum.weavertheme.com
p2249
F0.0015203455783372938
tp2250
(Vtvgratishd.blogspot.com
p2251
F0.0015013110572595332
tp2252
(Vinflexwetrust.com
p2253
F0.0012838767727523452
tp2254
(Vsixminutes.dlugan.com
p2255
F0.001239579333077317
tp2256
(Vtricias-captions.tumblr.com
p2257
F0.0012110202845897668
tp2258
(Vsiteexplorer.info
p2259
F0.0010857132729947228
tp2260
(Vcommonplaces.com
p2261
F0.0010758741477450429
tp2262
(Vmongodbspain.com
p2263
F0.0010698474333738655
tp2264
(Vlanzateya.com
p2265
F0.0010386067653343092
tp2266
(Vfleischlust.com
p2267
F0.0009746657118920917
tp2268
tp2269
s((S'spotad.co'
p2270
tp2271
(ttp2272
((Vinnolance.com
p2273
F0.002733964248159832
tp2274
(Vnewincite.com
p2275
F0.0021574973031283713
tp2276
(Vui.servesharp.net
p2277
F0.0003960637357950218
tp2278
(Vjira.millennialmedia.com
p2279
F0.00036140992389132194
tp2280
(Vmovinstream.com
p2281
F4.124136508918446e-05
tp2282
(Vhwzone.co.il
p2283
F1.7154933461951347e-05
tp2284
(Vsubtitle.co.il
p2285
F7.854194729049916e-06
tp2286
(Vlinkedin.com
p2287
F1.6123254398713075e-07
tp2288
(Vvimeo.com
p2289
F9.877902401742443e-08
tp2290
(Vgoogle.co.uk
p2291
F9.113462281788802e-08
tp2292
(Vfacebook.com
p2293
F7.059035289641063e-09
tp2294
tp2295
s((S'beta11.com'
p2296
tp2297
(ttp2298
(ts((S'alpha44.com'
p2299
tp2300
(ttp2301
(ts((S'alpha50.com'
p2302
tp2303
(ttp2304
(ts((S'batsov.com'
p2305
tp2306
(ttp2307
((Vblog.rust-lang.org
p2308
F0.0025602059117481963
tp2309
(Vskanev.com
p2310
F0.0022080608194980154
tp2311
(Vbarisyuksel.com
p2312
F0.0017846249100858622
tp2313
(Vclever-cloud.com
p2314
F0.0017729664335737266
tp2315
(Vbotnets.fr
p2316
F0.0017378253485524707
tp2317
(Vemacs.sexy
p2318
F0.0017151187719749593
tp2319
(Vohtatblog.wordpress.com
p2320
F0.0014208184846155637
tp2321
(Vthatthinginswift.com
p2322
F0.0005549820740790072
tp2323
(Vemacswiki.org
p2324
F0.000361288776960209
tp2325
(Vgamasutra.com
p2326
F7.182796042938065e-05
tp2327
(Vcreditkarma.com
p2328
F4.846935431658113e-05
tp2329
(Vde.reddit.com
p2330
F2.1918490506820317e-05
tp2331
(Vgithub.com
p2332
F9.564137939050661e-06
tp2333
(Vpluralsight.com
p2334
F7.698149584786948e-06
tp2335
(Vencrypted.google.com
p2336
F3.904554290440822e-06
tp2337
(Vstackoverflow.com
p2338
F2.7530196598198716e-06
tp2339
(Vsearch.disconnect.me
p2340
F1.452201017759609e-06
tp2341
(Vstartpage.com
p2342
F4.5705844497747614e-07
tp2343
(Vgoogle.com.br
p2344
F2.7313056986275865e-08
tp2345
tp2346
s((S'apidock.com'
p2347
tp2348
(ttp2349
((Vapi.rubyonrails.org
p2350
F0.004283722809508841
tp2351
(Vlogentries.com
p2352
F0.0031281175847644965
tp2353
(Vguides.rubyonrails.org
p2354
F0.0014298972896033487
tp2355
(Vbsonspec.org
p2356
F0.0013823136499941477
tp2357
(Vadtaily.hackpad.com
p2358
F0.0013067944421232297
tp2359
(Vadmin.revieworld.com
p2360
F0.0012428262182843334
tp2361
(Vsportngin.atlassian.net
p2362
F0.000914667802116352
tp2363
(Vrailsdoc.com
p2364
F0.0008941412847720574
tp2365
(Vgsubbarao.com
p2366
F0.0008810756888817209
tp2367
(Vruby-doc.org
p2368
F0.000875561057367794
tp2369
(Vgotealeaf.campfirenow.com
p2370
F0.0008217247009736729
tp2371
(Vruby-forum.com
p2372
F0.0007341966194683126
tp2373
(Vrequiremind.com
p2374
F0.0006038566509753178
tp2375
(V3edge.in
p2376
F0.0006037040162545684
tp2377
(Vcapterrapaulo.aws.af.cm
p2378
F0.0005021993641797336
tp2379
(Vstrftimer.com
p2380
F0.0005021070563973819
tp2381
(Vclojuredocs.org
p2382
F0.0004751783760686909
tp2383
(Vwebmail.abril.com.br
p2384
F0.00046069404857109657
tp2385
(Vnvcad.nvidia.com
p2386
F0.0004513071790077689
tp2387
(Vruby.about.com
p2388
F0.0004484059714551321
tp2389
tp2390
s((S'techonthenet.com'
p2391
tp2392
(ttp2393
(ts((S'dorkly.com'
p2394
tp2395
(ttp2396
((Vcollegehumor.com
p2397
F0.00532996727307274
tp2398
(Vdidyouknowgaming.com
p2399
F0.0021633027780272383
tp2400
(Vnetlore.ru
p2401
F0.0013772662965528448
tp2402
(Vawkwardzombie.com
p2403
F0.0011546861484157086
tp2404
(Vbrawlinthefamily.keenspot.com
p2405
F0.001025083503038372
tp2406
(Vexplosm.net
p2407
F0.0009121791532666129
tp2408
(Vdorktower.com
p2409
F0.0007780467559879749
tp2410
(Vbunicomic.com
p2411
F0.0007688771325575398
tp2412
(Vpenny-arcade.com
p2413
F0.000697397505029458
tp2414
(Vforums.tigsource.com
p2415
F0.0006230253345583321
tp2416
(Vsyacartoonist.com
p2417
F0.0005622097830873088
tp2418
(Vdangerouslychloe.com
p2419
F0.0004875689986759523
tp2420
(Vblessings.thecomicseries.com
p2421
F0.0004383328772759553
tp2422
(Vtrenchescomic.com
p2423
F0.00042936677189025536
tp2424
(Vsurvivingtheworld.net
p2425
F0.00038241257511459256
tp2426
(Vdraconicsonic.deviantart.com
p2427
F0.0002444842155108139
tp2428
tp2429
s((S'somethingpositive.com'
p2430
tp2431
(ttp2432
((Vsomethingpostive.net
p2433
F0.05551369002763124
tp2434
(Vjezebel.com
p2435
F4.424084024843979e-06
tp2436
(Vsmbc-comics.com
p2437
F3.576337317918497e-06
tp2438
(Vamazon.co.uk
p2439
F2.8458752349683427e-07
tp2440
(Vtwitter.com
p2441
F1.9658182515494668e-08
tp2442
(Vreddit.com
p2443
F1.4299505429861048e-08
tp2444
tp2445
s((S'banrate.com'
p2446
tp2447
(ttp2448
((Vadvertiser.bankrate.com
p2449
F0.010417933438728768
tp2450
(Vmycfe.com
p2451
F0.003697223187641567
tp2452
(Vlowermybills.com
p2453
F0.000577498241663914
tp2454
(Vsalliemae.com
p2455
F4.9130725485894754e-05
tp2456
(Vdictionary.goo.ne.jp
p2457
F3.7425394069492426e-05
tp2458
(Vally.com
p2459
F1.4405003035318033e-05
tp2460
(Vpost.craigslist.org
p2461
F1.8668535426783176e-06
tp2462
(Vwellsfargo.com
p2463
F1.5658914407910743e-06
tp2464
(Vfinance.yahoo.com
p2465
F8.480322713302284e-07
tp2466
(Vebay.com
p2467
F1.287045916505256e-07
tp2468
tp2469
s((S'infosecisland.com'
p2470
tp2471
(ttp2472
(ts((S'widdershinscomic.com'
p2473
tp2474
(ttp2475
((Vletsaskviolet.com
p2476
F0.023339778372803054
tp2477
(Vthe-whiteboard.com
p2478
F0.02297513496899636
tp2479
(Vineffableaether.com
p2480
F0.018733703512249688
tp2481
(Vpuckcomics.com
p2482
F0.010880843347775311
tp2483
(Valiendice.com
p2484
F0.0095586849274735
tp2485
(Vcasualvillain.com
p2486
F0.007030130604618646
tp2487
(Vmarryme.keenspot.com
p2488
F0.00618793397842423
tp2489
(Vprecociouscomic.com
p2490
F0.006100743140697935
tp2491
(Vrice-boy.com
p2492
F0.004656766063375279
tp2493
(Vthearchipelago.smackjeeves.com
p2494
F0.002923735751237376
tp2495
(Vsmbhax.com
p2496
F0.0025248584102409368
tp2497
(Vbetweenfailures.com
p2498
F0.0018146924062114364
tp2499
(Vwncomic.com
p2500
F0.0017688444965095805
tp2501
(Vthegamercat.com
p2502
F0.0015217058359325555
tp2503
(Vweregeek.com
p2504
F0.0014803237802496064
tp2505
(Vnerf-this.com
p2506
F0.0013742114952235965
tp2507
tp2508
s((S'alpha15.com'
p2509
tp2510
(ttp2511
((Vmail.midco.net
p2512
F9.645216776247045e-05
tp2513
(Vinvest.ameritrade.com
p2514
F2.2621790287289574e-05
tp2515
(Vnews.newsmax.com
p2516
F9.012522674943768e-06
tp2517
(Vgoogle.com
p2518
F2.344631383637394e-09
tp2519
tp2520
s((S'dock.com'
p2521
tp2522
(ttp2523
((Vdocks.qc.ca
p2524
F0.06434729912128474
tp2525
(Vdockandslip.com
p2526
F0.06212746446584136
tp2527
(Vtessera.com
p2528
F0.005609478693919016
tp2529
(Vedu.americanvhs.com
p2530
F0.0009426078168425553
tp2531
(Vv3.mercusuar.info
p2532
F5.262204832870827e-06
tp2533
(Vsafecart.com
p2534
F1.0612495775718263e-06
tp2535
tp2536
s((S'fabiensanglard.net'
p2537
tp2538
(ttp2539
((Vnom.com
p2540
F0.016733385481372414
tp2541
(Vmeet.emulex.com
p2542
F0.009327642729015897
tp2543
(Vemulex.my.salesforce.com
p2544
F0.009142718564326422
tp2545
(Vasicweb.emulex.com
p2546
F0.007491289198606272
tp2547
(Vopenhighschoolcourses.org
p2548
F0.006642895061989392
tp2549
(Vneilblevins.com
p2550
F0.004470560344097675
tp2551
(Vlinor.fr
p2552
F0.0038202984095753404
tp2553
(Vhmsconfluence.activision.com
p2554
F0.003148796306750467
tp2555
(Vdevinsmith.net
p2556
F0.002372270790317621
tp2557
(Vhobbygamedev.com
p2558
F0.0022267112008906844
tp2559
(Vthink-like-a-git.net
p2560
F0.002052212874160923
tp2561
(Vgamedev.stackexchange.com
p2562
F0.0019690283982804094
tp2563
(Vgp32spain.com
p2564
F0.0015787369595053969
tp2565
(Vsda.se
p2566
F0.0014976407646989833
tp2567
(Vbenefitsmedical.com
p2568
F0.0014063662602922299
tp2569
(Vengineering.zenpayroll.com
p2570
F0.0013555184723144803
tp2571
(Vblog.yourkarma.com
p2572
F0.0011144507108844686
tp2573
(Vshoutem.slack.com
p2574
F0.0007275420982314113
tp2575
(Vwiki.mcselec.com
p2576
F0.0004583651642475172
tp2577
(Vopengl.org
p2578
F0.000321510536147959
tp2579
tp2580
s((S'92.195'
p2581
tp2582
(ttp2583
(ts((S'alpha30.com'
p2584
tp2585
(ttp2586
(ts((S'.hdokiejnpimakedhajhdlcegeplioahd'
p2587
tp2588
(ttp2589
(ts((S'guru99.com'
p2590
tp2591
(ttp2592
((Vtoolsqa.com
p2593
F0.005719466566131465
tp2594
(Vabap101.com
p2595
F0.003011493349875067
tp2596
(Vregistria.app.box.com
p2597
F0.0026405273456051367
tp2598
(Vhanelsoft.vn
p2599
F0.002062561850334693
tp2600
(Vassertselenium.com
p2601
F0.00195169518565124
tp2602
(Vseleniummadeeasy.blogspot.co.uk
p2603
F0.0017882739008798492
tp2604
(Vsaptraininghub.com
p2605
F0.0017882409332036706
tp2606
(Vqtpfaq.wordpress.com
p2607
F0.0017873677324844871
tp2608
(Vcodeodor.com
p2609
F0.0016453585640558656
tp2610
(Vmanage.hivelocity.net
p2611
F0.001623640201331385
tp2612
(Vsoftwaretestinggenius.com
p2613
F0.001583393157862956
tp2614
(Vcommunity.stresstimulus.com
p2615
F0.001557093159406643
tp2616
(Vtennisworlditalia.com
p2617
F0.0012915493611922993
tp2618
(Vroqit.sharepoint.com
p2619
F0.0010722141775454032
tp2620
(Vsyrinx.catsone.com
p2621
F0.0009775579010200494
tp2622
(Vculverlabs.co
p2623
F0.0009439906846807562
tp2624
(Vwebmail.trigma.co.in
p2625
F0.0008988027832973669
tp2626
(Vnewtours.demoaut.com
p2627
F0.0008537480868080438
tp2628
(Vajmadison.com
p2629
F0.0008427717137978187
tp2630
(Vin.playstation.com
p2631
F0.0008242438736899647
tp2632
tp2633
s((S'johnlewis.ie'
p2634
tp2635
(ttp2636
((Vcoreboot.org
p2637
F0.02854268245491835
tp2638
(Vdistroshare.com
p2639
F0.016549572788962446
tp2640
(Vwebmail.w14a.comcast.net
p2641
F0.013918136600019624
tp2642
(Vdeconetworks.com
p2643
F0.007967123011370798
tp2644
(Vjeanlouisnguyen.blogspot.ca
p2645
F0.005415745410279979
tp2646
(Vpilaresdelcodigo.wordpress.com
p2647
F0.004368068633605357
tp2648
(Vae.sjsu.edu
p2649
F0.00432630123544891
tp2650
(Vsenk9.wordpress.com
p2651
F0.0035087719298245615
tp2652
(Vreadditing.herokuapp.com
p2653
F0.0031414092774758665
tp2654
(Vanderswallin.net
p2655
F0.0027987907111832813
tp2656
(Vgeorgakopoulos.org
p2657
F0.001107007252449383
tp2658
(Vzupimages.net
p2659
F0.0010530772654731792
tp2660
(Vjoomla.quantumcs.com
p2661
F0.0007784613047770943
tp2662
(Vchromium.org
p2663
F0.0007239176971487771
tp2664
(Vciteworld.com
p2665
F0.000622003528792297
tp2666
(Vtechreport.com
p2667
F0.0003636459011841565
tp2668
(Vfunhousegames.co
p2669
F0.00029423524559166105
tp2670
(Vbuddypress.org
p2671
F0.00017586529805995192
tp2672
(Vwiki.archlinux.org
p2673
F0.00013728228690694814
tp2674
(Vtvxs.gr
p2675
F9.757876076671679e-05
tp2676
tp2677
s((S'coreboot.org'
p2678
tp2679
(ttp2680
((Vhappyassassin.net
p2681
F0.059476348436577016
tp2682
(Vgit.buildroot.net
p2683
F0.02452952891923749
tp2684
(Vflashrom.org
p2685
F0.017701817587736517
tp2686
(Vbrmlab.cz
p2687
F0.013296603505499648
tp2688
(Vtiny.wiki.kernel.org
p2689
F0.012337571525115207
tp2690
(V86duino.com
p2691
F0.010515115478500344
tp2692
(Veskolar.com
p2693
F0.009344584495521896
tp2694
(Vjohnlewis.ie
p2695
F0.006332038626695642
tp2696
(Vseabios.org
p2697
F0.00443494523109805
tp2698
(Vsavebydiy.com
p2699
F0.0036583215796897038
tp2700
(Vlists.denx.de
p2701
F0.0029219143576826195
tp2702
(Vdonate.ccf.org.tw
p2703
F0.0027590143659023876
tp2704
(Vmetacloud.jira.com
p2705
F0.002028728663370954
tp2706
(Vembeddedlinux.org.cn
p2707
F0.0018237464363575382
tp2708
(Vfsf.org
p2709
F0.0017019026720611005
tp2710
(Vdev.milaap.org
p2711
F0.0011945877468052004
tp2712
(Vwiki.archlinux.org
p2713
F0.0007416826313193679
tp2714
(Vhitech.vesti.ru
p2715
F0.00033012905439744935
tp2716
(Vmark.intel.com
p2717
F0.00029483913576752523
tp2718
(Vlinux.softpedia.com
p2719
F2.1233992224112045e-05
tp2720
tp2721
s((S'alpha42.com'
p2722
tp2723
(ttp2724
(ts((S'walla.co.il'
p2725
tp2726
(ttp2727
((Vynet.co.il
p2728
F0.020681855597970564
tp2729
(Vsport5.co.il
p2730
F0.01671716174222901
tp2731
(Vone.co.il
p2732
F0.0158659102755873
tp2733
(Vmako.co.il
p2734
F0.01332301405197086
tp2735
(Vnrg.co.il
p2736
F0.008862240216676337
tp2737
(Vgoogle.co.il
p2738
F0.007271907105170784
tp2739
(Vhaaretz.co.il
p2740
F0.005973013842627749
tp2741
(Vrotter.net
p2742
F0.005844035385500475
tp2743
(Vnana10.co.il
p2744
F0.005317331090295053
tp2745
(Vglobes.co.il
p2746
F0.004428857379564541
tp2747
tp2748
s((S'railscasts.com'
p2749
tp2750
(ttp2751
(ts((S'beta0.com'
p2752
tp2753
(ttp2754
(ts((S'beta6.com'
p2755
tp2756
(ttp2757
(ts((S'alpha8.com'
p2758
tp2759
(ttp2760
(ts((S'alpha5.com'
p2761
tp2762
(ttp2763
((Valliedhealthworld.com
p2764
F0.019944027102666077
tp2765
(Vkempsvilleruritanclub.org
p2766
F0.002170740268617562
tp2767
(Vmsgboard.alphasoftware.com
p2768
F0.001026299469818061
tp2769
(Vwhois.com
p2770
F1.4852977486330757e-05
tp2771
tp2772
s((S'alpha47.com'
p2773
tp2774
(ttp2775
(ts((S'usenet.org'
p2776
tp2777
(ttp2778
(ts((S'beta2.com'
p2779
tp2780
(ttp2781
((Vlogopond.com
p2782
F8.342355902882032e-05
tp2783
tp2784
s((S'imgur.com'
p2785
tp2786
(ttp2787
((Veksisozluk.com
p2788
F0.007959158123693156
tp2789
(Vsteamcommunity.com
p2790
F0.005482409223054582
tp2791
(Vl.moapi.net
p2792
F0.0042747932543380305
tp2793
(Vptt.cc
p2794
F0.004205827649589891
tp2795
(Vreddit.com
p2796
F0.002423451953582919
tp2797
(Vus.battle.net
p2798
F0.0023017082856949867
tp2799
(Vprntscr.com
p2800
F0.002184980056042118
tp2801
(Viamchucky.github.io
p2802
F0.002029496111172061
tp2803
(Vplurk.com
p2804
F0.0012164439471213228
tp2805
(Vgamefaqs.com
p2806
F0.0011121531273015387
tp2807
(Vflashback.org
p2808
F0.0010824160224589597
tp2809
(Vtwitch.tv
p2810
F0.0008429300641815612
tp2811
(Vboards.4chan.org
p2812
F0.0008128220671250406
tp2813
tp2814
s((S'google.co.il'
p2815
tp2816
(ttp2817
((Vynet.co.il
p2818
F0.02090290556127998
tp2819
(Vwalla.co.il
p2820
F0.010178080865357519
tp2821
(Vmako.co.il
p2822
F0.009531641570181064
tp2823
(Vhe.wikipedia.org
p2824
F0.005168147982441724
tp2825
(Vone.co.il
p2826
F0.004797051193030695
tp2827
(Vsport5.co.il
p2828
F0.004629557192589989
tp2829
(Vpanet.co.il
p2830
F0.004466318634153449
tp2831
(Vyad2.co.il
p2832
F0.004239283102327047
tp2833
(Vfxp.co.il
p2834
F0.004224135214989242
tp2835
(Vil.msn.com
p2836
F0.0025525166492135123
tp2837
(Vjewishjournal.com
p2838
F0.0016738899904644618
tp2839
(Vhaaretz.co.il
p2840
F0.0011658029360413589
tp2841
tp2842
s((S'foobar2000.com'
p2843
tp2844
(ttp2845
((Vmorbo.org
p2846
F0.031915159700857905
tp2847
(Vjdk8.java.net
p2848
F0.0036444231186665292
tp2849
(Vforum.powerampapp.com
p2850
F0.0026170710255915223
tp2851
(Vdbpoweramp.com
p2852
F0.0008974646623289207
tp2853
(Vjriver.com
p2854
F0.00033570030497519226
tp2855
(Vpodsvojostreho.net
p2856
F0.00014945816684828672
tp2857
(Vteksyndicate.com
p2858
F1.1823333348362995e-05
tp2859
(Vtrojmiasto.pl
p2860
F5.731231896333478e-06
tp2861
(Vricardo.ch
p2862
F3.7479474663832534e-06
tp2863
(Vus-mg204.mail.yahoo.com
p2864
F1.5779104558357893e-06
tp2865
(Vboards.4chan.org
p2866
F1.1310967365085483e-06
tp2867
(Vnetvibes.com
p2868
F1.0671421974257503e-06
tp2869
(Vtheguardian.com
p2870
F7.685661734505484e-07
tp2871
(Varstechnica.com
p2872
F6.992041308980053e-07
tp2873
(Vsearch.yahoo.co.jp
p2874
F6.754668573135203e-07
tp2875
(Ven.eazel.com
p2876
F5.318138091329666e-07
tp2877
(Vandroidpolice.com
p2878
F3.6786215539942405e-07
tp2879
(Vkickstarter.com
p2880
F2.241460998950497e-07
tp2881
(Vgoogle.com.tw
p2882
F1.301859356429909e-07
tp2883
(Vgoogle.lv
p2884
F1.037835278431857e-07
tp2885
tp2886
s((S'alpha14.com'
p2887
tp2888
(ttp2889
((Vdofusbook.net
p2890
F0.0006337329293461555
tp2891
tp2892
s((S'happyassassin.net'
p2893
tp2894
(ttp2895
((Vmndm.gov.on.ca
p2896
F0.04298894933263563
tp2897
(Veriberto.pro.br
p2898
F0.01202062754212667
tp2899
(Vblog.hansenpartnership.com
p2900
F0.011842526405633201
tp2901
(Vcalm.aber.ac.uk
p2902
F0.011433569710412046
tp2903
(Vbugs.freedesktop.org
p2904
F0.0009542923479526986
tp2905
(Vsandboxie.com
p2906
F0.0007907844422448724
tp2907
(Vmanyland.com
p2908
F0.0007040551653256227
tp2909
(Vmarc.info
p2910
F0.0005867879121690093
tp2911
(Vforums.opensuse.org
p2912
F0.0005194968302130223
tp2913
(Veeti.com.tw
p2914
F0.0005194955121359924
tp2915
(Vimaginecup.com
p2916
F0.0003215762268482594
tp2917
(V4sysops.com
p2918
F0.00014510480483848856
tp2919
(Vanimeultima.tv
p2920
F0.0001281134603127242
tp2921
(Vthomas-krenn.com
p2922
F7.921381869224323e-05
tp2923
(Vjustinguitar.com
p2924
F6.288087035151911e-05
tp2925
(Vcomputer.howstuffworks.com
p2926
F2.4267097954854636e-05
tp2927
(Vcompileonline.com
p2928
F2.3703323624266067e-05
tp2929
(Vsevenforums.com
p2930
F2.367194472127469e-06
tp2931
(Vtechnet.microsoft.com
p2932
F2.1155661906668695e-06
tp2933
(Vaccounts.google.com
p2934
F1.3084216140549257e-07
tp2935
tp2936
s((S'chrome.com'
p2937
tp2938
(ttp2939
(ts((S'alpha3.com'
p2940
tp2941
(ttp2942
((Vanimeq.com.br
p2943
F2.1789299758136615e-06
tp2944
tp2945
s((S'speakerdeck.com'
p2946
tp2947
(ttp2948
((Vdemo.coffee-themes.com
p2949
F0.0039671592074744305
tp2950
(Vspeakerd.s3.amazonaws.com
p2951
F0.0031840326414409345
tp2952
(Vstartupsmart.com.au
p2953
F0.0024248497613811744
tp2954
(Vmaddisondesigns.com
p2955
F0.0023298317533521225
tp2956
(Vthemes-lab.com
p2957
F0.0022676382593878877
tp2958
(Vfontstruct.com
p2959
F0.0022317005850366494
tp2960
(Vreadability.com
p2961
F0.002135284711928032
tp2962
(Vadmin.smartphone.userlocal.jp
p2963
F0.002003364625203868
tp2964
(Vbagtheweb.com
p2965
F0.001999111954713731
tp2966
(Vclickwork7network.com
p2967
F0.0017965561747034368
tp2968
(Vinteractly.com
p2969
F0.0017284060116690148
tp2970
(Vtest.proxistore.com
p2971
F0.001579048509965591
tp2972
(Vrajhimself.com
p2973
F0.0013000119296729658
tp2974
(Vcodecondo.com
p2975
F0.001220573693455316
tp2976
(Vcss-happylife.com
p2977
F0.0011575611844464764
tp2978
(Vaneventapart.com
p2979
F0.0011068669516008853
tp2980
(Vmaketea.co.uk
p2981
F0.0009992090820833237
tp2982
(V960.gs
p2983
F0.0009955768862741556
tp2984
(Vgrapplemobile.atlassian.net
p2985
F0.000977010403519926
tp2986
(Vadmin.taggedpdf.com.au
p2987
F0.0008888000838847269
tp2988
tp2989
s((S'goldsteintech.com'
p2990
tp2991
(ttp2992
(ts((S'alpha4.com'
p2993
tp2994
(ttp2995
((Vgoogle.com.au
p2996
F8.213878316722479e-08
tp2997
tp2998
s((S'beta10.com'
p2999
tp3000
(ttp3001
(ts((S'stackoverflow.com'
p3002
tp3003
(ttp3004
(ts((S'cracked.com'
p3005
tp3006
(ttp3007
((Vlistverse.com
p3008
F0.002726385758898505
tp3009
(Vcollegehumor.com
p3010
F0.002107328674389131
tp3011
(Varchive.today
p3012
F0.0016765785990839604
tp3013
(Vescapistmagazine.com
p3014
F0.0016443018805989268
tp3015
(Vdorkly.com
p3016
F0.0015727526783965238
tp3017
(Vsmbc-comics.com
p3018
F0.0014025142688979721
tp3019
(Vtheonion.com
p3020
F0.0012152073952430848
tp3021
(Voddee.com
p3022
F0.0008038470483622185
tp3023
(Vavclub.com
p3024
F0.0007375924550347175
tp3025
(Vexplosm.net
p3026
F0.0007325112118358349
tp3027
(Vthechive.com
p3028
F0.0006896736374762467
tp3029
(Vmentalfloss.com
p3030
F0.0004837719810559199
tp3031
(Vbuzzfeed.com
p3032
F0.00045508882873294493
tp3033
tp3034
s((S'beta8.com'
p3035
tp3036
(ttp3037
(ts((S'blogspot.co.uk'
p3038
tp3039
(ttp3040
((Vsoccersportthai.blogspot.co.uk
p3041
F0.0707374040707374
tp3042
(Vproofreadmyfile.blogspot.com
p3043
F0.030689329556185082
tp3044
(Vibrahimyamanabdullahi.blogspot.co.uk
p3045
F0.017033585087578337
tp3046
(Vsapbasissociety.blogspot.co.uk
p3047
F0.015119098559406645
tp3048
(Vpersianbooks2.blogspot.co.uk
p3049
F0.01447080599024062
tp3050
(Vblogsofnote.blogspot.co.uk
p3051
F0.014427657547298217
tp3052
(Vkizomba-zouk.blogspot.co.uk
p3053
F0.012347802817439838
tp3054
(Vbmackie.blogspot.co.uk
p3055
F0.01162535643781531
tp3056
(Vsherrysbeautyandfashion.blogspot.co.uk
p3057
F0.011378935939196526
tp3058
(Vmwholt.blogspot.co.uk
p3059
F0.011096992799661162
tp3060
(Vhongleili.blogspot.co.uk
p3061
F0.010588425476883283
tp3062
(Vportableappz.blogspot.co.uk
p3063
F0.008682119747727087
tp3064
(Vjandjalpacas.blogspot.co.uk
p3065
F0.006606792608650769
tp3066
(Vsuitcaseboy.blogspot.co.uk
p3067
F0.0065030737184372306
tp3068
(Vsliekje.blogspot.co.uk
p3069
F0.006483803155788567
tp3070
(Vyourcreativefuel.blogspot.co.uk
p3071
F0.006483803155788567
tp3072
(Vmonica-or.blogspot.co.uk
p3073
F0.006322861094645326
tp3074
(Vsleazybeats.blogspot.co.uk
p3075
F0.0062287104622871054
tp3076
(Vquickshout.blogspot.co.uk
p3077
F0.005905511811023622
tp3078
(Vblogger.co.uk
p3079
F0.00456841015757446
tp3080
tp3081
s((S'lwn.net'
p3082
tp3083
(ttp3084
((Vsuccessfulsoftware.net
p3085
F0.005252112500049234
tp3086
(Vlinuxfr.org
p3087
F0.004822843418206723
tp3088
(Vghzl.co
p3089
F0.0034472746606284085
tp3090
(Vphoronix.com
p3091
F0.002768949835679411
tp3092
(Vlinux-bg.org
p3093
F0.0026851094101852297
tp3094
(Vbugs.freedesktop.org
p3095
F0.002523399741763606
tp3096
(Vrt.wiki.kernel.org
p3097
F0.002237663304438635
tp3098
(Vrajalanetti.com
p3099
F0.002206267253682163
tp3100
(Vsimepar.br
p3101
F0.0018997695554617766
tp3102
(Vlxer.com
p3103
F0.0016418547532840177
tp3104
(Vplanet.postgresql.org
p3105
F0.0016138535921117138
tp3106
(Vnorrod.nl
p3107
F0.0014726421294774892
tp3108
(Vwebmail.delaval.com
p3109
F0.001380474439094912
tp3110
(Velementarynow.com
p3111
F0.0012930064543167485
tp3112
(Vusers.csc.calpoly.edu
p3113
F0.001283081096542379
tp3114
(Vbeyond3d.com
p3115
F0.0012644611077741394
tp3116
(V100ask.org
p3117
F0.0012163660952326189
tp3118
(Vanandtech.com
p3119
F0.001147878137408774
tp3120
(Vohjelmointiputka.net
p3121
F0.00110908323285851
tp3122
(Vwebmail.alltele.net
p3123
F0.0010886146327560872
tp3124
tp3125
s((S'keyvalue.org'
p3126
tp3127
(ttp3128
((Vrubygems.org
p3129
F1.8680492428768945e-05
tp3130
(Vgithub.com
p3131
F3.475709217831192e-07
tp3132
tp3133
s((S'alibaba.com'
p3134
tp3135
(ttp3136
(ts((S'mobileread.com'
p3137
tp3138
(ttp3139
(ts((S'alpha46.com'
p3140
tp3141
(ttp3142
(ts((S'oracle-base.com'
p3143
tp3144
(ttp3145
(ts((S'alpha43.com'
p3146
tp3147
(ttp3148
(ts((S'alpha19.com'
p3149
tp3150
(ttp3151
(ts((S'beta9.com'
p3152
tp3153
(ttp3154
(ts((S'caltech.edu'
p3155
tp3156
(ttp3157
(ts((S'sarasoueidan.com'
p3158
tp3159
(ttp3160
(ts((S'mozilla.org'
p3161
tp3162
(ttp3163
((Vtrovi.com
p3164
F0.003908185540139704
tp3165
(Vastromenda.com
p3166
F0.003661281447262505
tp3167
(Vdefault-search.net
p3168
F0.003546628603773007
tp3169
(Vyandex.ru
p3170
F0.003418356746361168
tp3171
(Vhome.tb.ask.com
p3172
F0.002485574080687845
tp3173
(Vmystartsearch.com
p3174
F0.002372836999030979
tp3175
(Vgroovorio.com
p3176
F0.0021940789678751077
tp3177
(Vcr4.gogorithm.com
p3178
F0.0014396275046440782
tp3179
(Vistartsurf.com
p3180
F0.001407008639371235
tp3181
(Vcr2.gogorithm.com
p3182
F0.0011775681487276746
tp3183
(Vvosteran.com
p3184
F0.0011286580230675245
tp3185
(Vupdatesoftnow.com
p3186
F0.0011115485450116163
tp3187
(Vsearch.yahoo.com
p3188
F0.0010762443747588434
tp3189
(Vsweet-page.com
p3190
F0.0009996025717427229
tp3191
(Vhd-plugin.com
p3192
F0.0009837360668146014
tp3193
(Vget.adobe.com
p3194
F0.0008646924779831686
tp3195
(Vcij.campaignism.com
p3196
F0.0007996086228882707
tp3197
(Vieonline.microsoft.com
p3198
F0.0007893274514678609
tp3199
(Vaz307127.vo.msecnd.net
p3200
F0.0007404118225709963
tp3201
tp3202
s((S'wolframalpha.com'
p3203
tp3204
(ttp3205
((Vwebassign.net
p3206
F0.006517849643425926
tp3207
(Vmathworld.wolfram.com
p3208
F0.003393997804121385
tp3209
(Vtutorial.math.lamar.edu
p3210
F0.0032305370516692486
tp3211
(Vmathxl.com
p3212
F0.002903553433297141
tp3213
(Vsymbolab.com
p3214
F0.0026494218523835946
tp3215
(Vpurplemath.com
p3216
F0.0023617804926934385
tp3217
(Vquest.cns.utexas.edu
p3218
F0.0022502976628350187
tp3219
(Vmath.stackexchange.com
p3220
F0.0021096126650983816
tp3221
(Vdesmos.com
p3222
F0.0016572406004577939
tp3223
(Vchegg.com
p3224
F0.0011195735650166758
tp3225
(Vmathway.com
p3226
F0.0008791764257050895
tp3227
tp3228
s((S'alpha24.com'
p3229
tp3230
(ttp3231
(ts((S'zetalab.de'
p3232
tp3233
(ttp3234
(ts((S'codinghorror.com'
p3235
tp3236
(ttp3237
(ts((S'lego.com'
p3238
tp3239
(ttp3240
(ts((S'alpha32.com'
p3241
tp3242
(ttp3243
(ts((S'shawarma-time.com'
p3244
tp3245
(ttp3246
(ts((S'alpha38.com'
p3247
tp3248
(ttp3249
(ts((S'alpha31.com'
p3250
tp3251
(ttp3252
(ts((S'practicingruby.com'
p3253
tp3254
(ttp3255
((Velmcitycraftworks.org
p3256
F0.023109641123805664
tp3257
(Vhartsem.edu
p3258
F0.01576023487552252
tp3259
(Vvdumoulin.github.io
p3260
F0.014616148715765574
tp3261
(Vblog.rubybestpractices.com
p3262
F0.014336265722118734
tp3263
(Vletter.ly
p3264
F0.009270472292980331
tp3265
(Vfabioanselmo.github.io
p3266
F0.007632800412583806
tp3267
(Vnas.int.stangl.co.za
p3268
F0.006892014145900156
tp3269
(Vpracticalruby.com
p3270
F0.006233190950798924
tp3271
(Vjamesfriend.com.au
p3272
F0.004684389272748566
tp3273
(Vdevblog.avdi.org
p3274
F0.0029803058169662632
tp3275
(Vrubytechlist.com
p3276
F0.0027833693680260445
tp3277
(Vstats.fanjas.com
p3278
F0.002452099050482813
tp3279
(Vcodon.com
p3280
F0.002302760390183461
tp3281
(Vtestingeducation.org
p3282
F0.0022754087308275747
tp3283
(Vherdt.de
p3284
F0.0022693966419629025
tp3285
(Vrubyoffrails.com
p3286
F0.0021707508112341948
tp3287
(Vcodecoreyvr.slack.com
p3288
F0.001842643106583627
tp3289
(Vdaniel.haxx.se
p3290
F0.0017404757300328755
tp3291
(Vschibsted.service-now.com
p3292
F0.0012539919721074684
tp3293
(Vallin.qiita.com
p3294
F0.0011750421056754533
tp3295
tp3296
s((S'localhost.'
p3297
tp3298
(ttp3299
(ts((S'ureddit.com'
p3300
tp3301
(ttp3302
((Vbeginnerscpp.com
p3303
F0.006572671888598781
tp3304
(Vfatsecret.com.au
p3305
F0.004678948612723494
tp3306
(V3pod.com.au
p3307
F0.004578399016372226
tp3308
(Vdev.solita.fi
p3309
F0.00436173082109968
tp3310
(Vwebcourseworks.com
p3311
F0.003127216921718232
tp3312
(Vthehybridathlete.com
p3313
F0.0023514834745883392
tp3314
(Vtelecommuterjobs.net
p3315
F0.002200164380097364
tp3316
(Vlocal.brookings.k12.sd.us
p3317
F0.002117690013996227
tp3318
(Vevasdigital.co
p3319
F0.0018805682450380422
tp3320
(Vuniversityofreddit.com
p3321
F0.0013201869970415694
tp3322
(Vludosoul.wordpress.com
p3323
F0.0012700212020068434
tp3324
(Vmole-reads.tumblr.com
p3325
F0.0012221340955459448
tp3326
(Vwipp.energy.gov
p3327
F0.001025010250102501
tp3328
(Vmail.yoox.biz
p3329
F0.0010156743254000932
tp3330
(Vapexbookcompany.com
p3331
F0.0010100822701702092
tp3332
(Vcodeception.com
p3333
F0.0009424400667020082
tp3334
(Vincidentalcomplexity.com
p3335
F0.0009344921035417251
tp3336
(Vdogfalo.github.io
p3337
F0.0009123859517560306
tp3338
(Vacsf.com.au
p3339
F0.0008911864087341653
tp3340
(Vwindenergyfoundation.org
p3341
F0.0008400938928468477
tp3342
tp3343
s((S'paulund.co.uk'
p3344
tp3345
(ttp3346
((Vdesignfloat.com
p3347
F0.014682317874154185
tp3348
(Vtikslus.com
p3349
F0.009972109256922046
tp3350
(Vtuflow.com
p3351
F0.00941413071944854
tp3352
(Vthemeswordpressfree.com
p3353
F0.0064874181764638375
tp3354
(V1dex.ch
p3355
F0.005137631363583222
tp3356
(Vcodingfusion.com
p3357
F0.005027579500723988
tp3358
(Vwp-tips.net
p3359
F0.004666974061316192
tp3360
(Vdanangsmartphone.vn
p3361
F0.004652234916816997
tp3362
(Vtak.ee
p3363
F0.004626630229509653
tp3364
(Venjoycss.com
p3365
F0.004177601750527054
tp3366
(Ve-kitap.org
p3367
F0.004108657082764539
tp3368
(Vpurecssmenu.com
p3369
F0.0039179659775167705
tp3370
(Vccs.seemysite.us
p3371
F0.003615513921040149
tp3372
(Vpro.agence-hybrid.com
p3373
F0.003342605497371602
tp3374
(Vhobium.com
p3375
F0.003266090976893467
tp3376
(Vwplift.com
p3377
F0.0028646937118022783
tp3378
(Vsimplemediacode.info
p3379
F0.002693832260479542
tp3380
(Vcubic-bezier.com
p3381
F0.002685931857532827
tp3382
(Vleagueoflegends-wiki.com
p3383
F0.00265266660471949
tp3384
(Vgmgcongress.com
p3385
F0.0025931240388389495
tp3386
tp3387
s((S'stackexchange.com'
p3388
tp3389
(ttp3390
((Vdrupal.org
p3391
F0.0018087338073138374
tp3392
(Vsuperuser.com
p3393
F0.0017565770216195539
tp3394
(Vstackoverflow.com
p3395
F0.0017298447513904261
tp3396
(Vexchange.jacobs-university.de
p3397
F0.0017227839744996746
tp3398
(Vencrypted.google.com
p3399
F0.0016974100217127502
tp3400
(Vstartpage.com
p3401
F0.0011022911608110297
tp3402
(Vknightsandmerchants.net
p3403
F0.0010559136442041205
tp3404
(Vcourses.edx.org
p3405
F0.0009489679492966093
tp3406
(Vwen.lu
p3407
F0.0007011318157478892
tp3408
(Vdev53.mainlinemenswear.co.uk
p3409
F0.0004911855144103377
tp3410
(Vbodytonicmusic.com
p3411
F0.0004665108146013598
tp3412
(Vwpsites.net
p3413
F0.00045658378453616134
tp3414
(Vmathoverflow.net
p3415
F0.00038500259922329095
tp3416
(Vbuildwithcraft.com
p3417
F0.00036671354486146547
tp3418
(Vshkspr.mobi
p3419
F0.00034314590131385466
tp3420
tp3421
s((S'alpha45.com'
p3422
tp3423
(ttp3424
(ts((S'docks.qc.ca'
p3425
tp3426
(ttp3427
((Vgoogle.com
p3428
F1.8234564997169045e-08
tp3429
tp3430
s((S'.'
p3431
tp3432
(ttp3433
(ts((S'alpha17.com'
p3434
tp3435
(ttp3436
(ts((S'collegehumor.com'
p3437
tp3438
(ttp3439
((Vdorkly.com
p3440
F0.008021933011457285
tp3441
(Vepicfail.com
p3442
F0.0012799687830245953
tp3443
(Vcracked.com
p3444
F0.0010912017310832412
tp3445
(Vwebmail.iac.com
p3446
F0.0010835730286289731
tp3447
(Vfunnyordie.com
p3448
F0.0008083489140107018
tp3449
(Vbitboard.com
p3450
F0.0007468065544100305
tp3451
(Vjakeandamir.com
p3452
F0.000684379580816286
tp3453
(Vsmosh.com
p3454
F0.0005418167439286141
tp3455
(Votaku-streamers.com
p3456
F0.0004226580805814449
tp3457
(Vescapistmagazine.com
p3458
F0.00037066058045890797
tp3459
(Vkillsometime.com
p3460
F0.0003187066730836541
tp3461
(Vexplosm.net
p3462
F0.00020320890175623739
tp3463
(Vslowrobot.com
p3464
F0.00019192407440080052
tp3465
(Vbreak.com
p3466
F0.00014199769895208476
tp3467
(Vcockenblog.tumblr.com
p3468
F0.00013743128785720813
tp3469
tp3470
s((S'alpha0.com'
p3471
tp3472
(ttp3473
(ts((S'thoughtbot.com'
p3474
tp3475
(ttp3476
((Vupcase.com
p3477
F0.024989667086915485
tp3478
(Vformkeep.com
p3479
F0.014646203355550037
tp3480
(Vjameschambers.co
p3481
F0.008357425242515544
tp3482
(Vtammersaleh.com
p3483
F0.004943316112993391
tp3484
(Vhoundci.com
p3485
F0.004806836698868746
tp3486
(Vsiyelo.com
p3487
F0.002945051927677963
tp3488
(Vgiantrobots.fm
p3489
F0.00211715962498671
tp3490
(Vmapsdesign.tumblr.com
p3491
F0.002099795643319399
tp3492
(Vapeth.com
p3493
F0.0019577595682550466
tp3494
(Vdevblog.avdi.org
p3495
F0.0019100218616960073
tp3496
(Vacademicwork.se
p3497
F0.0017322341701425485
tp3498
(Vrinse.io
p3499
F0.001560292892647523
tp3500
(Vatomic.io
p3501
F0.0014838520150369518
tp3502
(Vmartialcodex.com
p3503
F0.0014348262119961987
tp3504
(Vlvh.me
p3505
F0.0013953332488518147
tp3506
(Vbrightnewt.com
p3507
F0.0013170589638774016
tp3508
(Vsetentaydos.com
p3509
F0.0012088216882618495
tp3510
(Vryanterry.net
p3511
F0.0011578899857040137
tp3512
(Vdrp.io
p3513
F0.0011536686663590216
tp3514
(Vlaurium.nusii.com
p3515
F0.001150569134284429
tp3516
tp3517
s((S'alpha7.com'
p3518
tp3519
(ttp3520
(ts((S'beta5.com'
p3521
tp3522
(ttp3523
(ts((S'theoldreader.com'
p3524
tp3525
(ttp3526
((Vcluborlov.blogspot.com.br
p3527
F0.001629483712195623
tp3528
(Vhome.nielskim.nl
p3529
F0.001583765973314186
tp3530
(Vboards.cruisecritic.com
p3531
F0.001485453300561661
tp3532
(Vdtmpower.net
p3533
F0.0014122945690184302
tp3534
(Vmail.luetzen.dk
p3535
F0.0011100585027773505
tp3536
(Vportal.filadelfia.br
p3537
F0.0008692568306636837
tp3538
(Vgigabitescafe.com
p3539
F0.0007618165206089385
tp3540
(Vdelphifeeds.com
p3541
F0.0005999661440565003
tp3542
(Vbrusselnieuws.be
p3543
F0.0005860492509324877
tp3544
(Vtheaquilareport.com
p3545
F0.0005821878023734192
tp3546
(Vradionacional.com.ar
p3547
F0.0005543664620062667
tp3548
(Vvott.ru
p3549
F0.0004978213381410596
tp3550
(Vunz.com
p3551
F0.0004920895591088345
tp3552
(Vone.npr.org
p3553
F0.0004875921931996698
tp3554
(Vforum.pdnk.org
p3555
F0.00046894424078728703
tp3556
(Vwebmail.wmich.edu
p3557
F0.0004127460638011333
tp3558
(Vylilauta.org
p3559
F0.0003986461030724298
tp3560
(Vivorytower.com
p3561
F0.0003872626065568982
tp3562
(Vhomebrewchatter.com
p3563
F0.0003844828465516838
tp3564
(Vs126-pl.ogame.gameforge.com
p3565
F0.0003813682539531203
tp3566
tp3567
s((S'9gag.com'
p3568
tp3569
(ttp3570
((Vhugelol.com
p3571
F0.003233730888247263
tp3572
(Vmemecenter.com
p3573
F0.0025017981164674975
tp3574
(Vkwejk.pl
p3575
F0.0021561817990461748
tp3576
(Vmangareader.net
p3577
F0.001933358652853593
tp3578
(Vdumpert.nl
p3579
F0.0015286863776028295
tp3580
(Veksisozluk.com
p3581
F0.001271977269860276
tp3582
(Vtwitch.tv
p3583
F0.0012509446636704555
tp3584
(Vhiddenlol.com
p3585
F0.0010730062228643238
tp3586
(Vmangafox.me
p3587
F0.0006855088296482892
tp3588
(Vjeuxvideo.com
p3589
F0.0005999945477223184
tp3590
(Vhaivl.com
p3591
F0.0004240296668315654
tp3592
(Vmangahere.co
p3593
F0.0003718523999781129
tp3594
tp3595
s((S'pow.cx'
p3596
tp3597
(ttp3598
(ts((S'github.com'
p3599
tp3600
(ttp3601
((Vcode.google.com
p3602
F0.00407012608671127
tp3603
(Vrubygems.org
p3604
F0.0035773462484789457
tp3605
(Vraw.githubusercontent.com
p3606
F0.0034577717855745157
tp3607
(Vstackoverflow.com
p3608
F0.003441503954031439
tp3609
(Vbitbucket.org
p3610
F0.003385212782873444
tp3611
(Vnpmjs.org
p3612
F0.002854017136546961
tp3613
(Vpypi.python.org
p3614
F0.002706602897481004
tp3615
(Vnews.ycombinator.com
p3616
F0.0019993154488276
tp3617
(Vgit-scm.com
p3618
F0.0019871032599025357
tp3619
(Vdocs.angularjs.org
p3620
F0.0012442907118560913
tp3621
(Vhaxiomic.github.io
p3622
F0.0006659055953985048
tp3623
(Vpivotaltracker.com
p3624
F0.0005625324970995607
tp3625
tp3626
s((S'runnable.com'
p3627
tp3628
(ttp3629
(ts((S'youtube.com'
p3630
tp3631
(ttp3632
(ts((S'alpha9.com'
p3633
tp3634
(ttp3635
(ts((S'javascriptkit.com'
p3636
tp3637
(ttp3638
(ts((S'quirksmode.org'
p3639
tp3640
(ttp3641
(ts((S'alpha23.com'
p3642
tp3643
(ttp3644
(ts((S'livejournal.com'
p3645
tp3646
(ttp3647
((Vlenta.ru
p3648
F0.007630193552149961
tp3649
(Vecho.msk.ru
p3650
F0.005440124097184883
tp3651
(Vnewsru.com
p3652
F0.00489071664256173
tp3653
(Vrusvesna.su
p3654
F0.0048745836111702455
tp3655
(Vartlebedev.ru
p3656
F0.00466291265138468
tp3657
(Vnavalny.com
p3658
F0.004605537564307319
tp3659
(Vgazeta.ru
p3660
F0.004564734729053364
tp3661
(Vexler.ru
p3662
F0.004269929777672117
tp3663
(Vrbc.ru
p3664
F0.004190171181083074
tp3665
(Vvoicesevas.ru
p3666
F0.0032223065289894
tp3667
(Vd3.ru
p3668
F0.0009741109205437652
tp3669
tp3670
s((S'rubyonrails.org'
p3671
tp3672
(ttp3673
((Vapidock.com
p3674
F0.011397494420702052
tp3675
(Vrubygems.org
p3676
F0.008203633250278028
tp3677
(Vgotealeaf.com
p3678
F0.005455874526601032
tp3679
(Vrailstutorial.org
p3680
F0.004871535033275358
tp3681
(Vruby-doc.org
p3682
F0.004805262911288739
tp3683
(Vruby-forum.com
p3684
F0.004490223826882239
tp3685
(Vruby-lang.org
p3686
F0.0032113084093923576
tp3687
(Vbloc.io
p3688
F0.00318059571273871
tp3689
(Vreinteractive.net
p3690
F0.001720967333430777
tp3691
(Vrelishapp.com
p3692
F0.0013700371245817546
tp3693
(Vjira.greenmile.com
p3694
F0.0012420964931221224
tp3695
(Vamberbit.com
p3696
F0.0011787522780099952
tp3697
(Vruby-china.org
p3698
F0.000915150624069657
tp3699
(Vrails.org
p3700
F0.0008464418997255876
tp3701
(Vrailsforzombies.org
p3702
F0.0007531036531073972
tp3703
tp3704
s((S'linuxjournal.com'
p3705
tp3706
(ttp3707
((Vplay0ad.com
p3708
F0.007972660221054225
tp3709
(Vgrc.com
p3710
F0.00647141761691918
tp3711
(Vislametinfo.fr
p3712
F0.003816693772624731
tp3713
(Vmfrtech.com
p3714
F0.003299980133259979
tp3715
(Vstaceypageonline.com
p3716
F0.002611479327291582
tp3717
(Vweb.tiscali.it
p3718
F0.002206592194180113
tp3719
(Vvuenosairez.com
p3720
F0.002110189065787111
tp3721
(Vgoogleblog.blogspot.ca
p3722
F0.0021021366248038047
tp3723
(Viso.linuxquestions.org
p3724
F0.00205698044304996
tp3725
(Vapp.flowkey.com
p3726
F0.002010494615044506
tp3727
(Vlxer.com
p3728
F0.0017342140696928467
tp3729
(Vpubservice.com
p3730
F0.0016237614530817824
tp3731
(Vswtch.com
p3732
F0.0016066199103156131
tp3733
(Vlinuxformat.co.uk.hypestat.com
p3734
F0.0015858338656718014
tp3735
(Vthemukt.com
p3736
F0.0015653612543401665
tp3737
(Vandroidlista.com
p3738
F0.0015486774962675757
tp3739
(Vmakerzone.mathworks.com
p3740
F0.0014968938741111305
tp3741
(Vlinuxstory.org
p3742
F0.001406172434392643
tp3743
(Vlinuxine.com
p3744
F0.0014034815981275438
tp3745
(Vchili-tv.it
p3746
F0.0013159468347682625
tp3747
tp3748
s((S'ruby-lang.org'
p3749
tp3750
(ttp3751
((Vcas-01.uni.ad.sunderland.ac.uk
p3752
F0.012872928541706572
tp3753
(Vref.xaio.jp
p3754
F0.004998883713543663
tp3755
(Vrubyforge.org
p3756
F0.003566180092713265
tp3757
(Vguides.ruby.tw
p3758
F0.0033659435810147755
tp3759
(Vopenshift.com
p3760
F0.003261580787297741
tp3761
(Vjemmywalker.pixnet.net
p3762
F0.0028971000803575207
tp3763
(Vblade.nagaokaut.ac.jp
p3764
F0.0024790205130732737
tp3765
(Vruby-auf-schienen.de
p3766
F0.0022711603195847024
tp3767
(Vrubyclub.blogspot.com
p3768
F0.0021561004694637754
tp3769
(Vhelp.rallydev.com
p3770
F0.002068458282306121
tp3771
(Vruby-doc.com
p3772
F0.0019892545575918353
tp3773
(Vrailsdoc.com
p3774
F0.0019050279129559802
tp3775
(Vtheadmin.org
p3776
F0.0019036383809625046
tp3777
(Vbebo.com
p3778
F0.0018038020923432463
tp3779
(Vpine.fm
p3780
F0.001572538640588942
tp3781
(Vsldn.softlayer.com
p3782
F0.0015296219648572567
tp3783
(Vrubyinstaller.org
p3784
F0.0015030799755354062
tp3785
(Vfoad.simplon.co
p3786
F0.0014549651702471815
tp3787
(Vrusrails.ru
p3788
F0.001415963079495097
tp3789
(Vcharliewaite.me
p3790
F0.001348086772597759
tp3791
tp3792
s.