(dp0
((S'alpha21.com'
p1
tp2
(ttp3
((Vnaver.com
p4
F1.1258501626907744e-07
tp5
tp6
s((S'gogorithm.com'
p7
tp8
(ttp9
(ts((S'ruby-toolbox.com'
p10
tp11
(ttp12
((Vrubytoolbox.com
p13
F0.0028217657755593615
tp14
(Vankane.github.io
p15
F0.0027867450266258315
tp16
(Vsimonecarletti.com
p17
F0.0022570789309152967
tp18
(Vgoogle.chn.im
p19
F0.0019127274010551762
tp20
(Vrubygems.org
p21
F0.0017247897487160796
tp22
(Vrubydev.ru
p23
F0.0017242912428428383
tp24
(Vruby-china.org
p25
F0.0016945777982200333
tp26
(Vintertwingly.net
p27
F0.0013847288490194014
tp28
(V3987.com
p29
F0.0012524451481177904
tp30
(Vprototypejs.org
p31
F0.0012326215985673007
tp32
(Vin-media.ru
p33
F0.0012279170722429207
tp34
(Vapotomo.de
p35
F0.0011713520749665328
tp36
(Vihower.tw
p37
F0.0011146665129195615
tp38
(Vforums.raml.org
p39
F0.0010388978058591572
tp40
(Vlibgosu.org
p41
F0.0010298288535778202
tp42
(Vfabricationgem.org
p43
F0.0010267945823296206
tp44
(Vryanfunduk.com
p45
F0.000990572769322465
tp46
(Vrubyjunky.com
p47
F0.00097829916886024
tp48
(Vsvyatov.ru
p49
F0.0008794594405349579
tp50
(Vadp.eease.com
p51
F0.0008370281860143508
tp52
tp53
s((S'alpha40.com'
p54
tp55
(ttp56
(ts((S'pocketworx.com'
p57
tp58
(ttp59
(ts((S'mojotech.com'
p60
tp61
(ttp62
(ts((S'alpha29.com'
p63
tp64
(ttp65
(ts((S'alpha18.com'
p66
tp67
(ttp68
(ts((S'alpha34.com'
p69
tp70
(ttp71
((Vlivingsocial.com
p72
F9.079445109447686e-06
tp73
tp74
s((S'zetalab.de'
p75
tp76
(ttp77
(ts((S'djangopackages.com'
p78
tp79
(ttp80
((Vapreche.net
p81
F0.020882769022286102
tp82
(Vdjango-avatar.readthedocs.org
p83
F0.009746893775378008
tp84
(Vdjangoproject.com
p85
F0.005727475751994577
tp86
(Vhackerluddite.wordpress.com
p87
F0.004126278944534195
tp88
(Vgit.wogon.eu
p89
F0.004072171407091843
tp90
(Vlocal.packer.streetvoice.com
p91
F0.0027112516945323093
tp92
(Vmezzanine.jupo.org
p93
F0.0024973213885595793
tp94
(Vdarwinconstruction.ca
p95
F0.0024349002367264117
tp96
(Vpanel.djangoeurope.com
p97
F0.0023059510461401764
tp98
(Vapibrowser.dev.rexsoftware.com
p99
F0.0018059605913599529
tp100
(Vralphminderhoud.com
p101
F0.001767590375185312
tp102
(Vlamia1026.tmweb.ru
p103
F0.0017604633993980351
tp104
(Vpinaxproject.com
p105
F0.0016632909015304959
tp106
(Vforums.pligg.com
p107
F0.0016274674506509869
tp108
(Vjeffknupp.com
p109
F0.001544138608216401
tp110
(Vwpj.cz
p111
F0.001265909401943342
tp112
(Vkristall-shatura.ru
p113
F0.0010253657596652765
tp114
(Vboard.shaturka.ru
p115
F0.001018887019789658
tp116
(Vdjango-report-builder.readthedocs.org
p117
F0.0009767865688568975
tp118
(Vhexvolt.blogspot.ru
p119
F0.0009338297045588438
tp120
tp121
s((S'webssearches.com'
p122
tp123
(ttp124
((Vapps.facebook.com
p125
F0.0021935335744632054
tp126
(Voffers.bycontext.com
p127
F0.0020862308063040167
tp128
(Voffer.alibaba.com
p129
F0.0020701312153313836
tp130
(Vcr2.gogorithm.com
p131
F0.0018717007128681296
tp132
(Vgenesis-offers.com
p133
F0.0018132036619243768
tp134
(Vfriv.com
p135
F0.001731956243723461
tp136
(Vcr3.gogorithm.com
p137
F0.0015787268353865457
tp138
(Vcdn.regiedepub.com
p139
F0.0011559891140969405
tp140
(Vtuneuppro.com
p141
F0.0011187338752717364
tp142
(Vgty.campaignism.com
p143
F0.0009354430470577684
tp144
(Vmegaoferta.net
p145
F0.0008819582476484195
tp146
(Valh.gogorithm.com
p147
F0.0007192514956077569
tp148
(Vlp.ilividnewtab.com
p149
F0.0006971578420989229
tp150
(Vzym.tollbahsuburban.com
p151
F0.0006637015040444586
tp152
(Vavira.com
p153
F0.0006519336861994229
tp154
(Veasydriverpro.com
p155
F0.0005909675721103702
tp156
(Vcache.icmwebserv.com
p157
F0.0005497025356421287
tp158
(Vxnxx.com
p159
F0.0005015555867557102
tp160
(Vyoutube.com
p161
F0.0004991988529966611
tp162
tp163
s((S'railsenvy.com'
p164
tp165
(ttp166
((Vproxylala.pw
p167
F0.07315634218289085
tp168
(Vafreshcup.wordpress.com
p169
F0.061630218687872766
tp170
(Vtheodinproject.com
p171
F0.000533130952642291
tp172
(Vforum.rubyonrails.pl
p173
F6.492624968274674e-05
tp174
(Vrailscasts.com
p175
F5.9049096962160154e-05
tp176
(Vkora-online.tv
p177
F5.540333318764308e-06
tp178
(Vyoutube.com
p179
F8.756484556477331e-10
tp180
tp181
s((S'python.org'
p182
tp183
(ttp184
((Vdjangopackages.com
p185
F0.028235770318671527
tp186
(Vdocs.djangoproject.com
p187
F0.011797606215775544
tp188
(Vpythonhosted.org
p189
F0.0072327330062755026
tp190
(Vwikidocs.net
p191
F0.00331444475734783
tp192
(Vnetworkx.github.io
p193
F0.0025721363577256035
tp194
(Vpython3wos.appspot.com
p195
F0.0017378741652830621
tp196
(Vconfluence.atlassian.com
p197
F0.001071124946390917
tp198
(Vpure-forum.org
p199
F0.0008837824192407215
tp200
(Vmoodle.macalester.edu
p201
F0.0007187880924060596
tp202
(Vdeveloper.foursquare.com
p203
F0.000605093370590939
tp204
(Vprogrammeerimine.cs.ut.ee
p205
F0.00043730836141456323
tp206
(Vtrailtiger.com
p207
F0.0004264912335899067
tp208
(Vvirtualenv.pypa.io
p209
F0.0004119807334448899
tp210
(Vliaoxuefeng.com
p211
F0.00039731681140257646
tp212
(Vpagekite.net
p213
F0.00038970019874352943
tp214
(Vh.yandex-team.ru
p215
F0.00032120697262060226
tp216
(Vreplicat.org
p217
F0.00030196437819484144
tp218
tp219
s((S'alpha35.com'
p220
tp221
(ttp222
(ts((S'rydia.net'
p223
tp224
(ttp225
((Vsincomics.com
p226
F0.021359696539829148
tp227
(Vhalflightcomics.com
p228
F0.012060105220756076
tp229
(Vstoryofthedoor.com
p230
F0.012027073087597992
tp231
(Valexanderthekid.tumblr.com
p232
F0.01121503814021068
tp233
(Vdcisgoingtohell.com
p234
F0.010699820225692566
tp235
(Vdubiouscompany.com
p236
F0.008778554737132042
tp237
(Vushala.smackjeeves.com
p238
F0.007147921459680803
tp239
(Vtrue-magic.com
p240
F0.006756772051863651
tp241
(Veqcomics.com
p242
F0.004581133879620812
tp243
(Vteamheartgold.deviantart.com
p244
F0.0041985387859174265
tp245
(Veverblue-comic.com
p246
F0.004143634823308365
tp247
(Vforgottenordercomic.com
p248
F0.003456092237085129
tp249
(Vamyachronicles.com
p250
F0.0028932456769697056
tp251
(Vblackbird.ashen-ray.com
p252
F0.002813647717287217
tp253
(Vhttydireth-vespera.smackjeeves.com
p254
F0.0020531153005398485
tp255
(Vdigitalextremes.slack.com
p256
F0.0016468962340205
tp257
(Vblindsprings.com
p258
F0.001613013680589577
tp259
(Vteahousecomic.com
p260
F0.0013120810467020735
tp261
(Vgiginuzlocke.smackjeeves.com
p262
F0.0011640229070923036
tp263
(Vegscomics.com
p264
F0.0010893065517749412
tp265
tp266
s((S'msn.com'
p267
tp268
(ttp269
((Vsignout.live.com
p270
F0.15308963021388675
tp271
(Vbing.com
p272
F0.004617366223358805
tp273
(Vsearch.safefinder.com
p274
F0.0021814650029844426
tp275
(Vapps.facebook.com
p276
F0.0020435143826556114
tp277
(Vtrovi.com
p278
F0.0016986842333237284
tp279
(Vsearch.ask.com
p280
F0.0016746763184673106
tp281
(Vastromenda.com
p282
F0.0015774510251515713
tp283
(Vcr2.gogorithm.com
p284
F0.0011036373266521172
tp285
(Vfoxsports.com
p286
F0.0010602432824249944
tp287
(Vyahoo.com
p288
F0.0009974446200310605
tp289
(Vgroovorio.com
p290
F0.0009212692482627997
tp291
(Valh.gogorithm.com
p292
F0.0007715535537510396
tp293
(Vyahoo.co.jp
p294
F0.0006108892755620947
tp295
(Vgoogle.com
p296
F0.00046769580803432013
tp297
tp298
s((S'alpha27.com'
p299
tp300
(ttp301
(ts((S'beta7.com'
p302
tp303
(ttp304
(ts((S'nuclearsquid.com'
p305
tp306
(ttp307
((Vmolotang.com
p308
F0.025083419629501783
tp309
(Vcrucible.corp.appnexus.com
p310
F0.0014309814038058852
tp311
(Vanswers.perforce.com
p312
F0.000850176451716394
tp313
(Vruby-forum.com
p314
F0.00012045186657374666
tp315
(Vx.sankuai.com
p316
F7.04903956835881e-05
tp317
(Vpinboard.in
p318
F7.1203116432007166e-06
tp319
(Vtheverge.com
p320
F2.8217985580072086e-06
tp321
(Vsuperuser.com
p322
F1.8128071291828394e-06
tp323
(Vstackoverflow.com
p324
F7.170873291331439e-07
tp325
(V8tracks.com
p326
F4.5838400205375003e-07
tp327
(Vgoogle.com.ph
p328
F6.325116749043523e-08
tp329
(Vgithub.com
p330
F2.4893524466823384e-08
tp331
(Vgoogle.com
p332
F2.4395329918893198e-08
tp333
(Vmail.google.com
p334
F9.62054693148217e-09
tp335
(Vfacebook.com
p336
F3.2707786008337474e-10
tp337
tp338
s((S'penny-arcade.com'
p339
tp340
(ttp341
(ts((S'thecodeplayer.com'
p342
tp343
(ttp344
((Vcodeplayer.com
p345
F0.006169198538037966
tp346
(Vdespreneur.com
p347
F0.004002593201770517
tp348
(Vblog.snowflake.ch
p349
F0.0034497095075786085
tp350
(Vmlens.musings.it
p351
F0.003154407312513716
tp352
(Vwebtoolsdepot.com
p353
F0.0030697803528614543
tp354
(Vlandor.com
p355
F0.0029902913281551484
tp356
(Vfluxbb.org
p357
F0.002989062148686003
tp358
(Vbigplans.megaplan.ru
p359
F0.002977363688220863
tp360
(Vflong.com
p361
F0.002873431528005646
tp362
(Vcolours.neilorangepeel.com
p363
F0.0025789769227982464
tp364
(Vpixellest.com
p365
F0.0023572234584632317
tp366
(Vdesigngeekz.com
p367
F0.002349597914892342
tp368
(Vcodeplay.lc
p369
F0.0022500570031144997
tp370
(Vtwittstrap.com
p371
F0.00200535501032168
tp372
(Vc3scustomsock.staging.wpengine.com
p373
F0.001962648430280709
tp374
(Vterrytsang.com
p375
F0.0019232375106991502
tp376
(Vcsssrstart.slack.com
p377
F0.0018884694245712224
tp378
(Vcjbarrymores.com
p379
F0.0018867538106282864
tp380
(Vraclette-suisse.ch
p381
F0.0018163026461781647
tp382
(Vissues.telephony.com
p383
F0.0018051181660850568
tp384
tp385
s((S'foobar2000.com'
p386
tp387
(ttp388
((Vmorbo.org
p389
F0.031915159700857905
tp390
(Vjdk8.java.net
p391
F0.0036444231186665292
tp392
(Vforum.powerampapp.com
p393
F0.0026170710255915223
tp394
(Vdbpoweramp.com
p395
F0.0008974646623289207
tp396
(Vjriver.com
p397
F0.00033570030497519226
tp398
(Vpodsvojostreho.net
p399
F0.00014945816684828672
tp400
(Vteksyndicate.com
p401
F1.1823333348362995e-05
tp402
(Vtrojmiasto.pl
p403
F5.731231896333478e-06
tp404
(Vricardo.ch
p405
F3.7479474663832534e-06
tp406
(Vus-mg204.mail.yahoo.com
p407
F1.5779104558357893e-06
tp408
(Vboards.4chan.org
p409
F1.1310967365085483e-06
tp410
(Vnetvibes.com
p411
F1.0671421974257503e-06
tp412
(Vtheguardian.com
p413
F7.685661734505484e-07
tp414
(Varstechnica.com
p415
F6.992041308980053e-07
tp416
(Vsearch.yahoo.co.jp
p417
F6.754668573135203e-07
tp418
(Ven.eazel.com
p419
F5.318138091329666e-07
tp420
(Vandroidpolice.com
p421
F3.6786215539942405e-07
tp422
(Vkickstarter.com
p423
F2.241460998950497e-07
tp424
(Vgoogle.com.tw
p425
F1.301859356429909e-07
tp426
(Vgoogle.lv
p427
F1.037835278431857e-07
tp428
tp429
s((S'walla.co'
p430
tp431
(ttp432
((Vmspowerpack.com
p433
F0.00042286056172976963
tp434
(Vmslworld.egged.co.il
p435
F4.631610521254681e-05
tp436
(Vsimplestoolbar.com
p437
F4.4748032871714525e-05
tp438
(Vlink4u.co.il
p439
F8.555601488820286e-06
tp440
(Vpanet.co.il
p441
F2.0687343820870316e-06
tp442
(Vgoogle.co.il
p443
F1.3330927104853262e-06
tp444
(Vsearches.vi-view.com
p445
F1.4813106299849904e-07
tp446
(Vxnxx.com
p447
F9.644941531802667e-08
tp448
(Vmysearch.avg.com
p449
F3.890298355709239e-08
tp450
(Visearch.omiga-plus.com
p451
F3.272544785429898e-08
tp452
(Vistart.webssearches.com
p453
F2.1441877890798774e-08
tp454
(Vtrovi.com
p455
F1.6677189871460833e-08
tp456
(Vsweet-page.com
p457
F1.3795853007327792e-08
tp458
(Vmystartsearch.com
p459
F1.0474484448833913e-08
tp460
(Vvk.com
p461
F5.105423590911466e-09
tp462
(Vyoutube.com
p463
F5.776359629362245e-10
tp464
tp465
s((S'diasp.eu'
p466
tp467
(ttp468
((Vcybette.com
p469
F0.02790506560906111
tp470
(Vd.consumium.org
p471
F0.008538320796909941
tp472
(Vkolabsys.com
p473
F0.005063497897014986
tp474
(Vproverochka.businesscatalyst.com
p475
F0.00446202210729135
tp476
(Vawable.imgur.com
p477
F0.004351204351204351
tp478
(Vfantasylife.nintendo.com
p479
F0.004010262386895224
tp480
(Vpodupti.me
p481
F0.0020148652279036445
tp482
(Vforum.sportenter.co.il
p483
F0.001306915155467928
tp484
(Vfreefotohelp.ru
p485
F0.0008028673835125448
tp486
(Vfuckyouverymuch.dk
p487
F0.0004181940984847102
tp488
(Vredbox.com
p489
F4.213100135421364e-05
tp490
(Vnypost.com
p491
F1.7682904543184476e-05
tp492
(Vbeforeitsnews.com
p493
F1.6786280627496154e-05
tp494
(Vnaturalnews.com
p495
F1.2519575881711194e-05
tp496
(Vrus.postimees.ee
p497
F8.37074626064608e-06
tp498
(Vinfowars.com
p499
F8.345739769065305e-06
tp500
(Vya.ru
p501
F4.903540471922245e-06
tp502
(Vello.co
p503
F1.0571140123657e-06
tp504
(Vvimeo.com
p505
F7.446324075200837e-07
tp506
(Vwordpress.com
p507
F5.822044442670433e-07
tp508
tp509
s((S'nasa.gov'
p510
tp511
(ttp512
((Vnasa.jerusalem.com
p513
F0.0034835518377293096
tp514
(Vspaceweather.com
p515
F0.0033475442840786474
tp516
(Vspace.com
p517
F0.002945265177369104
tp518
(Vswpc.noaa.gov
p519
F0.002494603391767854
tp520
(Vesa.int
p521
F0.001361835042951779
tp522
(Vwhat-if.xkcd.com
p523
F0.0012732149429607702
tp524
(Vciclops.org
p525
F0.0012026940365659103
tp526
(Vcoasttocoastam.com
p527
F0.0011265697014438598
tp528
(Vmarssociety.de
p529
F0.00112391909362521
tp530
(Vweb.taskcracker.com
p531
F0.001026107590113099
tp532
(Vbibobuzz.com
p533
F0.0009696968425407064
tp534
(Vnanowerk.com
p535
F0.0008919591961055805
tp536
(Vbarnstormers.com
p537
F0.000739077425229431
tp538
(Vepod.usra.edu
p539
F0.000649929188302291
tp540
(Vroshihogan.blogspot.com
p541
F0.0006483939270824397
tp542
(Vsolarham.net
p543
F0.0006229008473932558
tp544
(Vharztourist.de
p545
F0.0005347227582500918
tp546
(Vgoehren-ruegen.de
p547
F0.0004998782773573379
tp548
(Vstats.mutu.sivit.org
p549
F0.0004962087088050525
tp550
tp551
s((S'sivers.org'
p552
tp553
(ttp554
((Vexamine.com
p555
F0.007219883173093456
tp556
(Vuwitechnology.com
p557
F0.006839846558005141
tp558
(Vtruefilms.com
p559
F0.0034328335396701663
tp560
(Vsitebeam.net
p561
F0.0032794691752359648
tp562
(Vdocs.withdraft.com
p563
F0.0030549495715956874
tp564
(Vmynavigatorweb.nl
p565
F0.0028599137643591107
tp566
(Vsingapore.recruit.net
p567
F0.0025840897233237402
tp568
(Vmarketplaceleaders.org
p569
F0.0025240834176874162
tp570
(Vblog.placeit.net
p571
F0.0020766650167739096
tp572
(Vkairosbio.com
p573
F0.0019437477085309572
tp574
(Vcenteroftheweb.com
p575
F0.0019412848515847046
tp576
(Valytadros.com
p577
F0.001937933895566251
tp578
(Vfullstackacademy.slack.com
p579
F0.0018748035385513495
tp580
(Vrailstutorial.org
p581
F0.0018368225687322617
tp582
(Vlintool.github.io
p583
F0.0018285739313244568
tp584
(Vhiretheworld.com
p585
F0.0018284838365313551
tp586
(Vadvancedlifeskills.com
p587
F0.0017834354092023132
tp588
(Vballcharts.com
p589
F0.0017386913484488426
tp590
(Vci.appveyor.com
p591
F0.001590201798643241
tp592
(Vblog.zackshapiro.com
p593
F0.0014996575814189902
tp594
tp595
s((S'mako.co.il'
p596
tp597
(ttp598
((Vynet.co.il
p599
F0.011501648380391862
tp600
(Vwalla.co.il
p601
F0.00755377749758904
tp602
(Vsport5.co.il
p603
F0.006583331507016732
tp604
(Vone.co.il
p605
F0.0059019222903439065
tp606
(Vnrg.co.il
p607
F0.005228495987774255
tp608
(V10tv.nana10.co.il
p609
F0.004148038854238269
tp610
(Vhaaretz.co.il
p611
F0.003253005553176228
tp612
(Vreshet.tv
p613
F0.002500336501581295
tp614
(Vnana10.co.il
p615
F0.0022548316724417413
tp616
(Vcalcalist.co.il
p617
F0.0018417326869460925
tp618
(Vrotter.net
p619
F0.0017081143185362219
tp620
(Vsdarot.tv
p621
F0.001147891993212563
tp622
(Vbeitar-jerusalem.net
p623
F0.0009314917537399742
tp624
(Vglobes.co.il
p625
F0.0008028600928230333
tp626
tp627
s((S'alpha6.com'
p628
tp629
(ttp630
(ts((S'apple.com'
p631
tp632
(ttp633
(ts((S'extracheese.org'
p634
tp635
(ttp636
(ts((S'alpha37.com'
p637
tp638
(ttp639
(ts((S'alpha10.com'
p640
tp641
(ttp642
(ts((S'weibo.com'
p643
tp644
(ttp645
((Vdouban.com
p646
F0.010033428455514418
tp647
(Vrenren.com
p648
F0.009045850353562254
tp649
(Vt.sina.com.cn
p650
F0.006880941836228743
tp651
(Vtw.yahoo.com
p652
F0.005802552902936697
tp653
(Vzhihu.com
p654
F0.005182165066233723
tp655
(Vuser.qzone.qq.com
p656
F0.0048495719265918185
tp657
(Vcnbeta.com
p658
F0.004668699257089632
tp659
(Vtieba.baidu.com
p660
F0.003849861965094919
tp661
(Vbilibili.com
p662
F0.003729730318029248
tp663
(Vbbs.hupu.com
p664
F0.00204170365397691
tp665
(Vxiami.com
p666
F0.0009027472940131179
tp667
tp668
s((S'alpha36.com'
p669
tp670
(ttp671
(ts((S'ebay.com'
p672
tp673
(ttp674
((Vamazon.com
p675
F0.010715418955713561
tp676
(Vpaypal.com
p677
F0.004491756406860376
tp678
(Vetsy.com
p679
F0.003662715716951191
tp680
(Vslickdeals.net
p681
F0.003069012319460808
tp682
(Valiexpress.com
p683
F0.0028328755606823754
tp684
(Vus-mg6.mail.yahoo.com
p685
F0.0019084091674699396
tp686
(Vwalmart.com
p687
F0.0017906265490819154
tp688
(Ve.mail.ru
p689
F0.0016764064461063679
tp690
(Vgoogle.com
p691
F0.0010756325212520402
tp692
(Vautobia.com
p693
F0.0008751469412171619
tp694
(Vbestbuy.com
p695
F0.0006417003644546833
tp696
(Vnewegg.com
p697
F0.0005644308027097123
tp698
(Vmail.aol.com
p699
F0.0004919381996496611
tp700
tp701
s((S'dropbox.com'
p702
tp703
(ttp704
((Vapp.box.com
p705
F0.0013404739791132872
tp706
(Vonedrive.live.com
p707
F0.0013325521252906328
tp708
(Vmail.google.com
p709
F0.0012791638643396106
tp710
(Vwetransfer.com
p711
F0.0012718690578820595
tp712
(Vdl.dropboxusercontent.com
p713
F0.001113213379752746
tp714
(Vbasecamp.com
p715
F0.0009847477842498521
tp716
(Vevernote.com
p717
F0.000911169342945063
tp718
(Vtrello.com
p719
F0.0007707266331317271
tp720
(Vgoo.gl
p721
F0.0005643067133763446
tp722
(Vapp.asana.com
p723
F0.0003447113809095475
tp724
(Vpastebin.com
p725
F0.0002867605076989273
tp726
(Vbit.ly
p727
F0.00028238188059720985
tp728
(Vdb.tt
p729
F0.00024846578865390364
tp730
(Vodesk.com
p731
F0.00023057830681953457
tp732
tp733
s((S'alpha42.com'
p734
tp735
(ttp736
(ts((S'cappuccino-project.org'
p737
tp738
(ttp739
(ts((S'trovi.com'
p740
tp741
(ttp742
((Vbing.com
p743
F0.004212441284699453
tp744
(Vapps.facebook.com
p745
F0.0030083022471033304
tp746
(Voffers.bycontext.com
p747
F0.0029297262233523636
tp748
(Vgroovorio.com
p749
F0.0029130750852486807
tp750
(Vastromenda.com
p751
F0.0028937860789622753
tp752
(Vreimageplus.com
p753
F0.00243956162408757
tp754
(Vsafecart.com
p755
F0.0014653320469006084
tp756
(Vtuneuppro.com
p757
F0.001189551762306356
tp758
(Valh.gogorithm.com
p759
F0.0011530157550193704
tp760
(Vcr2.gogorithm.com
p761
F0.0011365290965476328
tp762
(Vvosteran.com
p763
F0.0007473469568090073
tp764
(Vzym.tollbahsuburban.com
p765
F0.0006226184951174459
tp766
(Vanyprotect.com
p767
F0.0006114114084377105
tp768
(Vcdn.regiedepub.com
p769
F0.0005553433080517209
tp770
(Vgenesis-offers.com
p771
F0.0005458160518087363
tp772
(Vgty.campaignism.com
p773
F0.0005249554641133994
tp774
tp775
s((S'w3schools.com'
p776
tp777
(ttp778
((Vw3school.com
p779
F0.011502063248230303
tp780
(Vinfo343.ischool.uw.edu
p781
F0.00222680914685972
tp782
(Vhackthissite.org
p783
F0.0020351576929919703
tp784
(Vw3.org
p785
F0.0016574297507289558
tp786
(Vkb.iu.edu
p787
F0.0013406884083077707
tp788
(Vspidermarks.com
p789
F0.0011385526915260464
tp790
(Vtutorialspoint.com
p791
F0.0009175821542880868
tp792
(Vpicoctf.com
p793
F0.0004549384568337717
tp794
(Vw3shools.com
p795
F0.00037857890125446626
tp796
(Vapi.jquery.com
p797
F0.0003059480826287719
tp798
(Vmarianocalvo.com
p799
F0.0002950192275021
tp800
(Vprofit.notice.nl
p801
F0.00028931787484113804
tp802
(Vinsight.ccsf.edu
p803
F0.00027594889236203874
tp804
(Vxps.pk4labs.com
p805
F0.0002748864938891834
tp806
(Vtoster.ru
p807
F0.00025806812375980776
tp808
(Vkarlstads.itslearning.com
p809
F0.00022547500963902747
tp810
(Vhtmlgoodies.com
p811
F0.00021626982800444284
tp812
tp813
s((S'surrey.ac.uk'
p814
tp815
(ttp816
((Vpod51031.outlook.com
p817
F0.0017963586262663706
tp818
(Vexchange.uml.edu
p819
F0.0016144286007902184
tp820
(Vproximity.instructure.com
p821
F0.0015774356511539845
tp822
(Vexchange.ict.usc.edu
p823
F0.0015382841826919614
tp824
(Vsavingcountrymusic.com
p825
F0.0014328752846817757
tp826
(Vkaggle.com
p827
F0.001367232926914554
tp828
(Vussu.co.uk
p829
F0.0012484564641502206
tp830
(Vsurrey.summon.serialssolutions.com
p831
F0.0012332027866896894
tp832
(Vthecompleteuniversityguide.co.uk
p833
F0.0009841707655122726
tp834
(Vuppmax.uu.se
p835
F0.0009450092846242944
tp836
(Vsurrey-uk.sona-systems.com
p837
F0.0008319067088646201
tp838
(Vukeas.com.tw
p839
F0.0007918761171179304
tp840
(Vlms.neumont.edu
p841
F0.0007807936079197472
tp842
(Vunitemps.com
p843
F0.0007186507649313663
tp844
(Vbda.uk.com
p845
F0.0007096719081631982
tp846
(Vcreativeplusonline.co.uk
p847
F0.0006779957155228734
tp848
(Vcancercentrelondon.co.uk
p849
F0.0006776894018489342
tp850
(Vgradintel.com
p851
F0.0006630566913471102
tp852
(Vprogramsinformationpeople.org
p853
F0.0005993082113115775
tp854
(Vemeraldinsight.com
p855
F0.0005816681288147595
tp856
tp857
s((S'iosreviews.net'
p858
tp859
(ttp860
((Vfilter.usd262.net
p861
F0.0006673834859664083
tp862
(Va3.mzstatic.com
p863
F7.803355442840422e-05
tp864
(Vappszoom.com
p865
F2.7909670351906058e-05
tp866
(Vvimeo.com
p867
F4.509971547090617e-07
tp868
(Vgoogle.com.my
p869
F1.679023567040801e-07
tp870
(Vencrypted.google.com
p871
F1.581442718563291e-07
tp872
(Vduckduckgo.com
p873
F1.2340433203180587e-07
tp874
(Vtwitch.tv
p875
F6.699834316704951e-08
tp876
(Vgoogle.com
p877
F1.7100833862031203e-08
tp878
tp879
s((S'superuser.com'
p880
tp881
(ttp882
((Vstackexchange.com
p883
F0.004099459401758269
tp884
(Vlibc6.org
p885
F0.0030590372069599944
tp886
(Vencrypted.google.com
p887
F0.001023749016786298
tp888
(Vstartpage.com
p889
F0.0008201129671354862
tp890
(Vxie.lu
p891
F0.0007714776591323591
tp892
(Vforum.transmissionbt.com
p893
F0.0007119466006968179
tp894
(Vsmartredirect.de
p895
F0.00047585572816905144
tp896
(Vserverfault.com
p897
F0.00047570928055575365
tp898
(Vaskubuntu.com
p899
F0.0004297365953529304
tp900
(Vvirtualrouter.codeplex.com
p901
F0.00036603824366120835
tp902
(Ventiteinconnue.com
p903
F0.0002567725344910978
tp904
(Vservice.whiteclarke.com
p905
F0.0002535906271887286
tp906
(Vnetmechanic.dyndns.org
p907
F0.000249944877301956
tp908
(Vsocial.technet.microsoft.com
p909
F0.0002398143987486882
tp910
(Vcode5gaming.com
p911
F0.00022645517687985438
tp912
(Vmxc.ru
p913
F0.00021803652826213085
tp914
(Vwen.lu
p915
F0.00021779296914272678
tp916
(Vkldp.org
p917
F0.0001614334562921192
tp918
tp919
s((S'readthedocs.org'
p920
tp921
(ttp922
((Vpypi.python.org
p923
F0.026089668216928447
tp924
(Vhighlightjs.org
p925
F0.01535948261085121
tp926
(Vsublime.wbond.net
p927
F0.014327829700159037
tp928
(Vdocs.djangoproject.com
p929
F0.010121020417527507
tp930
(Vpythonhosted.org
p931
F0.00487503259271451
tp932
(Vpayplug.fr
p933
F0.004101896504534612
tp934
(Vgithub.com
p935
F0.0034092001796401194
tp936
(Vdjangopackages.com
p937
F0.002420294612928265
tp938
(Vbitbucket.org
p939
F0.0012239493506668588
tp940
(Vsource.opennews.org
p941
F0.0006405103104172375
tp942
(Vforge.puppetlabs.com
p943
F0.000604560944942585
tp944
(Vrapidsms.org
p945
F0.0005515309123225041
tp946
(Vsyncany.org
p947
F0.00047629531326776487
tp948
tp949
s((S'bycontext.com'
p950
tp951
(ttp952
(ts((S'regexper.com'
p953
tp954
(ttp955
((Vstats.wefra.de
p956
F0.01654884318766067
tp957
(Vservices.balihoo.com
p958
F0.011492809144005528
tp959
(Virchelp.org
p960
F0.009514896272032445
tp961
(Vbalihoo.wikispaces.com
p962
F0.008600634473034897
tp963
(Vconfig.whatsapp.net
p964
F0.008235261768587769
tp965
(Vope.comlocal.com
p966
F0.0054417942296446095
tp967
(Vex-parrot.com
p968
F0.005244206124024955
tp969
(Vscriptular.com
p970
F0.004299777068208656
tp971
(Vquovo.slack.com
p972
F0.004205529280171921
tp973
(Vslant.co
p974
F0.004089682490907161
tp975
(Vifconfig.me
p976
F0.003823109724905924
tp977
(Vjex.im
p978
F0.003593484437396034
tp979
(Vregexpal.com
p980
F0.003533949522620317
tp981
(Vredmine.nokaut.pl
p982
F0.003469110832330577
tp983
(Vmyezapp.com
p984
F0.0033483126266631424
tp985
(Vosslab.msopentech.cn
p986
F0.003287199672690848
tp987
(Vregexcrossword.com
p988
F0.0032797965438917417
tp989
(Vflockhart.virtualave.net
p990
F0.003141157502640796
tp991
(Vww1.regexp.com
p992
F0.0030955896640652257
tp993
(Vwisepilgrim.tk
p994
F0.0027548002769799186
tp995
tp996
s((S'foobar2000.org'
p997
tp998
(ttp999
((Vxiph.org
p1000
F0.012560316380569403
tp1001
(Vchromium.woolyss.com
p1002
F0.00955818180112687
tp1003
(Vnnc-board.com
p1004
F0.008407273052412243
tp1005
(Vseriosoft.org
p1006
F0.00812328805121656
tp1007
(Vifi-audio.com
p1008
F0.00682673706152465
tp1009
(Vthalassa.feralhosting.com
p1010
F0.006206348719177406
tp1011
(Vexactaudiocopy.de
p1012
F0.0059219804079789435
tp1013
(Vhydrogenaud.io
p1014
F0.004881531371685709
tp1015
(Vsrware.net
p1016
F0.0038989963128243216
tp1017
(Vopen-end-music.de
p1018
F0.0028752770792993695
tp1019
(Vforum.pskovonline.ru
p1020
F0.002540252362730567
tp1021
(Vforum.hdmovie.vn
p1022
F0.0019178192491957236
tp1023
(Vmassengeschmack.tv
p1024
F0.0017078779488777472
tp1025
(Vforums.ffshrine.org
p1026
F0.001649445296546487
tp1027
(Vsmsserver.itouchnet.co.za
p1028
F0.0015547791300949707
tp1029
(Vburrrn.net
p1030
F0.0013273025950887873
tp1031
(Vjenny317.pixnet.net
p1032
F0.0010201545082112753
tp1033
(V10file.com
p1034
F0.0009778273268755075
tp1035
tp1036
s((S't.co'
p1037
tp1038
(ttp1039
((Vtwitter.com
p1040
F0.01662514245459643
tp1041
(Vnetshaker.co.uk
p1042
F0.005702748047539814
tp1043
(Vovermanforum.com
p1044
F0.005168993771333038
tp1045
(Vvidshaker.com
p1046
F0.004333940142822799
tp1047
(Vhootsuite.com
p1048
F0.002525967849609657
tp1049
(Vpravda.com.ua
p1050
F0.0021821462081275064
tp1051
(Vlinkonym.appspot.com
p1052
F0.00116419829102206
tp1053
(Vnirist.com
p1054
F0.0007631574786724346
tp1055
(Vshortp.com
p1056
F0.0007615519848983666
tp1057
(Vyoutoo.be
p1058
F0.0004364089663812316
tp1059
(Vru.4game.com
p1060
F0.00023765488762786773
tp1061
(Vdiym.ag
p1062
F0.00022602564113454292
tp1063
(Vdl.dropboxusercontent.com
p1064
F0.00018622810739933932
tp1065
tp1066
s((S'netdna-ssl.com'
p1067
tp1068
(ttp1069
((Vservermat.info
p1070
F0.015230253887760331
tp1071
(Vfinedininglovers.com
p1072
F0.007828688392923909
tp1073
(Vblog.myfitnesspal.com
p1074
F0.006571678856628307
tp1075
(Vvisual.ly
p1076
F0.005523052877933682
tp1077
(Vredrow.co.uk
p1078
F0.0054794740749505135
tp1079
(Vgrainandmortar.com
p1080
F0.005173594116386273
tp1081
(Vskillsera.com
p1082
F0.004438460562360511
tp1083
(Vblank-box.net
p1084
F0.003202477829561559
tp1085
(Vkls-ukraine.com.ua
p1086
F0.0026298015359082477
tp1087
(Vfinerthings.in
p1088
F0.002208584819772735
tp1089
(Vhostedcloudy.com
p1090
F0.001929990552717578
tp1091
(Vzino.im
p1092
F0.0017095925364803445
tp1093
(Vsram.com
p1094
F0.0015705995916889095
tp1095
(Vs1magnettvcom.maynemyltf.netdna-cdn.com
p1096
F0.0013414146062946583
tp1097
(Vhomepath.com
p1098
F0.0010985648416592306
tp1099
(Vagents.equator.com
p1100
F0.000992105542015471
tp1101
(Vnewhdplugin.net
p1102
F0.0006650805674776797
tp1103
(Virvsluggage.com
p1104
F0.0006295881279719576
tp1105
(Vcool-tv.net
p1106
F0.0006268836631248746
tp1107
(Vbettielou.blogspot.com
p1108
F0.0005037569778605635
tp1109
tp1110
s((S'linuxjournal.com'
p1111
tp1112
(ttp1113
((Vplay0ad.com
p1114
F0.007972660221054225
tp1115
(Vgrc.com
p1116
F0.00647141761691918
tp1117
(Vislametinfo.fr
p1118
F0.003816693772624731
tp1119
(Vmfrtech.com
p1120
F0.003299980133259979
tp1121
(Vstaceypageonline.com
p1122
F0.002611479327291582
tp1123
(Vweb.tiscali.it
p1124
F0.002206592194180113
tp1125
(Vvuenosairez.com
p1126
F0.002110189065787111
tp1127
(Vgoogleblog.blogspot.ca
p1128
F0.0021021366248038047
tp1129
(Viso.linuxquestions.org
p1130
F0.00205698044304996
tp1131
(Vapp.flowkey.com
p1132
F0.002010494615044506
tp1133
(Vlxer.com
p1134
F0.0017342140696928467
tp1135
(Vpubservice.com
p1136
F0.0016237614530817824
tp1137
(Vswtch.com
p1138
F0.0016066199103156131
tp1139
(Vlinuxformat.co.uk.hypestat.com
p1140
F0.0015858338656718014
tp1141
(Vthemukt.com
p1142
F0.0015653612543401665
tp1143
(Vandroidlista.com
p1144
F0.0015486774962675757
tp1145
(Vmakerzone.mathworks.com
p1146
F0.0014968938741111305
tp1147
(Vlinuxstory.org
p1148
F0.001406172434392643
tp1149
(Vlinuxine.com
p1150
F0.0014034815981275438
tp1151
(Vchili-tv.it
p1152
F0.0013159468347682625
tp1153
tp1154
s((S'alpha12.com'
p1155
tp1156
(ttp1157
(ts((S'alpha44.com'
p1158
tp1159
(ttp1160
(ts((S'theenchanter.com'
p1161
tp1162
(ttp1163
(ts((S'mashable.com'
p1164
tp1165
(ttp1166
((Vtechcrunch.com
p1167
F0.003269554441150279
tp1168
(Vthenextweb.com
p1169
F0.0020893059576553882
tp1170
(Vtheverge.com
p1171
F0.0011964644051488723
tp1172
(Vengadget.com
p1173
F0.0011541180149668715
tp1174
(Vwired.com
p1175
F0.0010062199169788152
tp1176
(Vt.co
p1177
F0.001000532665223137
tp1178
(Vgizmodo.com
p1179
F0.0008873288390789227
tp1180
(Vbusinessinsider.com
p1181
F0.0007152040206950399
tp1182
(Vdigg.com
p1183
F0.0005093257403694798
tp1184
(Vmacrumors.com
p1185
F0.00048813763950878304
tp1186
(Vfastcompany.com
p1187
F0.0004186323234047929
tp1188
(Varstechnica.com
p1189
F0.00036950639928100704
tp1190
(Vfeedly.com
p1191
F0.000247658170357474
tp1192
tp1193
s((S'alpha2.com'
p1194
tp1195
(ttp1196
((Valpharooms.com
p1197
F0.003697445800052664
tp1198
(Vsculpteo.com
p1199
F0.00044483632406326206
tp1200
(Vuk.pinterest.com
p1201
F1.5539860296655933e-05
tp1202
(Vimgur.com
p1203
F1.9443935627705352e-07
tp1204
(Vdrive.google.com
p1205
F2.224820992362993e-08
tp1206
tp1207
s((S'designtaxi.com'
p1208
tp1209
(ttp1210
((Vnaturpixel.com
p1211
F0.002525569674668886
tp1212
(Vresearch.facebook.com
p1213
F0.0024447558932316087
tp1214
(Vmrhyde.com
p1215
F0.002101027503719101
tp1216
(Vpurpleheart.org
p1217
F0.0015727754663803514
tp1218
(Vedpuzzle.com
p1219
F0.0014091455933541925
tp1220
(Vallenby-pratt.com
p1221
F0.0012811653560782217
tp1222
(Valiciavera.com
p1223
F0.0012265785229286553
tp1224
(Vtheinspiration.com
p1225
F0.0011984722954081271
tp1226
(Vmodernhousemagazine.com
p1227
F0.0011556103820603895
tp1228
(Vhaebc.com
p1229
F0.0011554678439678909
tp1230
(Vhep.eiz.jp
p1231
F0.0011284011989747447
tp1232
(Vsomethingcomics.tumblr.com
p1233
F0.001076472847460011
tp1234
(Vmensstyleadvice.com
p1235
F0.0010069390317375387
tp1236
(Vjobisjob.de
p1237
F0.0009852059176329467
tp1238
(Vassets.gecapital.com.au
p1239
F0.0009332437835811571
tp1240
(Vcreativereview.co.uk
p1241
F0.000928881838058707
tp1242
(Vzombiesamurai.pl
p1243
F0.0009227463467303423
tp1244
(Vecsediekszer.hu
p1245
F0.0008745579998976046
tp1246
(Vkarne.pl
p1247
F0.0008697854085080444
tp1248
(Vilghirlandaio.com
p1249
F0.000848768909519732
tp1250
tp1251
s((S'alpha41.com'
p1252
tp1253
(ttp1254
(ts((S'alpha25.com'
p1255
tp1256
(ttp1257
(ts((S'diveintopython.net'
p1258
tp1259
(ttp1260
((Vluisartola.com
p1261
F0.01308713593306666
tp1262
(Vlearn.gramener.com
p1263
F0.0066802362512468775
tp1264
(Vdjango-chinese-docs-14.readthedocs.org
p1265
F0.006255710972095312
tp1266
(Vlignos.org
p1267
F0.003607044345427541
tp1268
(Vdocs.python.org
p1269
F0.0029514139252664086
tp1270
(Vdiveintopython3.net
p1271
F0.0024584698132149164
tp1272
(Vscipy.org
p1273
F0.00233695159956468
tp1274
(Vcalazan.com
p1275
F0.0018844901747393514
tp1276
(Vconnexus-jjm.appspot.com
p1277
F0.0016320116054158607
tp1278
(Vtour-sz.com
p1279
F0.0015841490518749704
tp1280
(Vsagemath.org
p1281
F0.0013459797709473023
tp1282
(Vapp.azendoo.com
p1283
F0.001330340715038685
tp1284
(Vgit.crl.vecna.com
p1285
F0.0011964902951342728
tp1286
(Vtechprom.ru
p1287
F0.0011357111225529769
tp1288
(Vmozgovipc.blogspot.co.il
p1289
F0.0008450978246330817
tp1290
(Vcforbeginners.com
p1291
F0.0006691024343003037
tp1292
(Vquality.mozilla.org
p1293
F0.0006626145240006626
tp1294
(Vvipod.ecommtools.com
p1295
F0.0006560723137483598
tp1296
(Vtrac.kit-xxi.com.ua
p1297
F0.0006007910415380251
tp1298
(Vwoodpecker.org.cn
p1299
F0.0005948740571413293
tp1300
tp1301
s((S'alpha26.com'
p1302
tp1303
(ttp1304
(ts((S'alpha49.com'
p1305
tp1306
(ttp1307
(ts((S'bleepingcomputer.com'
p1308
tp1309
(ttp1310
((Vforums.malwarebytes.org
p1311
F0.014133110558044844
tp1312
(Vtoolslib.net
p1313
F0.009604761097288106
tp1314
(Vforums.techguy.org
p1315
F0.005599808649726676
tp1316
(Veasylist.adblockplus.org
p1317
F0.005464288494238814
tp1318
(Vforum.avast.com
p1319
F0.0023284922428071543
tp1320
(Vcommunity.mcafee.com
p1321
F0.002115762450095909
tp1322
(Vsupportatalliance.zendesk.com
p1323
F0.0018201070593856425
tp1324
(Vcombofix.org
p1325
F0.0017738837446607918
tp1326
(Vcomment-supprimer.com
p1327
F0.0017606388173824258
tp1328
(Vsurfright.nl
p1329
F0.0010393969965511157
tp1330
(Vcome-eliminare.com
p1331
F0.0008058871889142518
tp1332
(Vsupport.bullguard.com
p1333
F0.0006765552464745129
tp1334
(Vanswers.avira.com
p1335
F0.0006701063889255314
tp1336
(Vnonags.com
p1337
F0.0006179254116133074
tp1338
(Vforum.eset.com
p1339
F0.0006131790797156976
tp1340
(Vbroker4.gotoassist.com
p1341
F0.0005442813345531518
tp1342
(Vspywarefri.dk
p1343
F0.0004931542110596758
tp1344
tp1345
s((S'alpha11.com'
p1346
tp1347
(ttp1348
(ts((S'eksisozluk.com'
p1349
tp1350
(ttp1351
((Vradikal.com.tr
p1352
F0.0068966636038099716
tp1353
(Valkislarlayasiyorum.com
p1354
F0.005805885367388333
tp1355
(Vntvspor.net
p1356
F0.004710690766242146
tp1357
(Vhurriyet.com.tr
p1358
F0.004449236766384042
tp1359
(Vntvmsnbc.com
p1360
F0.004045211870764205
tp1361
(Vmilliyet.com.tr
p1362
F0.003908397864827673
tp1363
(Vrerererarara.net
p1364
F0.0038136682399826176
tp1365
(Vitusozluk.com
p1366
F0.0037077018061633126
tp1367
(Vforum.donanimhaber.com
p1368
F0.0036240961003998016
tp1369
(Vonedio.com
p1370
F0.0019602389998414882
tp1371
(Vt24.com.tr
p1372
F0.001171254414377725
tp1373
tp1374
s((S'runnable.com'
p1375
tp1376
(ttp1377
(ts((S'overapi.com'
p1378
tp1379
(ttp1380
((Vapis.pw
p1381
F0.007200668343131401
tp1382
(Vtroy.labs.daum.net
p1383
F0.00701409345452805
tp1384
(V121down.com
p1385
F0.005797076194085878
tp1386
(Vbullium.com
p1387
F0.005647792665666607
tp1388
(Vpittalis.hostings.co.uk
p1389
F0.005007780530559443
tp1390
(Vwebmail.garmin.com
p1391
F0.004804957073805288
tp1392
(Vbumpsdocumentarily.squarespace.com
p1393
F0.004158373405198481
tp1394
(Vorays.wd-works.com
p1395
F0.004110381077529567
tp1396
(Vbootgraph.net
p1397
F0.004030362627239939
tp1398
(Vredmine.infogene.fr
p1399
F0.0034291946192749156
tp1400
(Vmitarbeiter.hs-heilbronn.de
p1401
F0.003285460978893482
tp1402
(Vnote-pad.net
p1403
F0.0032399080437864043
tp1404
(Vupsideos.com
p1405
F0.0032079887740138428
tp1406
(Vscm.ulster.ac.uk
p1407
F0.002922858853657464
tp1408
(Vibmwebsphereportalserver.blogspot.pt
p1409
F0.0026748188381356852
tp1410
(Vytub3.com
p1411
F0.0026007381348067253
tp1412
(Vvertical3w.teamwork.com
p1413
F0.002595337661272785
tp1414
(Vfindpatent.ru
p1415
F0.0025676768503163972
tp1416
(Vcheat-sheets.org
p1417
F0.0022810455972986374
tp1418
(Vlocaltest.me
p1419
F0.002195967292517345
tp1420
tp1421
s((S'meditation.com'
p1422
tp1423
(ttp1424
((Vmedication.com
p1425
F0.015265354800238521
tp1426
(Vhoroscopedays.com
p1427
F0.0001161929383741703
tp1428
(Vbrilliant.org
p1429
F6.724553867879327e-05
tp1430
(Vamharicmovies.com
p1431
F5.362787984026289e-05
tp1432
(Vlequipe.fr
p1433
F7.816310148203357e-07
tp1434
(Ven.wikipedia.org
p1435
F5.252421832353988e-08
tp1436
(Vsearch.ask.com
p1437
F3.7740381291546105e-08
tp1438
(Vgoogle.ca
p1439
F3.648383286054617e-08
tp1440
(Vreddit.com
p1441
F1.058890587253285e-08
tp1442
(Vgoogle.co.in
p1443
F3.669238772897556e-09
tp1444
(Vfacebook.com
p1445
F1.5397755423834308e-09
tp1446
tp1447
s((S'alpha48.com'
p1448
tp1449
(ttp1450
(ts((S'taskrabbit.com'
p1451
tp1452
(ttp1453
(ts((S'bing.com'
p1454
tp1455
(ttp1456
((Vmsn.com
p1457
F0.016635658217342388
tp1458
(Vtrovi.com
p1459
F0.016555075479974354
tp1460
(Vbaidu.com
p1461
F0.003273251804980637
tp1462
(Vyahoo.com
p1463
F0.0027715540810384367
tp1464
(Vapps.facebook.com
p1465
F0.001965248831657405
tp1466
(Vamazon.com
p1467
F0.001769528353985467
tp1468
(Vyoutube.com
p1469
F0.0016330581196150912
tp1470
(Vistart.webssearches.com
p1471
F0.0016193109759660585
tp1472
(Vwww-search.net
p1473
F0.0015684668097458295
tp1474
(Vgoogle.com
p1475
F0.0015435173690071886
tp1476
(Vsearch.safefinder.com
p1477
F0.0015014238507027663
tp1478
(Vwebsearch.calcitapp.info
p1479
F0.0010834036777905153
tp1480
(Vcr2.gogorithm.com
p1481
F0.0010569179030244548
tp1482
(Vistart123.com
p1483
F0.0009062105420444925
tp1484
(Vreddit.com
p1485
F0.0008460113039214405
tp1486
(Vmystartsearch.com
p1487
F0.0008281261084001494
tp1488
tp1489
s((S'usenet.org'
p1490
tp1491
(ttp1492
(ts((S'quirksmode.org'
p1493
tp1494
(ttp1495
(ts((S'apreche.net'
p1496
tp1497
(ttp1498
((Vtenprinthello.ca
p1499
F0.04867890147077964
tp1500
(Vblog.mathieu-leplatre.info
p1501
F0.014435324087178035
tp1502
(Vmichal.karzynski.pl
p1503
F0.005433674600008864
tp1504
(Vcafehayek.com
p1505
F0.0005601225679972324
tp1506
(Vmtgoacademy.com
p1507
F0.00023374712685823236
tp1508
(Vknowledge.rapidssl.com
p1509
F0.00020115021349352203
tp1510
(Vbitnami.com
p1511
F2.8252108521334497e-05
tp1512
(Vhelp.github.com
p1513
F1.3902984970873247e-05
tp1514
tp1515
s((S'youtu.be'
p1516
tp1517
(ttp1518
((Vyoutube.be
p1519
F0.002327771504181619
tp1520
(Vuses.myherbalife.com
p1521
F0.0022052491406921487
tp1522
(Vbahrammoshiri.com
p1523
F0.00120513846529179
tp1524
(Vsteerbiddersales.com
p1525
F0.0010856524094649729
tp1526
(Vexams.evinrude.com
p1527
F0.0009387105668307909
tp1528
(Vwww2.memehk.com
p1529
F0.000840664053480079
tp1530
(Vmemehk.com
p1531
F0.0006322798687984735
tp1532
(Vmissyusa.com
p1533
F0.0006279402146092168
tp1534
(Vfollovvme.com
p1535
F0.0004785133661676418
tp1536
(Vtubetamil.com
p1537
F0.0004547101225723085
tp1538
(Vfirstlegoleague.org
p1539
F0.0004278581860366056
tp1540
(Vk8mer.com
p1541
F0.00038935924897389785
tp1542
(Vblaulichtreporter.de
p1543
F0.0003442025800306291
tp1544
(Veasykart.it
p1545
F0.00034177048920407956
tp1546
(Vnerdapproved.com
p1547
F0.00033383098580019383
tp1548
(Vwieboldtv.de
p1549
F0.0003332203017659258
tp1550
(Vphumidrama.com
p1551
F0.00032757148580445696
tp1552
(Vkilroynews.net
p1553
F0.0003270797996804544
tp1554
(Vhelpdesk.tankionline.com
p1555
F0.0002683043007451439
tp1556
(Vsaintsfc.co.uk
p1557
F0.0002499477358238586
tp1558
tp1559
s((S'ynet.co.il'
p1560
tp1561
(ttp1562
(ts((S'alpha51.com'
p1563
tp1564
(ttp1565
(ts((S'alpha1.com'
p1566
tp1567
(ttp1568
((Vtheaudience.com
p1569
F0.009694201243497019
tp1570
tp1571
s((S'tutorialspoint.com'
p1572
tp1573
(ttp1574
((Vwiki.python.org
p1575
F0.005812159708003393
tp1576
(Vtutorialpoint.com
p1577
F0.0021775165351430943
tp1578
(Vjavatpoint.com
p1579
F0.001968934012532698
tp1580
(Vhexvolt.blogspot.ru
p1581
F0.0015654524915361316
tp1582
(Verhvervsakademisydvest.sharepoint.com
p1583
F0.0010571098842477162
tp1584
(Vrallydev.com
p1585
F0.0007445860040062963
tp1586
(Vcprogramming.com
p1587
F0.0006934952073382222
tp1588
(Vebooks-it.org
p1589
F0.0006203165820055927
tp1590
(Vmkyong.com
p1591
F0.0005062963910686054
tp1592
(Vlardoors.ru
p1593
F0.00048065709207179333
tp1594
(Vstudytonight.com
p1595
F0.00044009319580119765
tp1596
(Vhomeandlearn.co.uk
p1597
F0.00042920870144858323
tp1598
(Vhub.attask.com
p1599
F0.00041461175045723575
tp1600
(Vfhict.nl
p1601
F0.0003724732036863049
tp1602
(Vbatman.jamk.fi
p1603
F0.00035189190319527444
tp1604
(Vservices.brics.dk
p1605
F0.00034668114031273604
tp1606
(Vjava2s.com
p1607
F0.0003430930183514621
tp1608
(Vncvps.blackboard.com
p1609
F0.00033488728945250517
tp1610
(Vforum-alsacetech.org
p1611
F0.00031760909843814436
tp1612
(Vvogella.com
p1613
F0.0003130399033593343
tp1614
tp1615
s((S'ruby-doc.org'
p1616
tp1617
(ttp1618
((Vruby-lang.org
p1619
F0.013201199696001907
tp1620
(Vruby-forum.com
p1621
F0.008747609502763641
tp1622
(Vrubymonk.com
p1623
F0.0066763845359754164
tp1624
(Vapi.rubyonrails.org
p1625
F0.005878717500206361
tp1626
(Vpine.fm
p1627
F0.0024445864869402467
tp1628
(Vrubydoc.info
p1629
F0.0018924510596828913
tp1630
(Vpb.vanburg.ru
p1631
F0.0016634643017226075
tp1632
(Vcodewars.com
p1633
F0.0013226159920880281
tp1634
(Vfabricationgem.org
p1635
F0.0012286729167879811
tp1636
(Vrubydocs.org
p1637
F0.0012119574037700268
tp1638
(Vapidock.com
p1639
F0.0010269281121975656
tp1640
(Vmootools.net
p1641
F0.0009992932546863443
tp1642
(Vblog.remarkablelabs.com
p1643
F0.0008252490196022697
tp1644
(Valexa.bitmakerlabs.com
p1645
F0.0008213445688254505
tp1646
(Vbloc.io
p1647
F0.0008046723518956768
tp1648
(Vtlk.io
p1649
F0.0008028277194664875
tp1650
(Vit-ebooks-search.info
p1651
F0.0007187965547440323
tp1652
(Vrailstutorial.org
p1653
F0.0006903101397194037
tp1654
(Vget.wynk.in
p1655
F0.000643192538966548
tp1656
(Vhorizon.launchacademy.com
p1657
F0.0006275973357841288
tp1658
tp1659
s((S'cappuccino.org'
p1660
tp1661
(ttp1662
(ts((S'localhost.'
p1663
tp1664
(ttp1665
(ts((S'verou.me'
p1666
tp1667
(ttp1668
(ts((S'sqlite.org'
p1669
tp1670
(ttp1671
(ts((S'amazon.com'
p1672
tp1673
(ttp1674
((Vebay.com
p1675
F0.006738821250621747
tp1676
(Vslickdeals.net
p1677
F0.004120650473717563
tp1678
(Vbestbuy.com
p1679
F0.0030788964220882925
tp1680
(Vwalmart.com
p1681
F0.003050477312560511
tp1682
(Vnewegg.com
p1683
F0.002798296769576636
tp1684
(Vnetflix.com
p1685
F0.0024294274563549496
tp1686
(Vreddit.com
p1687
F0.002175753691217573
tp1688
(Vgoogle.com
p1689
F0.001391784985509667
tp1690
(Vhulu.com
p1691
F0.0011102072873126314
tp1692
(Vblackfriday.com
p1693
F0.0008052288786513178
tp1694
(Vus-mg6.mail.yahoo.com
p1695
F0.000766715618933907
tp1696
(Vtarget.com
p1697
F0.0007593360528991675
tp1698
(Ven.wikipedia.org
p1699
F0.0005814582312035169
tp1700
(Vgoodreads.com
p1701
F0.000495839687204871
tp1702
tp1703
s((S'ask.fm'
p1704
tp1705
(ttp1706
((Vapi.twitter.com
p1707
F0.0038719768085425585
tp1708
(Vinstagram.com
p1709
F0.0035201162759656564
tp1710
(Vsprashivai.ru
p1711
F0.0022410229396287156
tp1712
(Vdraugiem.lv
p1713
F0.0016981704734718584
tp1714
(Vosu.ppy.sh
p1715
F0.0011900555365722462
tp1716
(Vvk.com
p1717
F0.0010733686607157825
tp1718
(Vphotoblog.pl
p1719
F0.0009434860247498849
tp1720
(Vfacebook.com
p1721
F0.0007897221642810317
tp1722
(Voauth.vk.com
p1723
F0.0004924653958516431
tp1724
(Vm.vk.com
p1725
F0.000447875040448687
tp1726
(Vficbook.net
p1727
F0.0002781688076100809
tp1728
(Vgoogle.com.eg
p1729
F0.0002763304753074731
tp1730
(Vtumblr.com
p1731
F0.00026120886529040424
tp1732
(Vgoogle.pl
p1733
F0.00022167104852053066
tp1734
(Vplurk.com
p1735
F0.00020680246864649752
tp1736
(Vbezuzyteczna.pl
p1737
F0.00020554866267027548
tp1738
tp1739
s((S'alpha13.com'
p1740
tp1741
(ttp1742
(ts((S'brentozar.com'
p1743
tp1744
(ttp1745
(ts((S'rubybestpractices.com'
p1746
tp1747
(ttp1748
(ts((S'alpha52.com'
p1749
tp1750
(ttp1751
(ts((S'adobe.com'
p1752
tp1753
(ttp1754
((Vmozilla.org
p1755
F0.015111450175616077
tp1756
(Vapps.facebook.com
p1757
F0.0059619678680743506
tp1758
(Vfilehippo.com
p1759
F0.004900062455243954
tp1760
(Vacrobat.com
p1761
F0.004836207731470023
tp1762
(Vshell.windows.com
p1763
F0.004715263584245032
tp1764
(Vfb1.farm2.zynga.com
p1765
F0.004637787853163249
tp1766
(Vsupport.google.com
p1767
F0.0037578816140994334
tp1768
(Vthanks.freesoftstore.com
p1769
F0.002328482156562959
tp1770
(Vupdate1024.com
p1771
F0.0013898408960056395
tp1772
(Vthanks.freesoftstore2.com
p1773
F0.0013255858152199373
tp1774
(Vowl.english.purdue.edu
p1775
F0.0013105499640232714
tp1776
(Veasyjet.com
p1777
F0.0007198307701079823
tp1778
(Vmacromedia.com
p1779
F0.0006869022921899767
tp1780
(Vsecure.sarsefiling.co.za
p1781
F0.0006844256605296551
tp1782
tp1783
s((S'wikipedia.org'
p1784
tp1785
(ttp1786
((Vencrypted.google.com
p1787
F0.00771525505585607
tp1788
(Vbing.com
p1789
F0.004811910265206266
tp1790
(Vanswers.yahoo.com
p1791
F0.003100154798136046
tp1792
(Vsearch.disconnect.me
p1793
F0.0027486073979923428
tp1794
(Vprinceton.edu
p1795
F0.002546492596888385
tp1796
(Vimdb.com
p1797
F0.0020199007621722297
tp1798
(Vboards.4chan.org
p1799
F0.0011714401370427696
tp1800
(Veksisozluk.com
p1801
F0.001109914847106986
tp1802
(Vduckduckgo.com
p1803
F0.0010408949383171428
tp1804
(Vreddit.com
p1805
F0.000775024669043505
tp1806
(Vwen.lu
p1807
F0.0007574262961416565
tp1808
(Vraterhub.com
p1809
F0.00044425107955377627
tp1810
(Vbaike.baidu.com
p1811
F0.00035421615396662187
tp1812
tp1813
s((S'twitter.com'
p1814
tp1815
(ttp1816
((Vinstagram.com
p1817
F0.009640668836346135
tp1818
(Vfacebook.com
p1819
F0.005754900727130478
tp1820
(Vtumblr.com
p1821
F0.005717088994814716
tp1822
(Vtwitch.tv
p1823
F0.005152529468333346
tp1824
(Vreddit.com
p1825
F0.004914842497878588
tp1826
(Vask.fm
p1827
F0.004444513960399476
tp1828
(Vlinkedin.com
p1829
F0.003428389609628508
tp1830
(Vyoutube.com
p1831
F0.0033467710833313545
tp1832
(Vgoogle.co.jp
p1833
F0.0017641893086358437
tp1834
(Vespn.go.com
p1835
F0.001334680555584708
tp1836
(Vvk.com
p1837
F0.0008567391042836494
tp1838
(Vgoogle.com.tr
p1839
F0.0008184359701507858
tp1840
tp1841
s((S'alpha16.com'
p1842
tp1843
(ttp1844
(ts((S'google.com'
p1845
tp1846
(ttp1847
(ts((S'coursera.org'
p1848
tp1849
(ttp1850
((Vcourses.edx.org
p1851
F0.005682409218958396
tp1852
(Vudacity.com
p1853
F0.0032743153315409304
tp1854
(Vcodeskulptor.org
p1855
F0.002716798767326224
tp1856
(Vedx.org
p1857
F0.002345213620656822
tp1858
(Vmooc.guokr.com
p1859
F0.001304445694573597
tp1860
(Vudemy.com
p1861
F0.0012989515229204602
tp1862
(Vcodecademy.com
p1863
F0.001094793903822028
tp1864
(Vfuturelearn.com
p1865
F0.001069718425067974
tp1866
(Vd396qusza40orc.cloudfront.net
p1867
F0.0009671142040794794
tp1868
(Vmysliderule.com
p1869
F0.0006418503366131907
tp1870
(Vmiriadax.net
p1871
F0.0006400923571775631
tp1872
(Vocw.mit.edu
p1873
F0.0005196729488418822
tp1874
(Vonline.stanford.edu
p1875
F0.0004266295741752318
tp1876
(V1point3acres.com
p1877
F0.00034809050272295626
tp1878
tp1879
s((S'pcworld.com'
p1880
tp1881
(ttp1882
((Vpcmag.com
p1883
F0.0160570091461598
tp1884
(Vmaximumpc.com
p1885
F0.00604172486689136
tp1886
(Vovermanforum.com
p1887
F0.005006690152892461
tp1888
(Vliliputing.com
p1889
F0.003723307465314178
tp1890
(Vcnet.com
p1891
F0.0026935050431359524
tp1892
(Vzdnet.com
p1893
F0.0025231801921726843
tp1894
(Vfreewarefiles.com
p1895
F0.0022220346213923654
tp1896
(Vcomputerworld.com
p1897
F0.002161598910721406
tp1898
(Vtechlife.net
p1899
F0.0011621989063103498
tp1900
(Vextremetech.com
p1901
F0.0010303279710813453
tp1902
(Vsystweak.cleverbridge.com
p1903
F0.0009571076966246342
tp1904
(Vinfo.merrick.com
p1905
F0.0004782695306837402
tp1906
tp1907
s((S'beta3.com'
p1908
tp1909
(ttp1910
((Vsearch.smartshopping.com
p1911
F1.0572516976406806e-07
tp1912
tp1913
s((S'puzzlescript.net'
p1914
tp1915
(ttp1916
(ts((S'falsepositivecomic.com'
p1917
tp1918
(ttp1919
((Vshawntionary.com
p1920
F0.00950097050911996
tp1921
(Vplox-comic.com
p1922
F0.005055740324931485
tp1923
(Vthezombiehunters.com
p1924
F0.004297320866180845
tp1925
(Vscottystudios.wix.com
p1926
F0.0025771330119156205
tp1927
(Vseiyuucrush.net
p1928
F0.0017266131222597291
tp1929
(Vnucat.org
p1930
F0.0016811228741404173
tp1931
(Vjasoncomic.smackjeeves.com
p1932
F0.0013182548675450094
tp1933
(Vcotn.smackjeeves.com
p1934
F0.001298239001612329
tp1935
(Vbargainbooze.co.uk
p1936
F0.0010663136800691266
tp1937
(Valwaysraininghere.com
p1938
F0.0008211378906814985
tp1939
(V2tamburlaine.tumblr.com
p1940
F0.000757251035862266
tp1941
(Vimaginetheending.net
p1942
F0.0007409582127528695
tp1943
(Vwebhost.iu.edu
p1944
F0.0007157246557888859
tp1945
(Vmushamushcomic.com
p1946
F0.0006893031210474807
tp1947
(Vwebcomicoverlook.com
p1948
F0.0006864773672945343
tp1949
(Vkryzyswieku.blogspot.com
p1950
F0.0005957158940029584
tp1951
(Vemcarroll.com
p1952
F0.00044374567252334447
tp1953
(Vthreepanelsoul.com
p1954
F0.00041635285333750666
tp1955
(Vlimbero.org
p1956
F0.00012929973880895435
tp1957
(Vsmbc-comics.com
p1958
F5.923018782407604e-05
tp1959
tp1960
s((S'alpha22.com'
p1961
tp1962
(ttp1963
(ts((S'outlook.com'
p1964
tp1965
(ttp1966
((Vlogin.microsoftonline.com
p1967
F0.00902777041728998
tp1968
(Vmail.office365.com
p1969
F0.00900370815166812
tp1970
(Vlogin.wustl.edu
p1971
F0.004622911009971631
tp1972
(Vprodigy.msn.com
p1973
F0.004168393992927994
tp1974
(Vemail.osu.edu
p1975
F0.003624289186949393
tp1976
(Vt.prodigy.msn.com
p1977
F0.0034305096718851465
tp1978
(Vmy.jh.edu
p1979
F0.003292860959952708
tp1980
(Vqmail.qub.ac.uk
p1981
F0.0021183407644583385
tp1982
(Vmicrosoft.com
p1983
F0.001990757893535988
tp1984
(Vemail.uiowa.edu
p1985
F0.0015376630396296204
tp1986
(Vdur.ac.uk
p1987
F0.0014129783795088712
tp1988
(Vheelmail.unc.edu
p1989
F0.0013699234102888742
tp1990
tp1991
s((S'blogspot.com'
p1992
tp1993
(ttp1994
((Vassemblagemagazine.blogspot.co.uk
p1995
F0.006541988631317168
tp1996
(Vm5newsroom.blogspot.com
p1997
F0.004036872954197155
tp1998
(Vynotdownload.blogspot.fr
p1999
F0.0022117442599623263
tp2000
(Vmthplay.blogspot.com
p2001
F0.0020413221935465056
tp2002
(Vhamidrezashaabani.blogspot.com
p2003
F0.0019204729711661645
tp2004
(Vaufannada.blogspot.com
p2005
F0.0017903645833333333
tp2006
(Vbpi.fr
p2007
F0.0017869947498546654
tp2008
(Vesmor.blogspots.com
p2009
F0.00178335979137614
tp2010
(Vnasirabdulsattar.blogspot.com
p2011
F0.0015214354157980588
tp2012
(Vblogdauyeu.blogspot.com
p2013
F0.0015159288469955333
tp2014
(Vnetnam.vn
p2015
F0.0015090202188512115
tp2016
(Vncngame.blogspot.com
p2017
F0.0015063179670179727
tp2018
(Vm88vn.com
p2019
F0.001409084418436105
tp2020
(Vmncshop.co.id
p2021
F0.001362530038324371
tp2022
(Vmywardrobesl.blogspot.com
p2023
F0.0011306262301520825
tp2024
(Vshishology.blogspot.com
p2025
F0.0010837903091795939
tp2026
(Vkaka1951989.blogspot.com
p2027
F0.0010813764505062807
tp2028
(Vblogspots.com
p2029
F0.0010752472369247685
tp2030
(Vapp-vn.blogspot.com
p2031
F0.0010721612178382198
tp2032
(Vchoukngok.blogspot.com
p2033
F0.0010719783990852125
tp2034
tp2035
s((S'lifehacker.com'
p2036
tp2037
(ttp2038
(ts((S'similarweb.com'
p2039
tp2040
(ttp2041
(ts((S'beta1.com'
p2042
tp2043
(ttp2044
(ts((S'bankrate.com'
p2045
tp2046
(ttp2047
((Vmortgagecalculator.org
p2048
F0.003674986761427938
tp2049
(Vbanrate.com
p2050
F0.0024237581029067125
tp2051
(Voptimalblue.com
p2052
F0.0014267289259495735
tp2053
(Vquickenloans.com
p2054
F0.0012738188802054122
tp2055
(Vw3.kubotalink.com
p2056
F0.001263829190928985
tp2057
(Vhsh.com
p2058
F0.0012327096241926128
tp2059
(Vfreddiemac.com
p2060
F0.0011495189740705278
tp2061
(Vmortgagenewsdaily.com
p2062
F0.00083906765896721
tp2063
(Vdealerdaily.toyota.com
p2064
F0.000807919706891282
tp2065
(Vbakrate.com
p2066
F0.000734880820206442
tp2067
(Vjobs.alpineaccess.com
p2068
F0.0006636771653698376
tp2069
(Vuiccu.mortgagewebcenter.com
p2070
F0.0005437095103291574
tp2071
(Vlendingtree.com
p2072
F0.0005310374295979765
tp2073
(Vcreditcards.com
p2074
F0.0005299372151525152
tp2075
(Vfranklinfirstfinancial.com
p2076
F0.0005052295897674785
tp2077
(Vfreemoneyfinance.com
p2078
F0.0004901845049979707
tp2079
(Vfoundationsu.com
p2080
F0.0004821683800864459
tp2081
(Vtrc.taboola.com
p2082
F0.00047723627944017615
tp2083
(Vcrm.studentloanhelp.info
p2084
F0.0004618004691505321
tp2085
(Vnerdwallet.com
p2086
F0.00043990024211160443
tp2087
tp2088
s((S'labnol.org'
p2089
tp2090
(ttp2091
((Vdictation.io
p2092
F0.053638048227418224
tp2093
(Vshoutmeloud.com
p2094
F0.006330967493765026
tp2095
(Vchandigarh.craigslist.co.in
p2096
F0.005956020018352308
tp2097
(Vctrlq.org
p2098
F0.003126295253718603
tp2099
(Vsoftwarerecs.stackexchange.com
p2100
F0.0024987468507650713
tp2101
(Vwarriorbreak.com
p2102
F0.0018003759225045986
tp2103
(Vdavidwalsh.name
p2104
F0.0017453391136774254
tp2105
(Vchillingeffects.org
p2106
F0.0010805928441890496
tp2107
(Vbocktherobber.com
p2108
F0.0010176242920439393
tp2109
(Vdeadurl.com
p2110
F0.0009012318677442234
tp2111
(Vcrack-net.com
p2112
F0.0008675788308667134
tp2113
(Vacessotop.semanatopenem.com
p2114
F0.0008457425669831452
tp2115
(Vplaytool.com
p2116
F0.000833971133323157
tp2117
(Vblog.teamtreehouse.com
p2118
F0.0007845697379048289
tp2119
(Vscript.google.com
p2120
F0.000775616447790688
tp2121
(Vcurso.aspasl.com
p2122
F0.0007295140509111274
tp2123
(Vmuro.sk
p2124
F0.0007203143020910928
tp2125
(Vdigitalhubinc.com
p2126
F0.0006249173569437375
tp2127
(Vmeteoalarm.eu
p2128
F0.0006155205087474934
tp2129
(Vbazqux.com
p2130
F0.0006142111911626334
tp2131
tp2132
s((S'microsoft.com'
p2133
tp2134
(ttp2135
((Vaccount.live.com
p2136
F0.03392699089457
tp2137
(Vsupport.skype.com
p2138
F0.0035348837961288793
tp2139
(Vsupport.google.com
p2140
F0.0034552858349033064
tp2141
(Vaz307127.vo.msecnd.net
p2142
F0.0022238317607300075
tp2143
(Vbing.com
p2144
F0.0021814967174457966
tp2145
(Vinsider.windows.com
p2146
F0.0020978542030613587
tp2147
(Vsupport.mozilla.org
p2148
F0.0014405952463219156
tp2149
(Vshell.windows.com
p2150
F0.0009299673249284091
tp2151
(Vwunderlist.com
p2152
F0.000919005584821735
tp2153
(Vsupport.office.com
p2154
F0.0008910745265042753
tp2155
(Vmozilla.org
p2156
F0.0008072399269828862
tp2157
(Voffice.com
p2158
F0.0007969000993079764
tp2159
(Vportal.office.com
p2160
F0.0005823095407318863
tp2161
(Vjava.com
p2162
F0.0005101489984820142
tp2163
(Vmystartsearch.com
p2164
F0.0004853991371988819
tp2165
(Vmicrosoftstore.com
p2166
F0.0004429218660199628
tp2167
(Viegallery.com
p2168
F0.00043285860820947095
tp2169
tp2170
s((S'sitepoint.com'
p2171
tp2172
(ttp2173
((Vlearnable.com
p2174
F0.003775512545387916
tp2175
(Vtutsplus.com
p2176
F0.0018674564890191878
tp2177
(Vjquery4u.com
p2178
F0.0015746334577439493
tp2179
(Vsmashingmagazine.com
p2180
F0.0015285013069617425
tp2181
(Vphpdeveloper.org
p2182
F0.0009926448925364107
tp2183
(Vaskleo.com
p2184
F0.0007617632740019425
tp2185
(Vrockettheme.com
p2186
F0.0006841783339726206
tp2187
(Vohio.edu
p2188
F0.0006826065234712008
tp2189
(Vbaymard.com
p2190
F0.0005839645071941564
tp2191
(Vwfvrj.petrobras.com.br
p2192
F0.000577655622686037
tp2193
(Vflukeout.github.io
p2194
F0.0005158523372684569
tp2195
(Vcodeguide.hu
p2196
F0.0005057804575627206
tp2197
(Vdocs.angularjs.org
p2198
F0.0005039753917788309
tp2199
(Vrubyflow.com
p2200
F0.00047607335651278954
tp2201
(Vsocial.tesisquare.com
p2202
F0.0004735965093608097
tp2203
(Vmobility.synovus.com
p2204
F0.00046856522119488223
tp2205
(Vorder.sitepointmedia.com
p2206
F0.0004548368673123083
tp2207
(Vmanagewp.org
p2208
F0.00035966640079505813
tp2209
(Vapp.emailmeform.com
p2210
F0.0002865970293783667
tp2211
(Vhealthclubsystems.com
p2212
F0.0002705686531720551
tp2213
tp2214
s((S'alpha47.com'
p2215
tp2216
(ttp2217
(ts((S'history.com'
p2218
tp2219
(ttp2220
((Vaetv.com
p2221
F0.00798236133012671
tp2222
(Vthisdayinrock.com
p2223
F0.0037971496161920237
tp2224
(Vhistorynet.com
p2225
F0.0030760712668171076
tp2226
(Vdiscovery.com
p2227
F0.0021861770845481867
tp2228
(Von-this-day.com
p2229
F0.001472630734754977
tp2230
(Vtravelchannel.com
p2231
F0.001415992886466294
tp2232
(Vbiography.com
p2233
F0.0013597998334544566
tp2234
(Vunileverpc.com
p2235
F0.0012406136238727436
tp2236
(Voptimum.net
p2237
F0.0010563923348507547
tp2238
(Vdailyupliftingquotes.com
p2239
F0.000970086295744522
tp2240
(Vtodayinliterature.com
p2241
F0.0007611890843539773
tp2242
(Vmylifetime.com
p2243
F0.0007440318299485829
tp2244
(Vactivate.fox.com
p2245
F0.000740355482017051
tp2246
(Vwatchtveverywhere.com
p2247
F0.0007079766794187768
tp2248
(Vhistoryorb.com
p2249
F0.0006006680921527825
tp2250
(Vnationaldaycalendar.com
p2251
F0.0005802684968778012
tp2252
(Vushistory.org
p2253
F0.000472393245433172
tp2254
(Vmail.colton.k12.ca.us
p2255
F0.00046702853469422615
tp2256
(Vmyhatchets.haikulearning.com
p2257
F0.00035607368402211693
tp2258
tp2259
s((S'alpha33.com'
p2260
tp2261
(ttp2262
(ts((S'andismith.com'
p2263
tp2264
(ttp2265
(ts((S'alpha20.com'
p2266
tp2267
(ttp2268
(ts((S'jasonseifer.com'
p2269
tp2270
(ttp2271
((Vauto.pubtest.internal.33across.com
p2272
F0.01332036660478001
tp2273
(Vjuanpabloprado.com
p2274
F0.007676274719129683
tp2275
(Vpichost.me
p2276
F0.00024074733939569222
tp2277
(Vteamtreehouse.com
p2278
F0.00023630208318629474
tp2279
(Vmartinfowler.com
p2280
F8.655217132744378e-05
tp2281
(Vraindrop.io
p2282
F2.303324849420138e-05
tp2283
(Vdigitalocean.com
p2284
F5.704592440587661e-06
tp2285
(Vencrypted.google.com
p2286
F2.6578255453102915e-06
tp2287
(Vpivotaltracker.com
p2288
F8.601690807198737e-07
tp2289
(Vstackoverflow.com
p2290
F7.90829840897358e-07
tp2291
(Vb.hatena.ne.jp
p2292
F3.9690572298361973e-07
tp2293
(Vgithub.com
p2294
F8.47725944524667e-08
tp2295
tp2296
s((S'malwarebytes.org'
p2297
tp2298
(ttp2299
((Vsupport.mozilla.org
p2300
F0.002946039787681787
tp2301
(Vbleepingcomputer.com
p2302
F0.0023474999475237225
tp2303
(Vcomment-supprimer.com
p2304
F0.0018166374168833335
tp2305
(Vmalwaretips.com
p2306
F0.001629098375412804
tp2307
(Vcome-eliminare.com
p2308
F0.0015074407673850052
tp2309
(Varturogoga.com
p2310
F0.0012352271533589269
tp2311
(Vcommunity.norton.com
p2312
F0.0011850054985019177
tp2313
(Vcomo-eliminar.com
p2314
F0.001152007048775999
tp2315
(Vschoonepc.nl
p2316
F0.0010037166273452
tp2317
(V0427d7.se
p2318
F0.0009096205488029283
tp2319
(Vovermanforum.com
p2320
F0.0008884252668932268
tp2321
(Vsuperantispyware.com
p2322
F0.0007473313069392516
tp2323
(Vs.vgsgaming-ads.com
p2324
F0.0005204533027943224
tp2325
(Vforum.avast.com
p2326
F0.0004889239140342746
tp2327
(Vsecure.logmeinrescue.com
p2328
F0.00047870775669676827
tp2329
(Vkickass.to
p2330
F0.00037890471511992395
tp2331
(Vfile.net
p2332
F0.00035415702658305647
tp2333
tp2334
s((S'facebook.com'
p2335
tp2336
(ttp2337
(ts((S'optimalblue.com'
p2338
tp2339
(ttp2340
((Vcitrix.primelending.com
p2341
F0.01983806998658364
tp2342
(Vmyhome.ephmc.com
p2343
F0.016720531392230547
tp2344
(Vfidelitypassport.com
p2345
F0.01087249587963097
tp2346
(Vfwprodweb1.firstam.com
p2347
F0.008999345804891831
tp2348
(Vmbshighway.com
p2349
F0.006312007531425715
tp2350
(Vapp.mbslive.net
p2351
F0.006148799715304694
tp2352
(Vloanbright.com
p2353
F0.005486635184313487
tp2354
(Vcertmail.com
p2355
F0.004539485775908838
tp2356
(Vadmin.icanbuy.com
p2357
F0.004302288065316919
tp2358
(Vawh1-standard-v1.loankatalyst3.net
p2359
F0.004188018819862747
tp2360
(Vadvertiser.bankrate.com
p2361
F0.0039302373731837726
tp2362
(Vvalutrust.com
p2363
F0.003728968651207271
tp2364
(Vbayeq.sharepoint.com
p2365
F0.0033966070386933695
tp2366
(Vbestrateusa.com
p2367
F0.002661144791224875
tp2368
(Vmlive.benchmarklogin.com
p2369
F0.002634990218954017
tp2370
(Vadmin.mortgagedashboard.com
p2371
F0.002564102564102564
tp2372
(Vmandalaybay.com
p2373
F0.002411923893121066
tp2374
(Vlm.velocify.com
p2375
F0.0022535245289155587
tp2376
(Vsharepoint.alpinemc.com
p2377
F0.001958819698411903
tp2378
(Vgwrs.com
p2379
F0.001636530069401655
tp2380
tp2381
s((S'voormedia.com'
p2382
tp2383
(ttp2384
(ts((S'rubygems.org'
p2385
tp2386
(ttp2387
((Vruby-toolbox.com
p2388
F0.01206055779836604
tp2389
(Vpages.github.com
p2390
F0.004997034254860121
tp2391
(Vrubyonrails.org
p2392
F0.00481526387462105
tp2393
(Vdevelopers.openshift.com
p2394
F0.0023178570882459487
tp2395
(Vbundler.io
p2396
F0.0017670028284599824
tp2397
(Vinstallationpage.com
p2398
F0.0016151346055828053
tp2399
(Vomniref.com
p2400
F0.0015108649549913557
tp2401
(Vgemcutter.org
p2402
F0.0014802196734265347
tp2403
(Vmiddlemanapp.com
p2404
F0.0012486029365913092
tp2405
(Vpooreffort.com
p2406
F0.0009912181331515474
tp2407
(V55f84d03.ngrok.com
p2408
F0.000945100112700561
tp2409
(Vrubygems.globoi.com
p2410
F0.0008163334867154081
tp2411
(Vrailstutorial.org
p2412
F0.0007530830774446386
tp2413
(Vrollbar.com
p2414
F0.0007483487605642157
tp2415
(Vpaularmstrong.github.io
p2416
F0.000741369433165859
tp2417
(Vweblog.rubyonrails.org
p2418
F0.0007152577482385617
tp2419
(Vapp.zencoder.com
p2420
F0.0006750962082566099
tp2421
(Vrubydoc.info
p2422
F0.0006634105078797862
tp2423
(Vrelishapp.com
p2424
F0.0005654509471303364
tp2425
(Vruby-china.org
p2426
F0.000540025247740669
tp2427
tp2428
s((S'google.co.uk'
p2429
tp2430
(ttp2431
((Vbbc.co.uk
p2432
F0.015803661828799845
tp2433
(Vuk.search.yahoo.com
p2434
F0.015624271888821255
tp2435
(Vamazon.co.uk
p2436
F0.009254315963283003
tp2437
(Vebay.co.uk
p2438
F0.008528257560579584
tp2439
(Ven.wikipedia.org
p2440
F0.004255091317020974
tp2441
(Vreddit.com
p2442
F0.003980648583379911
tp2443
(Vdailymail.co.uk
p2444
F0.0038733698459187693
tp2445
(Vsearch.safefinder.com
p2446
F0.0028345322202820732
tp2447
(Vyoutube.com
p2448
F0.00276943281382409
tp2449
(Vtwitter.com
p2450
F0.002499320864991151
tp2451
(Vuk.msn.com
p2452
F0.0014519535531925948
tp2453
(Vaccounts.youtube.com
p2454
F0.0014106376960693401
tp2455
(Vtheguardian.com
p2456
F0.0012393448640209122
tp2457
(Vcr2.gogorithm.com
p2458
F0.001229652212371702
tp2459
tp2460
s((S'padolsey.com'
p2461
tp2462
(ttp2463
((Vpapagoarchery.com
p2464
F0.010473375849017473
tp2465
(Vvintagephotoboothnyc.com
p2466
F0.00996644957568581
tp2467
(Vwebmail.digitalgear.com
p2468
F0.007198731312699346
tp2469
(Vgod.richard.dev.xen.lan.expert-shops.com
p2470
F0.005221312448083541
tp2471
(Vfoaas.com
p2472
F0.005002293011606166
tp2473
(Vcnfeat.com
p2474
F0.00401750239583653
tp2475
(Vwifi.weixin.qq.com
p2476
F0.003792761744407321
tp2477
(Vfrontend.richard.dev.xen.lan.expert-shops.com
p2478
F0.0036325652028917203
tp2479
(Vjira.foryouandyourteam.com
p2480
F0.003233026610295946
tp2481
(Vicescrum.i-dalgo2.com
p2482
F0.003064895530648955
tp2483
(Vabgmanagementlimited.quickbase.com
p2484
F0.002340158796489762
tp2485
(Vsave-dep-mukku.blogspot.jp
p2486
F0.0023262142399424154
tp2487
(Vzero11.com.br
p2488
F0.0023032042085126734
tp2489
(Vwiki.s00.jp
p2490
F0.002212426322029087
tp2491
(Vozekisms.com
p2492
F0.0018377987713592483
tp2493
(Vzhangxinxu.com
p2494
F0.0016898954023123237
tp2495
(Vcvmlrobotics.blogspot.com
p2496
F0.0016786257882148291
tp2497
(Vredwoods.com
p2498
F0.0016160499719493919
tp2499
(Vrandomsnippets.com
p2500
F0.0013289677088390124
tp2501
(Vejohn.org
p2502
F0.0012231300524343327
tp2503
tp2504
s((S'reddit.com'
p2505
tp2506
(ttp2507
(ts((S'alpha9.com'
p2508
tp2509
(ttp2510
(ts((S'apidoc.com'
p2511
tp2512
(ttp2513
((Vapi.doc.com
p2514
F0.1111111111111111
tp2515
(Vapi.gehealthcare.com
p2516
F0.009782125389061804
tp2517
(Vapidock.com
p2518
F3.2379614904614277e-05
tp2519
tp2520
s((S'beta10.com'
p2521
tp2522
(ttp2523
(ts((S'alpha39.com'
p2524
tp2525
(ttp2526
(ts((S'tumblr.com'
p2527
tp2528
(ttp2529
((Vtwitter.com
p2530
F0.006112085907840489
tp2531
(Vinstagram.com
p2532
F0.004753110717257154
tp2533
(Vdeviantart.com
p2534
F0.003922446936560615
tp2535
(Vask.fm
p2536
F0.003470243156408712
tp2537
(Vpinterest.com
p2538
F0.002934967373398064
tp2539
(Varchiveofourown.org
p2540
F0.0028338961221619067
tp2541
(Vreddit.com
p2542
F0.002459523813375636
tp2543
(Vbuzzfeed.com
p2544
F0.0020751790462780494
tp2545
(Vboards.4chan.org
p2546
F0.0014313565391646883
tp2547
(Vnetflix.com
p2548
F0.001311766682809538
tp2549
(Vminecraft.net
p2550
F0.0010887049928781042
tp2551
(Vfanfiction.net
p2552
F0.0007048296964225392
tp2553
tp2554
s((S'beta4.com'
p2555
tp2556
(ttp2557
(ts((S'commonplacebooks.com'
p2558
tp2559
(ttp2560
((Vkramererik.deviantart.com
p2561
F0.015912611627483142
tp2562
(Vnightvale.libsyn.com
p2563
F0.004891842165512066
tp2564
(Vsickassbonedragon.tumblr.com
p2565
F0.004180983198229754
tp2566
(Vodpod.se
p2567
F0.003780363823003958
tp2568
(Vcommonplacebook.com
p2569
F0.002837868418316484
tp2570
(Vdisparition.info
p2571
F0.002731468399736272
tp2572
(Vsweetsweetlisteners.tumblr.com
p2573
F0.0027084135934344316
tp2574
(Vdiamond-wireless.com
p2575
F0.002443815934311913
tp2576
(Votterondeck.tumblr.com
p2577
F0.002334534271636531
tp2578
(Vtoplist.xyz
p2579
F0.0016374744497521202
tp2580
(Vhenrico.edmodo.com
p2581
F0.0014302764872409473
tp2582
(Vchinesedragons.sitedrop.com
p2583
F0.0014083237567317876
tp2584
(Vsteveandtony.co.vu
p2585
F0.0013530789544898894
tp2586
(Vjoinebookdownload.org
p2587
F0.001352967599131936
tp2588
(Vlib.westcler.org
p2589
F0.0012731587578044632
tp2590
(Vinnsmouthfreepress.com
p2591
F0.0012646249514863704
tp2592
(Vhun7ersgrove.blogspot.jp
p2593
F0.0010866510538641687
tp2594
(Vpodbay.fm
p2595
F0.0009363738590677165
tp2596
(Vdedicatedquill.blogspot.hu
p2597
F0.0009038352374496415
tp2598
(Vpaperalligator.com
p2599
F0.0008161978166708405
tp2600
tp2601
s((S'ruby-lang.org'
p2602
tp2603
(ttp2604
((Vcas-01.uni.ad.sunderland.ac.uk
p2605
F0.012872928541706572
tp2606
(Vref.xaio.jp
p2607
F0.004998883713543663
tp2608
(Vrubyforge.org
p2609
F0.003566180092713265
tp2610
(Vguides.ruby.tw
p2611
F0.0033659435810147755
tp2612
(Vopenshift.com
p2613
F0.003261580787297741
tp2614
(Vjemmywalker.pixnet.net
p2615
F0.0028971000803575207
tp2616
(Vblade.nagaokaut.ac.jp
p2617
F0.0024790205130732737
tp2618
(Vruby-auf-schienen.de
p2619
F0.0022711603195847024
tp2620
(Vrubyclub.blogspot.com
p2621
F0.0021561004694637754
tp2622
(Vhelp.rallydev.com
p2623
F0.002068458282306121
tp2624
(Vruby-doc.com
p2625
F0.0019892545575918353
tp2626
(Vrailsdoc.com
p2627
F0.0019050279129559802
tp2628
(Vtheadmin.org
p2629
F0.0019036383809625046
tp2630
(Vbebo.com
p2631
F0.0018038020923432463
tp2632
(Vpine.fm
p2633
F0.001572538640588942
tp2634
(Vsldn.softlayer.com
p2635
F0.0015296219648572567
tp2636
(Vrubyinstaller.org
p2637
F0.0015030799755354062
tp2638
(Vfoad.simplon.co
p2639
F0.0014549651702471815
tp2640
(Vrusrails.ru
p2641
F0.001415963079495097
tp2642
(Vcharliewaite.me
p2643
F0.001348086772597759
tp2644
tp2645
s((S'technion.ac.il'
p2646
tp2647
(ttp2648
(ts((S'github.io'
p2649
tp2650
(ttp2651
((Vlukecarbis.github.io
p2652
F0.019639527656929768
tp2653
(Vbuke.github.io
p2654
F0.013217398454201612
tp2655
(Vbriangordon.github.io
p2656
F0.009287699283311393
tp2657
(Vgpeyre.github.io
p2658
F0.008611401092566274
tp2659
(V6889692.github.io
p2660
F0.008225091134009764
tp2661
(Vmattsharpe.github.io
p2662
F0.00815808798985246
tp2663
(Vkalakuh.github.io
p2664
F0.007584589614740369
tp2665
(Vstevejwikeley.github.io
p2666
F0.00743578488101414
tp2667
(Vgovlab.github.io
p2668
F0.005946039187036417
tp2669
(Vlopezrj.github.io
p2670
F0.005642699636979904
tp2671
(Vrweather.github.io
p2672
F0.005466472303206997
tp2673
(Vharrydeluxe.github.io
p2674
F0.005292730375055698
tp2675
(Vfavoorr.github.io
p2676
F0.004616774648508087
tp2677
(Vthink2011.github.io
p2678
F0.004302731567056891
tp2679
(Vlxc-webpanel.github.io
p2680
F0.00421468554494567
tp2681
(Viamtrask.github.io
p2682
F0.003928938799817474
tp2683
(Vgit.github.io
p2684
F0.0037792006892635455
tp2685
(Vjakiestfu.github.io
p2686
F0.0036454348083036284
tp2687
(Vigorescobar.github.io
p2688
F0.0036386593204775024
tp2689
(Vwxfengyun.github.io
p2690
F0.0036010132128431577
tp2691
tp2692
s((S'alpha.com'
p2693
tp2694
(ttp2695
((Vflashmusictracks.com
p2696
F0.03084234066343645
tp2697
(Vveexinc.com
p2698
F0.02566152206439976
tp2699
(Valphayouthfilmseries.com
p2700
F0.01272843204485028
tp2701
(Valphagame.com
p2702
F0.012381591705825314
tp2703
(Vbedsdirect-ardmore.com
p2704
F0.007470136665633929
tp2705
(Vkk-alpha.com
p2706
F0.007401414359343161
tp2707
(Valphagroup.com
p2708
F0.007136390264685519
tp2709
(Vwearealpha.ca
p2710
F0.005797101449275362
tp2711
(Valfa.com
p2712
F0.004664162782205082
tp2713
(Vteluguweb.in
p2714
F0.003982892274792836
tp2715
(Vnoram-eng.com
p2716
F0.00393360081818897
tp2717
(Veshre.eu
p2718
F0.0037174721189591076
tp2719
(Vnewsumontheweb.org
p2720
F0.0036302495318888766
tp2721
(Vcheck-alpha.com
p2722
F0.0031749589122964292
tp2723
(Valfa-chemistry.com
p2724
F0.002835487213043241
tp2725
(Vsolarpowerrocks.com
p2726
F0.002806772470347807
tp2727
(Vkerryexpress.com
p2728
F0.0027217594622241706
tp2729
(Vlkp.com
p2730
F0.002395657870110425
tp2731
(Vcroline.com
p2732
F0.0017521257407884566
tp2733
(Vaksci.com
p2734
F0.0016539834760689266
tp2735
tp2736
s((S'scirra.com'
p2737
tp2738
(ttp2739
((Vc2community.ru
p2740
F0.007406235634299808
tp2741
(Vforums.tigsource.com
p2742
F0.006516674763500749
tp2743
(Vschwer-muta.blogspot.com
p2744
F0.0023252657005772242
tp2745
(Vwayofthepixel.net
p2746
F0.001771588111111012
tp2747
(Vblog.rubukkit.org
p2748
F0.001722506455389649
tp2749
(Vgamedev.ru
p2750
F0.00155671710308373
tp2751
(Velm-lang.org
p2752
F0.001454633678371806
tp2753
(Vkaamelott.co
p2754
F0.0014379499425883405
tp2755
(Vapp.mopub.com
p2756
F0.0013974901440273661
tp2757
(Vgame.9128.com
p2758
F0.001325856745272391
tp2759
(Vbases-hacking.org
p2760
F0.0012120643217503788
tp2761
(Va710594.byethost24.com
p2762
F0.0011639507815098104
tp2763
(Vyoyogames.com
p2764
F0.0010952749740584789
tp2765
(Vforums.wasabistudio.ca
p2766
F0.0010359152424912791
tp2767
(Velbitcoin.org
p2768
F0.0010213289204327799
tp2769
(Vstencyl.com
p2770
F0.0009509958272804534
tp2771
(Vfilmin.es
p2772
F0.000825167958358985
tp2773
(Vwowgame.jp
p2774
F0.0007702468672979726
tp2775
(Vcollaboration.swisscom.com
p2776
F0.0007476651600406859
tp2777
(Vfpl78.free.fr
p2778
F0.000719450980093071
tp2779
tp2780
s((S'chromium.org'
p2781
tp2782
(ttp2783
((Vdeveloper.chrome.com
p2784
F0.022100752027343448
tp2785
(Vjohnlewis.ie
p2786
F0.008052545533720222
tp2787
(Vimperialviolet.org
p2788
F0.004177426369874129
tp2789
(Vdownload-chromium.appspot.com
p2790
F0.004009500944262519
tp2791
(Vscotthelme.co.uk
p2792
F0.003532999099854658
tp2793
(Vcode.google.com
p2794
F0.002697460919000486
tp2795
(Vchromium.googlesource.com
p2796
F0.0020873460363834335
tp2797
(Vproductforums.google.com
p2798
F0.001335644399033382
tp2799
(Vwiki.archlinux.org
p2800
F0.0012934590063155952
tp2801
(Vkb.sitecore.net
p2802
F0.001156154586531049
tp2803
(Vblogmicrosoftbrasil.com.br
p2804
F0.0010548510155260927
tp2805
(Vexample.com
p2806
F0.0003803379258623619
tp2807
(Vdownloads.yahoo.com
p2808
F0.00034267692060830046
tp2809
(Vjava.com
p2810
F0.00031751464182818584
tp2811
(Vminutoms.com.br
p2812
F0.00029505951595761227
tp2813
(Vmattcutts.com
p2814
F0.0002391419420138638
tp2815
(Vgigaom.com
p2816
F0.00023660680057301445
tp2817
(Vcorom.vn
p2818
F0.00023047213023705282
tp2819
(Vvpnhelp.homeawaycorp.com
p2820
F0.0002284515048063452
tp2821
tp2822
s((S'spacerogue.net'
p2823
tp2824
(ttp2825
((Vhackernews.net
p2826
F0.024155455904334825
tp2827
(Vinfosyssec.com
p2828
F0.004150334332487894
tp2829
(Vhackernews.com
p2830
F0.0014944332361951729
tp2831
(Vcryptome.org
p2832
F0.00023388730759197143
tp2833
(Vthehackernews.com
p2834
F0.000122848694061342
tp2835
(Vveooz.com
p2836
F9.796456354560474e-05
tp2837
(Vfilterbypass.me
p2838
F7.876594125299797e-05
tp2839
(Vfiles.t-square.gatech.edu
p2840
F3.667372426806653e-05
tp2841
(Vassembla.com
p2842
F5.356854781678878e-06
tp2843
(Vtechcrunch.com
p2844
F2.394271525133206e-06
tp2845
(Vt.co
p2846
F4.0062931302635475e-07
tp2847
(Vstackoverflow.com
p2848
F3.5988874690424153e-07
tp2849
(Vnews.ycombinator.com
p2850
F3.0522565362431473e-07
tp2851
(Veksisozluk.com
p2852
F2.9312384389517315e-07
tp2853
(Vduckduckgo.com
p2854
F2.4303376673617145e-07
tp2855
(Vmashable.com
p2856
F2.337746074512313e-07
tp2857
(Vsnt146.mail.live.com
p2858
F9.130484595356827e-08
tp2859
(Vgoogle.com
p2860
F4.3152848834315e-08
tp2861
(Vgoogle.ca
p2862
F8.15280842751372e-09
tp2863
(Vfacebook.com
p2864
F4.5654615426760247e-10
tp2865
tp2866
s((S'alpha28.com'
p2867
tp2868
(ttp2869
(ts((S'walmart.com'
p2870
tp2871
(ttp2872
((Vtarget.com
p2873
F0.016191472243672674
tp2874
(Vwww2.onlinecreditcenter6.com
p2875
F0.01191700934366368
tp2876
(Vblackfriday.com
p2877
F0.008828973008072028
tp2878
(Vbestbuy.com
p2879
F0.007051185413925967
tp2880
(Vkmart.com
p2881
F0.004302594970420979
tp2882
(Vtoysrus.com
p2883
F0.004132935890938453
tp2884
(Vsamsclub.com
p2885
F0.003398453827899621
tp2886
(Vhiringcenter.walmartstores.com
p2887
F0.002464230730206549
tp2888
(Vr.befrugal.com
p2889
F0.002102698555986174
tp2890
(Vwalgreens.com
p2891
F0.0018930996132344058
tp2892
(Vshopping.paypal.com
p2893
F0.0012793019201361572
tp2894
(Vkohls.com
p2895
F0.001067534574161307
tp2896
(Vgamestop.com
p2897
F0.00098459925813377
tp2898
(Vamazon.com
p2899
F0.0009239514095817645
tp2900
tp2901
s((S'beta5.com'
p2902
tp2903
(ttp2904
(ts((S'alpha50.com'
p2905
tp2906
(ttp2907
(ts((S'python-requests.org'
p2908
tp2909
(ttp2910
((Vzhidaow.com
p2911
F0.009551755746611724
tp2912
(Vfreepythontips.wordpress.com
p2913
F0.006459608747061535
tp2914
(Vcrsmithdev.com
p2915
F0.003916645744413759
tp2916
(Vpythonforbeginners.com
p2917
F0.00257766774217122
tp2918
(Vdjrill.readthedocs.org
p2919
F0.002012919776840218
tp2920
(Vpypi.python.org
p2921
F0.0017488807041015017
tp2922
(Vsqlserverradio.co.il
p2923
F0.0015344216654011643
tp2924
(Vlftp.yar.ru
p2925
F0.0014730447987851177
tp2926
(Vcommunity.idolondemand.com
p2927
F0.0014134444923578169
tp2928
(Vlupaworld.com
p2929
F0.0012363183378873667
tp2930
(Vapi-help.campaigncommander.com
p2931
F0.0012157320254775146
tp2932
(Vcms.int.avast.com
p2933
F0.00106509819085949
tp2934
(V101skidka.slack.com
p2935
F0.001045992198313829
tp2936
(Vmy.itron.com
p2937
F0.0009469974323677864
tp2938
(Vgitlab.labs.nic.cz
p2939
F0.000788003055522052
tp2940
(Vcoupadev.atlassian.net
p2941
F0.0007800650703031773
tp2942
(Vctf.sobug.com
p2943
F0.0007446869450650168
tp2944
(Vpydoc.net
p2945
F0.0007438618658704967
tp2946
(Vcrummy.com
p2947
F0.0005123460621771358
tp2948
(Vhazel01.dot8.va.us.attask.com
p2949
F0.0004937072558779491
tp2950
tp2951
s((S'sixrevisions.com'
p2952
tp2953
(ttp2954
((Vforum.hangarnet.com.br
p2955
F0.004522612841241663
tp2956
(Viconpaper.org
p2957
F0.004388601429190374
tp2958
(Vpanosfx.com
p2959
F0.003981522100667729
tp2960
(Vliptonicetea.com
p2961
F0.0039197345769073555
tp2962
(Vtiny.cc
p2963
F0.003371601640395747
tp2964
(Vbohemian.curated.co
p2965
F0.003326202922179347
tp2966
(Vnoupe.com
p2967
F0.002781459432749324
tp2968
(Vvle-project.org
p2969
F0.002767415707556039
tp2970
(Vsixrevision.com
p2971
F0.0022085172602788606
tp2972
(Vbusiness.tutsplus.com
p2973
F0.0017757417437201713
tp2974
(Vforum.weavertheme.com
p2975
F0.0015203455783372938
tp2976
(Vtvgratishd.blogspot.com
p2977
F0.0015013110572595332
tp2978
(Vinflexwetrust.com
p2979
F0.0012838767727523452
tp2980
(Vsixminutes.dlugan.com
p2981
F0.001239579333077317
tp2982
(Vtricias-captions.tumblr.com
p2983
F0.0012110202845897668
tp2984
(Vsiteexplorer.info
p2985
F0.0010857132729947228
tp2986
(Vcommonplaces.com
p2987
F0.0010758741477450429
tp2988
(Vmongodbspain.com
p2989
F0.0010698474333738655
tp2990
(Vlanzateya.com
p2991
F0.0010386067653343092
tp2992
(Vfleischlust.com
p2993
F0.0009746657118920917
tp2994
tp2995
s((S'js2coffee.org'
p2996
tp2997
(ttp2998
((Vcoffeescript.org
p2999
F0.02403601296273028
tp3000
(Vmarkdotto.com
p3001
F0.005252514264432705
tp3002
(Vapi.jquery.com
p3003
F0.00357281252711641
tp3004
(Vtwitter.github.io
p3005
F0.0024109253293020856
tp3006
(Vfabricjs.com
p3007
F0.002098906052196327
tp3008
(Vatmospherejs.com
p3009
F0.0020051451935951983
tp3010
(Vpricemania.developer3.cz
p3011
F0.001954454153921506
tp3012
(Vinterone.de
p3013
F0.001889860252037865
tp3014
(Vbackbonejs.org
p3015
F0.0016524226073758618
tp3016
(Vshashankshetty.wordpress.com
p3017
F0.0015940524041622571
tp3018
(Vhtml2slim.herokuapp.com
p3019
F0.001486480127681469
tp3020
(Vplnkr.co
p3021
F0.001417112728794347
tp3022
(Vwebpack.github.io
p3023
F0.0013926971883895002
tp3024
(Vcoffeescriptlove.com
p3025
F0.0013925155542500076
tp3026
(Vsatellizer.herokuapp.com
p3027
F0.0013897405960784026
tp3028
(Vhtml2haml.herokuapp.com
p3029
F0.0012901440927272467
tp3030
(Vsearchdiscovery.com
p3031
F0.0012827879039783538
tp3032
(Vvisjs.org
p3033
F0.0012348514023426435
tp3034
(Vrightinbox.desk.com
p3035
F0.0011828622717916515
tp3036
(Vemberjs.jsbin.com
p3037
F0.0011601727623598602
tp3038
tp3039
s((S'spotad.co'
p3040
tp3041
(ttp3042
((Vinnolance.com
p3043
F0.002733964248159832
tp3044
(Vnewincite.com
p3045
F0.0021574973031283713
tp3046
(Vui.servesharp.net
p3047
F0.0003960637357950218
tp3048
(Vjira.millennialmedia.com
p3049
F0.00036140992389132194
tp3050
(Vmovinstream.com
p3051
F4.124136508918446e-05
tp3052
(Vhwzone.co.il
p3053
F1.7154933461951347e-05
tp3054
(Vsubtitle.co.il
p3055
F7.854194729049916e-06
tp3056
(Vlinkedin.com
p3057
F1.6123254398713075e-07
tp3058
(Vvimeo.com
p3059
F9.877902401742443e-08
tp3060
(Vgoogle.co.uk
p3061
F9.113462281788802e-08
tp3062
(Vfacebook.com
p3063
F7.059035289641063e-09
tp3064
tp3065
s((S'beta11.com'
p3066
tp3067
(ttp3068
(ts((S'gmail.com'
p3069
tp3070
(ttp3071
((Vgoogle.co.in
p3072
F0.002160747949931791
tp3073
(Vreddit.com
p3074
F0.0019094229668676123
tp3075
(Vnetflix.com
p3076
F0.0015143636335367562
tp3077
(Vamazon.com
p3078
F0.001114998532370577
tp3079
(Vdropbox.com
p3080
F0.0008313813311958971
tp3081
(Ven.wikipedia.org
p3082
F0.0008247348851858367
tp3083
(Vpandora.com
p3084
F0.0008159585716037036
tp3085
(Vaccount.live.com
p3086
F0.0007445104894934813
tp3087
(Vfacebook.com
p3088
F0.0007035519930853775
tp3089
(Vstartpagina.nl
p3090
F0.0004478025187472418
tp3091
(Vlinkedin.com
p3092
F0.00038762191829156073
tp3093
(Vsoundcloud.com
p3094
F0.00035534929141919615
tp3095
(Vstackoverflow.com
p3096
F0.000352430535378393
tp3097
(Vtrovi.com
p3098
F0.0003270559567248911
tp3099
(Vbing.com
p3100
F0.0003186797288942869
tp3101
(Vsearch.safefinder.com
p3102
F0.0003181670220008833
tp3103
(Vhome.tb.ask.com
p3104
F0.000309598054277362
tp3105
tp3106
s((S'testy.com'
p3107
tp3108
(ttp3109
((Vgoogle.com
p3110
F5.7582840045330454e-09
tp3111
(Vfacebook.com
p3112
F4.906167885604807e-10
tp3113
tp3114
s((S'apidock.com'
p3115
tp3116
(ttp3117
((Vapi.rubyonrails.org
p3118
F0.004283722809508841
tp3119
(Vlogentries.com
p3120
F0.0031281175847644965
tp3121
(Vguides.rubyonrails.org
p3122
F0.0014298972896033487
tp3123
(Vbsonspec.org
p3124
F0.0013823136499941477
tp3125
(Vadtaily.hackpad.com
p3126
F0.0013067944421232297
tp3127
(Vadmin.revieworld.com
p3128
F0.0012428262182843334
tp3129
(Vsportngin.atlassian.net
p3130
F0.000914667802116352
tp3131
(Vrailsdoc.com
p3132
F0.0008941412847720574
tp3133
(Vgsubbarao.com
p3134
F0.0008810756888817209
tp3135
(Vruby-doc.org
p3136
F0.000875561057367794
tp3137
(Vgotealeaf.campfirenow.com
p3138
F0.0008217247009736729
tp3139
(Vruby-forum.com
p3140
F0.0007341966194683126
tp3141
(Vrequiremind.com
p3142
F0.0006038566509753178
tp3143
(V3edge.in
p3144
F0.0006037040162545684
tp3145
(Vcapterrapaulo.aws.af.cm
p3146
F0.0005021993641797336
tp3147
(Vstrftimer.com
p3148
F0.0005021070563973819
tp3149
(Vclojuredocs.org
p3150
F0.0004751783760686909
tp3151
(Vwebmail.abril.com.br
p3152
F0.00046069404857109657
tp3153
(Vnvcad.nvidia.com
p3154
F0.0004513071790077689
tp3155
(Vruby.about.com
p3156
F0.0004484059714551321
tp3157
tp3158
s((S'xing.com'
p3159
tp3160
(ttp3161
((Vstepstone.de
p3162
F0.0015170579001096234
tp3163
(Vspiegel.de
p3164
F0.0009870102205989382
tp3165
(Vsmartredirect.de
p3166
F0.0008656418910552316
tp3167
(Vkununu.com
p3168
F0.0008500644918979894
tp3169
(Vtu-harburg.academia.edu
p3170
F0.0007250172468395831
tp3171
(Vgruenderszene.de
p3172
F0.0006160545464338925
tp3173
(Vt3n.de
p3174
F0.0005494073061703604
tp3175
(Vopenbc.de
p3176
F0.0005282185824034381
tp3177
(Vbusiness-webmail.t-online.de
p3178
F0.00039136039083473073
tp3179
(Vlizaa.de
p3180
F0.00036584645585642674
tp3181
(Vespace.sbb.ch
p3182
F0.00036162796813019727
tp3183
(Vorf.at
p3184
F0.0003373444213756619
tp3185
(Vwuv.de
p3186
F0.00032833919049934745
tp3187
(Vkunde.comdirect.de
p3188
F0.0003001408379996149
tp3189
(Vde.linkedin.com
p3190
F0.00029778258826698294
tp3191
(Vexperteer.de
p3192
F0.00028717027437245716
tp3193
(Vna20.salesforce.com
p3194
F0.00027828180103067144
tp3195
(Vbbs.clutchfans.net
p3196
F0.0002183433086419262
tp3197
(Vbgl.maknesium.de
p3198
F0.00021813978836609884
tp3199
tp3200
s((S'kickstarter.com'
p3201
tp3202
(ttp3203
((Vindiegogo.com
p3204
F0.006044589196122378
tp3205
(Vboardgamegeek.com
p3206
F0.002967470579344699
tp3207
(Vkicktraq.com
p3208
F0.0016820810006756592
tp3209
(Vkck.st
p3210
F0.0012093648592350532
tp3211
(Vmassdrop.com
p3212
F0.00087235769793054
tp3213
(Vcoolstuffinc.com
p3214
F0.0006201030948794028
tp3215
(Vthunderclap.it
p3216
F0.0005545280608785909
tp3217
(Vgofundme.com
p3218
F0.0004185638677770289
tp3219
(Vwasteland2.org
p3220
F0.0003310376988044957
tp3221
(Vdudeiwantthat.com
p3222
F0.00030026142653187977
tp3223
(Vmomastore.org
p3224
F0.00019395910733544547
tp3225
(Vustart.org
p3226
F0.0001747273452737386
tp3227
(V99designs.co.uk
p3228
F0.00017261508673220832
tp3229
(Vtrictrac.net
p3230
F0.00017158398885538806
tp3231
(Vtechcrunch.com
p3232
F0.00015226764246498048
tp3233
(Vkickended.com
p3234
F0.00014808523909796067
tp3235
tp3236
s((S'somethingpositive.com'
p3237
tp3238
(ttp3239
((Vsomethingpostive.net
p3240
F0.05551369002763124
tp3241
(Vjezebel.com
p3242
F4.424084024843979e-06
tp3243
(Vsmbc-comics.com
p3244
F3.576337317918497e-06
tp3245
(Vamazon.co.uk
p3246
F2.8458752349683427e-07
tp3247
(Vtwitter.com
p3248
F1.9658182515494668e-08
tp3249
(Vreddit.com
p3250
F1.4299505429861048e-08
tp3251
tp3252
s((S'banrate.com'
p3253
tp3254
(ttp3255
((Vadvertiser.bankrate.com
p3256
F0.010417933438728768
tp3257
(Vmycfe.com
p3258
F0.003697223187641567
tp3259
(Vlowermybills.com
p3260
F0.000577498241663914
tp3261
(Vsalliemae.com
p3262
F4.9130725485894754e-05
tp3263
(Vdictionary.goo.ne.jp
p3264
F3.7425394069492426e-05
tp3265
(Vally.com
p3266
F1.4405003035318033e-05
tp3267
(Vpost.craigslist.org
p3268
F1.8668535426783176e-06
tp3269
(Vwellsfargo.com
p3270
F1.5658914407910743e-06
tp3271
(Vfinance.yahoo.com
p3272
F8.480322713302284e-07
tp3273
(Vebay.com
p3274
F1.287045916505256e-07
tp3275
tp3276
s((S'9gag.com'
p3277
tp3278
(ttp3279
((Vhugelol.com
p3280
F0.003233730888247263
tp3281
(Vmemecenter.com
p3282
F0.0025017981164674975
tp3283
(Vkwejk.pl
p3284
F0.0021561817990461748
tp3285
(Vmangareader.net
p3286
F0.001933358652853593
tp3287
(Vdumpert.nl
p3288
F0.0015286863776028295
tp3289
(Veksisozluk.com
p3290
F0.001271977269860276
tp3291
(Vtwitch.tv
p3292
F0.0012509446636704555
tp3293
(Vhiddenlol.com
p3294
F0.0010730062228643238
tp3295
(Vmangafox.me
p3296
F0.0006855088296482892
tp3297
(Vjeuxvideo.com
p3298
F0.0005999945477223184
tp3299
(Vhaivl.com
p3300
F0.0004240296668315654
tp3301
(Vmangahere.co
p3302
F0.0003718523999781129
tp3303
tp3304
s((S'verborgh.org'
p3305
tp3306
(ttp3307
(ts((S'infosecisland.com'
p3308
tp3309
(ttp3310
(ts((S'widdershinscomic.com'
p3311
tp3312
(ttp3313
((Vletsaskviolet.com
p3314
F0.023339778372803054
tp3315
(Vthe-whiteboard.com
p3316
F0.02297513496899636
tp3317
(Vineffableaether.com
p3318
F0.018733703512249688
tp3319
(Vpuckcomics.com
p3320
F0.010880843347775311
tp3321
(Valiendice.com
p3322
F0.0095586849274735
tp3323
(Vcasualvillain.com
p3324
F0.007030130604618646
tp3325
(Vmarryme.keenspot.com
p3326
F0.00618793397842423
tp3327
(Vprecociouscomic.com
p3328
F0.006100743140697935
tp3329
(Vrice-boy.com
p3330
F0.004656766063375279
tp3331
(Vthearchipelago.smackjeeves.com
p3332
F0.002923735751237376
tp3333
(Vsmbhax.com
p3334
F0.0025248584102409368
tp3335
(Vbetweenfailures.com
p3336
F0.0018146924062114364
tp3337
(Vwncomic.com
p3338
F0.0017688444965095805
tp3339
(Vthegamercat.com
p3340
F0.0015217058359325555
tp3341
(Vweregeek.com
p3342
F0.0014803237802496064
tp3343
(Vnerf-this.com
p3344
F0.0013742114952235965
tp3345
tp3346
s((S'alpha15.com'
p3347
tp3348
(ttp3349
((Vmail.midco.net
p3350
F9.645216776247045e-05
tp3351
(Vinvest.ameritrade.com
p3352
F2.2621790287289574e-05
tp3353
(Vnews.newsmax.com
p3354
F9.012522674943768e-06
tp3355
(Vgoogle.com
p3356
F2.344631383637394e-09
tp3357
tp3358
s((S'dock.com'
p3359
tp3360
(ttp3361
((Vdocks.qc.ca
p3362
F0.06434729912128474
tp3363
(Vdockandslip.com
p3364
F0.06212746446584136
tp3365
(Vtessera.com
p3366
F0.005609478693919016
tp3367
(Vedu.americanvhs.com
p3368
F0.0009426078168425553
tp3369
(Vv3.mercusuar.info
p3370
F5.262204832870827e-06
tp3371
(Vsafecart.com
p3372
F1.0612495775718263e-06
tp3373
tp3374
s((S'92.195'
p3375
tp3376
(ttp3377
(ts((S'acnenomor.com'
p3378
tp3379
(ttp3380
((Vsetareasemany.persianblog.ir
p3381
F0.004590559213576927
tp3382
(Vpanelbiurou.uniterm.pl
p3383
F0.001165427076049414
tp3384
(Vgoldenraccoon.tistory.com
p3385
F0.0011206906117195389
tp3386
(Valpha-mconsole.netmarble.net
p3387
F0.0010040460071774379
tp3388
(Vbeta.ssl.webservices.travelzoo.com
p3389
F0.0007673275079081712
tp3390
(Vjpj.gov.my
p3391
F0.0006220694566398409
tp3392
(Vblog.otrs.org
p3393
F0.0005895419469622798
tp3394
(Vadblogcat.com
p3395
F0.0005817426308271652
tp3396
(Vanswerques.com
p3397
F0.0005379210312714628
tp3398
(Vxiexingwen.com
p3399
F0.000471817428617734
tp3400
(Vgoogle.co.jp
p3401
F2.9066968336392337e-08
tp3402
tp3403
s((S'alpha30.com'
p3404
tp3405
(ttp3406
(ts((S'dorkly.com'
p3407
tp3408
(ttp3409
((Vcollegehumor.com
p3410
F0.00532996727307274
tp3411
(Vdidyouknowgaming.com
p3412
F0.0021633027780272383
tp3413
(Vnetlore.ru
p3414
F0.0013772662965528448
tp3415
(Vawkwardzombie.com
p3416
F0.0011546861484157086
tp3417
(Vbrawlinthefamily.keenspot.com
p3418
F0.001025083503038372
tp3419
(Vexplosm.net
p3420
F0.0009121791532666129
tp3421
(Vdorktower.com
p3422
F0.0007780467559879749
tp3423
(Vbunicomic.com
p3424
F0.0007688771325575398
tp3425
(Vpenny-arcade.com
p3426
F0.000697397505029458
tp3427
(Vforums.tigsource.com
p3428
F0.0006230253345583321
tp3429
(Vsyacartoonist.com
p3430
F0.0005622097830873088
tp3431
(Vdangerouslychloe.com
p3432
F0.0004875689986759523
tp3433
(Vblessings.thecomicseries.com
p3434
F0.0004383328772759553
tp3435
(Vtrenchescomic.com
p3436
F0.00042936677189025536
tp3437
(Vsurvivingtheworld.net
p3438
F0.00038241257511459256
tp3439
(Vdraconicsonic.deviantart.com
p3440
F0.0002444842155108139
tp3441
tp3442
s((S'.hdokiejnpimakedhajhdlcegeplioahd'
p3443
tp3444
(ttp3445
(ts((S'beta8.com'
p3446
tp3447
(ttp3448
(ts((S'johnlewis.ie'
p3449
tp3450
(ttp3451
((Vcoreboot.org
p3452
F0.02854268245491835
tp3453
(Vdistroshare.com
p3454
F0.016549572788962446
tp3455
(Vwebmail.w14a.comcast.net
p3456
F0.013918136600019624
tp3457
(Vdeconetworks.com
p3458
F0.007967123011370798
tp3459
(Vjeanlouisnguyen.blogspot.ca
p3460
F0.005415745410279979
tp3461
(Vpilaresdelcodigo.wordpress.com
p3462
F0.004368068633605357
tp3463
(Vae.sjsu.edu
p3464
F0.00432630123544891
tp3465
(Vsenk9.wordpress.com
p3466
F0.0035087719298245615
tp3467
(Vreadditing.herokuapp.com
p3468
F0.0031414092774758665
tp3469
(Vanderswallin.net
p3470
F0.0027987907111832813
tp3471
(Vgeorgakopoulos.org
p3472
F0.001107007252449383
tp3473
(Vzupimages.net
p3474
F0.0010530772654731792
tp3475
(Vjoomla.quantumcs.com
p3476
F0.0007784613047770943
tp3477
(Vchromium.org
p3478
F0.0007239176971487771
tp3479
(Vciteworld.com
p3480
F0.000622003528792297
tp3481
(Vtechreport.com
p3482
F0.0003636459011841565
tp3483
(Vfunhousegames.co
p3484
F0.00029423524559166105
tp3485
(Vbuddypress.org
p3486
F0.00017586529805995192
tp3487
(Vwiki.archlinux.org
p3488
F0.00013728228690694814
tp3489
(Vtvxs.gr
p3490
F9.757876076671679e-05
tp3491
tp3492
s((S'alpha0.com'
p3493
tp3494
(ttp3495
(ts((S'coreboot.org'
p3496
tp3497
(ttp3498
((Vhappyassassin.net
p3499
F0.059476348436577016
tp3500
(Vgit.buildroot.net
p3501
F0.02452952891923749
tp3502
(Vflashrom.org
p3503
F0.017701817587736517
tp3504
(Vbrmlab.cz
p3505
F0.013296603505499648
tp3506
(Vtiny.wiki.kernel.org
p3507
F0.012337571525115207
tp3508
(V86duino.com
p3509
F0.010515115478500344
tp3510
(Veskolar.com
p3511
F0.009344584495521896
tp3512
(Vjohnlewis.ie
p3513
F0.006332038626695642
tp3514
(Vseabios.org
p3515
F0.00443494523109805
tp3516
(Vsavebydiy.com
p3517
F0.0036583215796897038
tp3518
(Vlists.denx.de
p3519
F0.0029219143576826195
tp3520
(Vdonate.ccf.org.tw
p3521
F0.0027590143659023876
tp3522
(Vmetacloud.jira.com
p3523
F0.002028728663370954
tp3524
(Vembeddedlinux.org.cn
p3525
F0.0018237464363575382
tp3526
(Vfsf.org
p3527
F0.0017019026720611005
tp3528
(Vdev.milaap.org
p3529
F0.0011945877468052004
tp3530
(Vwiki.archlinux.org
p3531
F0.0007416826313193679
tp3532
(Vhitech.vesti.ru
p3533
F0.00033012905439744935
tp3534
(Vmark.intel.com
p3535
F0.00029483913576752523
tp3536
(Vlinux.softpedia.com
p3537
F2.1233992224112045e-05
tp3538
tp3539
s((S'docks.com'
p3540
tp3541
(ttp3542
((Vnew-startups.com
p3543
F0.0011150896408172368
tp3544
(Vimei.info
p3545
F0.00013258549617717544
tp3546
(Vdocs.com
p3547
F0.00011210307582814303
tp3548
tp3549
s((S'walla.co.il'
p3550
tp3551
(ttp3552
((Vynet.co.il
p3553
F0.020681855597970564
tp3554
(Vsport5.co.il
p3555
F0.01671716174222901
tp3556
(Vone.co.il
p3557
F0.0158659102755873
tp3558
(Vmako.co.il
p3559
F0.01332301405197086
tp3560
(Vnrg.co.il
p3561
F0.008862240216676337
tp3562
(Vgoogle.co.il
p3563
F0.007271907105170784
tp3564
(Vhaaretz.co.il
p3565
F0.005973013842627749
tp3566
(Vrotter.net
p3567
F0.005844035385500475
tp3568
(Vnana10.co.il
p3569
F0.005317331090295053
tp3570
(Vglobes.co.il
p3571
F0.004428857379564541
tp3572
tp3573
s((S'railscasts.com'
p3574
tp3575
(ttp3576
(ts((S'beta0.com'
p3577
tp3578
(ttp3579
(ts((S'beta6.com'
p3580
tp3581
(ttp3582
(ts((S'alpha8.com'
p3583
tp3584
(ttp3585
(ts((S'stakeventures.com'
p3586
tp3587
(ttp3588
(ts((S'ycombinator.com'
p3589
tp3590
(ttp3591
((Vhackerne.ws
p3592
F0.002258449013607999
tp3593
(Vtechmeme.com
p3594
F0.0012691820221576143
tp3595
(Vnews.layervault.com
p3596
F0.0009917455368117767
tp3597
(Vproducthunt.com
p3598
F0.0006783600822242837
tp3599
(Vspacerogue.net
p3600
F0.0006178246123912907
tp3601
(Vxcortex.com
p3602
F0.0005490919247667366
tp3603
(Vblog.samaltman.com
p3604
F0.00045371434238055064
tp3605
(Vnautil.us
p3606
F0.0004510529032547637
tp3607
(Vnews.dbanotes.net
p3608
F0.0003639712839933979
tp3609
(Vlesswrong.com
p3610
F0.00029064409138113845
tp3611
(Vnikcub.com
p3612
F0.00023565540621483204
tp3613
(Vlobste.rs
p3614
F0.00016749410462020464
tp3615
(Vgwucolumbian.service-now.com
p3616
F0.00015106314765607595
tp3617
(Vdatatau.com
p3618
F0.0001409348825942487
tp3619
(Vnet-benefits.net
p3620
F0.00013016942453237583
tp3621
tp3622
s((S'fetchapp.com'
p3623
tp3624
(ttp3625
((Vcheckout.shopify.com
p3626
F0.03289034869667742
tp3627
(Vpixelunion.net
p3628
F0.014754481133273599
tp3629
(Vvfbpro.com
p3630
F0.006749764676306224
tp3631
(Vmovimus-wrestling.myshopify.com
p3632
F0.004611150121474517
tp3633
(Vsiteorigin.uservoice.com
p3634
F0.0013398333270103824
tp3635
(Vnivel7.zendesk.com
p3636
F0.0010256196709226026
tp3637
(Vlocalinternettraffic.basecamphq.com
p3638
F0.0007945726175017724
tp3639
(Vfindacaravan.co.uk
p3640
F0.000773582354640265
tp3641
(Vmygedlive.com
p3642
F0.0006667648984276862
tp3643
(Vsupergiantgames.com
p3644
F0.0006353591339866412
tp3645
(Vrubinmuseum.mooclients.com
p3646
F0.0005533319807440471
tp3647
(Vstore-ugs15e.mybigcommerce.com
p3648
F0.0005459376175282371
tp3649
(Vdowntownhq.com
p3650
F0.0005201510438608135
tp3651
(Vwebmail1.cogeco.ca
p3652
F0.0005121806493696923
tp3653
(Vccparkboard.com
p3654
F0.0005069670278806741
tp3655
(Vmy-cubby-house-rocks.myshopify.com
p3656
F0.000469641480868186
tp3657
(Vpredictablesuccess.com
p3658
F0.00046456904822288767
tp3659
(Vabookapart.com
p3660
F0.000443290002711978
tp3661
(Vjoridweb.com
p3662
F0.00037026980326331123
tp3663
(Vevanabrams.com
p3664
F0.00036538634981349104
tp3665
tp3666
s((S'instagram.com'
p3667
tp3668
(ttp3669
((Vask.fm
p3670
F0.009839861689494809
tp3671
(Vtwitter.com
p3672
F0.00852219868530378
tp3673
(Vt.co
p3674
F0.00590372865211456
tp3675
(Vtumblr.com
p3676
F0.0028467374135406447
tp3677
(Vbuzzfeed.com
p3678
F0.0021394192027941565
tp3679
(Viconosquare.com
p3680
F0.0021111893321816588
tp3681
(Vfacebook.com
p3682
F0.00192459481539883
tp3683
(Vvk.com
p3684
F0.0017823909564906018
tp3685
(Vwebsta.me
p3686
F0.001677039473359781
tp3687
(Vpinterest.com
p3688
F0.0016538952803498866
tp3689
(Vtwitch.tv
p3690
F0.000413087885165486
tp3691
(Vsprashivai.ru
p3692
F0.00037472447172838525
tp3693
tp3694
s((S'beta2.com'
p3695
tp3696
(ttp3697
((Vlogopond.com
p3698
F8.342355902882032e-05
tp3699
tp3700
s((S'imgur.com'
p3701
tp3702
(ttp3703
((Veksisozluk.com
p3704
F0.007959158123693156
tp3705
(Vsteamcommunity.com
p3706
F0.005482409223054582
tp3707
(Vl.moapi.net
p3708
F0.0042747932543380305
tp3709
(Vptt.cc
p3710
F0.004205827649589891
tp3711
(Vreddit.com
p3712
F0.002423451953582919
tp3713
(Vus.battle.net
p3714
F0.0023017082856949867
tp3715
(Vprntscr.com
p3716
F0.002184980056042118
tp3717
(Viamchucky.github.io
p3718
F0.002029496111172061
tp3719
(Vplurk.com
p3720
F0.0012164439471213228
tp3721
(Vgamefaqs.com
p3722
F0.0011121531273015387
tp3723
(Vflashback.org
p3724
F0.0010824160224589597
tp3725
(Vtwitch.tv
p3726
F0.0008429300641815612
tp3727
(Vboards.4chan.org
p3728
F0.0008128220671250406
tp3729
tp3730
s((S'giflike.com'
p3731
tp3732
(ttp3733
((V192.168.33.10.xip.io
p3734
F0.0029944838455476758
tp3735
(Vprmptr.com
p3736
F0.0027936549891153916
tp3737
(Vdev.comingsoon.net
p3738
F0.0027169735774319596
tp3739
(Vkonwertujplika.pl
p3740
F0.002401999311191374
tp3741
(Vbulletinboards.1800runaway.org
p3742
F0.0020535507537810926
tp3743
(Vquick-break.net
p3744
F0.001965415682500802
tp3745
(Vgoogleglass.blog.jp
p3746
F0.001888773352221067
tp3747
(Vevolutionmedia.pl
p3748
F0.001575418658488921
tp3749
(Vyt2gif.com
p3750
F0.0015676074246532394
tp3751
(Vcomicbooksfrombrazil.tumblr.com
p3752
F0.001191175510736897
tp3753
(Vbeiz.jp
p3754
F0.0010855741344639473
tp3755
(Vmcclan.joriscoenen.nl
p3756
F0.0009896366918257403
tp3757
(Vcollegefootball.rivals.com
p3758
F0.0007786256730771759
tp3759
(Vanpfoto.nl
p3760
F0.00061065570348849
tp3761
(Vjstatham.com
p3762
F0.0005371080090636977
tp3763
(Vstereotronique.com
p3764
F0.000497382524465003
tp3765
(Vmongolia.seesaa.net
p3766
F0.00046012774022502435
tp3767
(V538.nl
p3768
F0.00045926873481025435
tp3769
(Veverydayhero.com.au
p3770
F0.0004583765311216065
tp3771
(Vgifmake.com
p3772
F0.00042351304067237734
tp3773
tp3774
s((S'google.co.il'
p3775
tp3776
(ttp3777
((Vynet.co.il
p3778
F0.02090290556127998
tp3779
(Vwalla.co.il
p3780
F0.010178080865357519
tp3781
(Vmako.co.il
p3782
F0.009531641570181064
tp3783
(Vhe.wikipedia.org
p3784
F0.005168147982441724
tp3785
(Vone.co.il
p3786
F0.004797051193030695
tp3787
(Vsport5.co.il
p3788
F0.004629557192589989
tp3789
(Vpanet.co.il
p3790
F0.004466318634153449
tp3791
(Vyad2.co.il
p3792
F0.004239283102327047
tp3793
(Vfxp.co.il
p3794
F0.004224135214989242
tp3795
(Vil.msn.com
p3796
F0.0025525166492135123
tp3797
(Vjewishjournal.com
p3798
F0.0016738899904644618
tp3799
(Vhaaretz.co.il
p3800
F0.0011658029360413589
tp3801
tp3802
s((S'welcometonightvale.com'
p3803
tp3804
(ttp3805
((Vkaramicrabbit.tumblr.com
p3806
F0.046660274848194315
tp3807
(Vassbutt-inthetardis-withsherlock.tumblr.com
p3808
F0.02699022905654333
tp3809
(Vheard-comic.com
p3810
F0.02576808721506442
tp3811
(Vnightvale.libsyn.com
p3812
F0.0030840219412858728
tp3813
(Vnightvale.bandcamp.com
p3814
F0.0029100392034955014
tp3815
(Vforum.ianti-virus.com
p3816
F0.0009595825158807621
tp3817
(Vtopatoco.com
p3818
F8.365148782536246e-05
tp3819
(Vpodbay.fm
p3820
F1.5005313972050512e-05
tp3821
(Vnationstates.net
p3822
F1.3306299935942108e-05
tp3823
(Vkhanacademy.org
p3824
F3.1321865143484366e-06
tp3825
(Vitunes.apple.com
p3826
F1.3008854342133617e-06
tp3827
(Vp1.dntrck.com
p3828
F5.811641924690855e-07
tp3829
(Vamazon.co.uk
p3830
F4.0711242932196677e-07
tp3831
(Vetsy.com
p3832
F2.412140427903423e-07
tp3833
(Vtumblr.com
p3834
F8.782749462968333e-08
tp3835
(Vmail.google.com
p3836
F2.9178958487822285e-08
tp3837
(Vgoogle.com
p3838
F1.0780567744388767e-08
tp3839
(Vyoutube.com
p3840
F4.510915729903013e-10
tp3841
tp3842
s((S'alpha14.com'
p3843
tp3844
(ttp3845
((Vdofusbook.net
p3846
F0.0006337329293461555
tp3847
tp3848
s((S'happyassassin.net'
p3849
tp3850
(ttp3851
((Vmndm.gov.on.ca
p3852
F0.04298894933263563
tp3853
(Veriberto.pro.br
p3854
F0.01202062754212667
tp3855
(Vblog.hansenpartnership.com
p3856
F0.011842526405633201
tp3857
(Vcalm.aber.ac.uk
p3858
F0.011433569710412046
tp3859
(Vbugs.freedesktop.org
p3860
F0.0009542923479526986
tp3861
(Vsandboxie.com
p3862
F0.0007907844422448724
tp3863
(Vmanyland.com
p3864
F0.0007040551653256227
tp3865
(Vmarc.info
p3866
F0.0005867879121690093
tp3867
(Vforums.opensuse.org
p3868
F0.0005194968302130223
tp3869
(Veeti.com.tw
p3870
F0.0005194955121359924
tp3871
(Vimaginecup.com
p3872
F0.0003215762268482594
tp3873
(V4sysops.com
p3874
F0.00014510480483848856
tp3875
(Vanimeultima.tv
p3876
F0.0001281134603127242
tp3877
(Vthomas-krenn.com
p3878
F7.921381869224323e-05
tp3879
(Vjustinguitar.com
p3880
F6.288087035151911e-05
tp3881
(Vcomputer.howstuffworks.com
p3882
F2.4267097954854636e-05
tp3883
(Vcompileonline.com
p3884
F2.3703323624266067e-05
tp3885
(Vsevenforums.com
p3886
F2.367194472127469e-06
tp3887
(Vtechnet.microsoft.com
p3888
F2.1155661906668695e-06
tp3889
(Vaccounts.google.com
p3890
F1.3084216140549257e-07
tp3891
tp3892
s((S'hotmail.com'
p3893
tp3894
(ttp3895
((Vstartpagina.nl
p3896
F0.0033795478641330968
tp3897
(Vsignout.live.com
p3898
F0.0019536193173443693
tp3899
(Vaccount.mojang.com
p3900
F0.0011799134425937946
tp3901
(Vde.msn.com
p3902
F0.0009699166517050574
tp3903
(Vgoogle.co.ve
p3904
F0.0006409109624436532
tp3905
(Vpesquisaweb.com.br
p3906
F0.0006155523385053518
tp3907
(Vlogin.skype.com
p3908
F0.0005895501588447668
tp3909
(Vsearch.sidecubes.com
p3910
F0.0005731926797966754
tp3911
(Vfr.wow.com
p3912
F0.0005031414370583318
tp3913
(Vsearch.hao123.com.br
p3914
F0.0004901181822968964
tp3915
(Vtwitch.tv
p3916
F0.00040739971987316105
tp3917
(Vaccount.live.com
p3918
F0.0003368996069412944
tp3919
(Vhumblebundle.com
p3920
F0.00032895974347243637
tp3921
(Vsearch.findwide.com
p3922
F0.00028479862167211977
tp3923
(Vminecraft.net
p3924
F0.00024431603156685087
tp3925
(Vgoogle.com.ec
p3926
F0.00021696344549993276
tp3927
(Vus.battle.net
p3928
F0.00020060590540145736
tp3929
(Vstore.steampowered.com
p3930
F0.00018927089713552498
tp3931
(Vsteamcommunity.com
p3932
F0.0001840770810935155
tp3933
tp3934
s((S'chrome.com'
p3935
tp3936
(ttp3937
(ts((S'alpha3.com'
p3938
tp3939
(ttp3940
((Vanimeq.com.br
p3941
F2.1789299758136615e-06
tp3942
tp3943
s((S'amazon.co.uk'
p3944
tp3945
(ttp3946
((Vhotukdeals.com
p3947
F0.009607538119142368
tp3948
(Vebay.co.uk
p3949
F0.008784920218691808
tp3950
(Vsignup.ask4.com
p3951
F0.004451023000148134
tp3952
(Vargos.co.uk
p3953
F0.003516693019612358
tp3954
(Vgoogle.co.uk
p3955
F0.0033173248895694944
tp3956
(Vuk-mg42.mail.yahoo.com
p3957
F0.0026420618576403648
tp3958
(Vbbc.co.uk
p3959
F0.00241704974016918
tp3960
(Vlovefilm.com
p3961
F0.0018107881897302233
tp3962
(Vtesco.com
p3963
F0.0017671562317682302
tp3964
(Vgame.co.uk
p3965
F0.0012513572163597596
tp3966
(Vjohnlewis.com
p3967
F0.0006249988359875704
tp3968
(Vbtmail.bt.com
p3969
F0.00044421611594085137
tp3970
tp3971
s((S'goldsteintech.com'
p3972
tp3973
(ttp3974
(ts((S'alpha4.com'
p3975
tp3976
(ttp3977
((Vgoogle.com.au
p3978
F8.213878316722479e-08
tp3979
tp3980
s((S'techonthenet.com'
p3981
tp3982
(ttp3983
(ts((S'stackoverflow.com'
p3984
tp3985
(ttp3986
(ts((S'cracked.com'
p3987
tp3988
(ttp3989
((Vlistverse.com
p3990
F0.002726385758898505
tp3991
(Vcollegehumor.com
p3992
F0.002107328674389131
tp3993
(Varchive.today
p3994
F0.0016765785990839604
tp3995
(Vescapistmagazine.com
p3996
F0.0016443018805989268
tp3997
(Vdorkly.com
p3998
F0.0015727526783965238
tp3999
(Vsmbc-comics.com
p4000
F0.0014025142688979721
tp4001
(Vtheonion.com
p4002
F0.0012152073952430848
tp4003
(Voddee.com
p4004
F0.0008038470483622185
tp4005
(Vavclub.com
p4006
F0.0007375924550347175
tp4007
(Vexplosm.net
p4008
F0.0007325112118358349
tp4009
(Vthechive.com
p4010
F0.0006896736374762467
tp4011
(Vmentalfloss.com
p4012
F0.0004837719810559199
tp4013
(Vbuzzfeed.com
p4014
F0.00045508882873294493
tp4015
tp4016
s((S'guru99.com'
p4017
tp4018
(ttp4019
((Vtoolsqa.com
p4020
F0.005719466566131465
tp4021
(Vabap101.com
p4022
F0.003011493349875067
tp4023
(Vregistria.app.box.com
p4024
F0.0026405273456051367
tp4025
(Vhanelsoft.vn
p4026
F0.002062561850334693
tp4027
(Vassertselenium.com
p4028
F0.00195169518565124
tp4029
(Vseleniummadeeasy.blogspot.co.uk
p4030
F0.0017882739008798492
tp4031
(Vsaptraininghub.com
p4032
F0.0017882409332036706
tp4033
(Vqtpfaq.wordpress.com
p4034
F0.0017873677324844871
tp4035
(Vcodeodor.com
p4036
F0.0016453585640558656
tp4037
(Vmanage.hivelocity.net
p4038
F0.001623640201331385
tp4039
(Vsoftwaretestinggenius.com
p4040
F0.001583393157862956
tp4041
(Vcommunity.stresstimulus.com
p4042
F0.001557093159406643
tp4043
(Vtennisworlditalia.com
p4044
F0.0012915493611922993
tp4045
(Vroqit.sharepoint.com
p4046
F0.0010722141775454032
tp4047
(Vsyrinx.catsone.com
p4048
F0.0009775579010200494
tp4049
(Vculverlabs.co
p4050
F0.0009439906846807562
tp4051
(Vwebmail.trigma.co.in
p4052
F0.0008988027832973669
tp4053
(Vnewtours.demoaut.com
p4054
F0.0008537480868080438
tp4055
(Vajmadison.com
p4056
F0.0008427717137978187
tp4057
(Vin.playstation.com
p4058
F0.0008242438736899647
tp4059
tp4060
s((S'blogspot.co.uk'
p4061
tp4062
(ttp4063
((Vsoccersportthai.blogspot.co.uk
p4064
F0.0707374040707374
tp4065
(Vproofreadmyfile.blogspot.com
p4066
F0.030689329556185082
tp4067
(Vibrahimyamanabdullahi.blogspot.co.uk
p4068
F0.017033585087578337
tp4069
(Vsapbasissociety.blogspot.co.uk
p4070
F0.015119098559406645
tp4071
(Vpersianbooks2.blogspot.co.uk
p4072
F0.01447080599024062
tp4073
(Vblogsofnote.blogspot.co.uk
p4074
F0.014427657547298217
tp4075
(Vkizomba-zouk.blogspot.co.uk
p4076
F0.012347802817439838
tp4077
(Vbmackie.blogspot.co.uk
p4078
F0.01162535643781531
tp4079
(Vsherrysbeautyandfashion.blogspot.co.uk
p4080
F0.011378935939196526
tp4081
(Vmwholt.blogspot.co.uk
p4082
F0.011096992799661162
tp4083
(Vhongleili.blogspot.co.uk
p4084
F0.010588425476883283
tp4085
(Vportableappz.blogspot.co.uk
p4086
F0.008682119747727087
tp4087
(Vjandjalpacas.blogspot.co.uk
p4088
F0.006606792608650769
tp4089
(Vsuitcaseboy.blogspot.co.uk
p4090
F0.0065030737184372306
tp4091
(Vsliekje.blogspot.co.uk
p4092
F0.006483803155788567
tp4093
(Vyourcreativefuel.blogspot.co.uk
p4094
F0.006483803155788567
tp4095
(Vmonica-or.blogspot.co.uk
p4096
F0.006322861094645326
tp4097
(Vsleazybeats.blogspot.co.uk
p4098
F0.0062287104622871054
tp4099
(Vquickshout.blogspot.co.uk
p4100
F0.005905511811023622
tp4101
(Vblogger.co.uk
p4102
F0.00456841015757446
tp4103
tp4104
s((S'lwn.net'
p4105
tp4106
(ttp4107
((Vsuccessfulsoftware.net
p4108
F0.005252112500049234
tp4109
(Vlinuxfr.org
p4110
F0.004822843418206723
tp4111
(Vghzl.co
p4112
F0.0034472746606284085
tp4113
(Vphoronix.com
p4114
F0.002768949835679411
tp4115
(Vlinux-bg.org
p4116
F0.0026851094101852297
tp4117
(Vbugs.freedesktop.org
p4118
F0.002523399741763606
tp4119
(Vrt.wiki.kernel.org
p4120
F0.002237663304438635
tp4121
(Vrajalanetti.com
p4122
F0.002206267253682163
tp4123
(Vsimepar.br
p4124
F0.0018997695554617766
tp4125
(Vlxer.com
p4126
F0.0016418547532840177
tp4127
(Vplanet.postgresql.org
p4128
F0.0016138535921117138
tp4129
(Vnorrod.nl
p4130
F0.0014726421294774892
tp4131
(Vwebmail.delaval.com
p4132
F0.001380474439094912
tp4133
(Velementarynow.com
p4134
F0.0012930064543167485
tp4135
(Vusers.csc.calpoly.edu
p4136
F0.001283081096542379
tp4137
(Vbeyond3d.com
p4138
F0.0012644611077741394
tp4139
(V100ask.org
p4140
F0.0012163660952326189
tp4141
(Vanandtech.com
p4142
F0.001147878137408774
tp4143
(Vohjelmointiputka.net
p4144
F0.00110908323285851
tp4145
(Vwebmail.alltele.net
p4146
F0.0010886146327560872
tp4147
tp4148
s((S'keyvalue.org'
p4149
tp4150
(ttp4151
((Vrubygems.org
p4152
F1.8680492428768945e-05
tp4153
(Vgithub.com
p4154
F3.475709217831192e-07
tp4155
tp4156
s((S'linkedin.com'
p4157
tp4158
(ttp4159
((Vxing.com
p4160
F0.0035272738274342397
tp4161
(Vus-mg6.mail.yahoo.com
p4162
F0.0034621026445398524
tp4163
(Vmail.google.com
p4164
F0.00285240789862983
tp4165
(Vtwitter.com
p4166
F0.0023210936167840177
tp4167
(Ve.mail.ru
p4168
F0.0017568898115882413
tp4169
(Vviadeo.com
p4170
F0.0017304525049372677
tp4171
(Vindeed.com
p4172
F0.001351932687287556
tp4173
(Vdub126.mail.live.com
p4174
F0.0012331686466150727
tp4175
(Vapi.addthis.com
p4176
F0.000836236539960899
tp4177
(Vfacebook.com
p4178
F0.0007638182750437176
tp4179
(Vbehance.net
p4180
F0.00029182320364485996
tp4181
(Voutlook.office365.com
p4182
F0.0002846521831975362
tp4183
tp4184
s((S'alibaba.com'
p4185
tp4186
(ttp4187
(ts((S'mobileread.com'
p4188
tp4189
(ttp4190
(ts((S'alpha46.com'
p4191
tp4192
(ttp4193
(ts((S'oracle-base.com'
p4194
tp4195
(ttp4196
(ts((S'alpha43.com'
p4197
tp4198
(ttp4199
(ts((S'alpha19.com'
p4200
tp4201
(ttp4202
(ts((S'beta9.com'
p4203
tp4204
(ttp4205
(ts((S'caltech.edu'
p4206
tp4207
(ttp4208
(ts((S'sarasoueidan.com'
p4209
tp4210
(ttp4211
(ts((S'mozilla.org'
p4212
tp4213
(ttp4214
((Vtrovi.com
p4215
F0.003908185540139704
tp4216
(Vastromenda.com
p4217
F0.003661281447262505
tp4218
(Vdefault-search.net
p4219
F0.003546628603773007
tp4220
(Vyandex.ru
p4221
F0.003418356746361168
tp4222
(Vhome.tb.ask.com
p4223
F0.002485574080687845
tp4224
(Vmystartsearch.com
p4225
F0.002372836999030979
tp4226
(Vgroovorio.com
p4227
F0.0021940789678751077
tp4228
(Vcr4.gogorithm.com
p4229
F0.0014396275046440782
tp4230
(Vistartsurf.com
p4231
F0.001407008639371235
tp4232
(Vcr2.gogorithm.com
p4233
F0.0011775681487276746
tp4234
(Vvosteran.com
p4235
F0.0011286580230675245
tp4236
(Vupdatesoftnow.com
p4237
F0.0011115485450116163
tp4238
(Vsearch.yahoo.com
p4239
F0.0010762443747588434
tp4240
(Vsweet-page.com
p4241
F0.0009996025717427229
tp4242
(Vhd-plugin.com
p4243
F0.0009837360668146014
tp4244
(Vget.adobe.com
p4245
F0.0008646924779831686
tp4246
(Vcij.campaignism.com
p4247
F0.0007996086228882707
tp4248
(Vieonline.microsoft.com
p4249
F0.0007893274514678609
tp4250
(Vaz307127.vo.msecnd.net
p4251
F0.0007404118225709963
tp4252
tp4253
s((S'wolframalpha.com'
p4254
tp4255
(ttp4256
((Vwebassign.net
p4257
F0.006517849643425926
tp4258
(Vmathworld.wolfram.com
p4259
F0.003393997804121385
tp4260
(Vtutorial.math.lamar.edu
p4261
F0.0032305370516692486
tp4262
(Vmathxl.com
p4263
F0.002903553433297141
tp4264
(Vsymbolab.com
p4265
F0.0026494218523835946
tp4266
(Vpurplemath.com
p4267
F0.0023617804926934385
tp4268
(Vquest.cns.utexas.edu
p4269
F0.0022502976628350187
tp4270
(Vmath.stackexchange.com
p4271
F0.0021096126650983816
tp4272
(Vdesmos.com
p4273
F0.0016572406004577939
tp4274
(Vchegg.com
p4275
F0.0011195735650166758
tp4276
(Vmathway.com
p4277
F0.0008791764257050895
tp4278
tp4279
s((S'alpha24.com'
p4280
tp4281
(ttp4282
(ts((S'yahoo.com'
p4283
tp4284
(ttp4285
((Vsearch.safefinder.com
p4286
F0.009634514947491827
tp4287
(Vfacebook.com
p4288
F0.009307743324214716
tp4289
(Vgoogle.com
p4290
F0.007993397163605226
tp4291
(Vdefault-search.net
p4292
F0.00638461452160443
tp4293
(Vyoutube.com
p4294
F0.00588895962389419
tp4295
(Vistart.webssearches.com
p4296
F0.004950212773619762
tp4297
(Vmysearch.avg.com
p4298
F0.003889205065770996
tp4299
(Vtrovi.com
p4300
F0.003690493176671326
tp4301
(Vreddit.com
p4302
F0.003380895730880115
tp4303
(Vmsn.com
p4304
F0.0033709754356519212
tp4305
(Vhome.tb.ask.com
p4306
F0.003246479649348346
tp4307
(Vbing.com
p4308
F0.001870128319245984
tp4309
(Vcr2.gogorithm.com
p4310
F0.0017706224180467011
tp4311
tp4312
s((S'live.com'
p4313
tp4314
(ttp4315
((Vhotmail.com
p4316
F0.03407584705530906
tp4317
(Vgoogle.com.br
p4318
F0.009265640436663175
tp4319
(Vmsn.com
p4320
F0.005826312472339241
tp4321
(Voutlook.com
p4322
F0.005581978726363533
tp4323
(Vistart.webssearches.com
p4324
F0.004093831585578022
tp4325
(Vfacebook.com
p4326
F0.004037818878021313
tp4327
(Vtrovi.com
p4328
F0.0035716095806425908
tp4329
(Vsearch.safefinder.com
p4330
F0.0032300633341410773
tp4331
(Vsearch.sidecubes.com
p4332
F0.0025310821336464863
tp4333
(Vhome.tb.ask.com
p4334
F0.0021570512124755577
tp4335
(Vistartsurf.com
p4336
F0.0010630926812854498
tp4337
(Vsearch.ask.com
p4338
F0.0009246157662065858
tp4339
tp4340
s((S'astralapp.com'
p4341
tp4342
(ttp4343
(ts((S'codinghorror.com'
p4344
tp4345
(ttp4346
(ts((S'lego.com'
p4347
tp4348
(ttp4349
(ts((S'alpha32.com'
p4350
tp4351
(ttp4352
(ts((S'shawarma-time.com'
p4353
tp4354
(ttp4355
(ts((S'alpha38.com'
p4356
tp4357
(ttp4358
(ts((S'alpha31.com'
p4359
tp4360
(ttp4361
(ts((S'practicingruby.com'
p4362
tp4363
(ttp4364
((Velmcitycraftworks.org
p4365
F0.023109641123805664
tp4366
(Vhartsem.edu
p4367
F0.01576023487552252
tp4368
(Vvdumoulin.github.io
p4369
F0.014616148715765574
tp4370
(Vblog.rubybestpractices.com
p4371
F0.014336265722118734
tp4372
(Vletter.ly
p4373
F0.009270472292980331
tp4374
(Vfabioanselmo.github.io
p4375
F0.007632800412583806
tp4376
(Vnas.int.stangl.co.za
p4377
F0.006892014145900156
tp4378
(Vpracticalruby.com
p4379
F0.006233190950798924
tp4380
(Vjamesfriend.com.au
p4381
F0.004684389272748566
tp4382
(Vdevblog.avdi.org
p4383
F0.0029803058169662632
tp4384
(Vrubytechlist.com
p4385
F0.0027833693680260445
tp4386
(Vstats.fanjas.com
p4387
F0.002452099050482813
tp4388
(Vcodon.com
p4389
F0.002302760390183461
tp4390
(Vtestingeducation.org
p4391
F0.0022754087308275747
tp4392
(Vherdt.de
p4393
F0.0022693966419629025
tp4394
(Vrubyoffrails.com
p4395
F0.0021707508112341948
tp4396
(Vcodecoreyvr.slack.com
p4397
F0.001842643106583627
tp4398
(Vdaniel.haxx.se
p4399
F0.0017404757300328755
tp4400
(Vschibsted.service-now.com
p4401
F0.0012539919721074684
tp4402
(Vallin.qiita.com
p4403
F0.0011750421056754533
tp4404
tp4405
s((S'metaskills.net'
p4406
tp4407
(ttp4408
((Vctshryock.com
p4409
F0.016547468798205022
tp4410
(Vredmine.bikecityguide.org
p4411
F0.0021527305687740767
tp4412
(Vatendesign.atlassian.net
p4413
F0.0003169074849782714
tp4414
(Vcoderwall.com
p4415
F0.00021703084325282697
tp4416
(Vphantomjs.org
p4417
F0.00013313754282917278
tp4418
(Vhttpd.apache.org
p4419
F1.5940797752535055e-05
tp4420
(Vgithub.com
p4421
F3.3243081757242964e-06
tp4422
(Vduckduckgo.com
p4423
F1.0081056908941716e-06
tp4424
(Vtrello.com
p4425
F9.761391994511724e-07
tp4426
(Vstartpage.com
p4427
F6.875454166190843e-07
tp4428
(Vstackoverflow.com
p4429
F3.0192988684047274e-07
tp4430
(Vtweetdeck.twitter.com
p4431
F1.599518661211605e-07
tp4432
(Vbing.com
p4433
F9.369324416725723e-08
tp4434
(Vgoogle.com.sg
p4435
F5.183408317133579e-08
tp4436
tp4437
s((S'ureddit.com'
p4438
tp4439
(ttp4440
((Vbeginnerscpp.com
p4441
F0.006572671888598781
tp4442
(Vfatsecret.com.au
p4443
F0.004678948612723494
tp4444
(V3pod.com.au
p4445
F0.004578399016372226
tp4446
(Vdev.solita.fi
p4447
F0.00436173082109968
tp4448
(Vwebcourseworks.com
p4449
F0.003127216921718232
tp4450
(Vthehybridathlete.com
p4451
F0.0023514834745883392
tp4452
(Vtelecommuterjobs.net
p4453
F0.002200164380097364
tp4454
(Vlocal.brookings.k12.sd.us
p4455
F0.002117690013996227
tp4456
(Vevasdigital.co
p4457
F0.0018805682450380422
tp4458
(Vuniversityofreddit.com
p4459
F0.0013201869970415694
tp4460
(Vludosoul.wordpress.com
p4461
F0.0012700212020068434
tp4462
(Vmole-reads.tumblr.com
p4463
F0.0012221340955459448
tp4464
(Vwipp.energy.gov
p4465
F0.001025010250102501
tp4466
(Vmail.yoox.biz
p4467
F0.0010156743254000932
tp4468
(Vapexbookcompany.com
p4469
F0.0010100822701702092
tp4470
(Vcodeception.com
p4471
F0.0009424400667020082
tp4472
(Vincidentalcomplexity.com
p4473
F0.0009344921035417251
tp4474
(Vdogfalo.github.io
p4475
F0.0009123859517560306
tp4476
(Vacsf.com.au
p4477
F0.0008911864087341653
tp4478
(Vwindenergyfoundation.org
p4479
F0.0008400938928468477
tp4480
tp4481
s((S'paulund.co.uk'
p4482
tp4483
(ttp4484
((Vdesignfloat.com
p4485
F0.014682317874154185
tp4486
(Vtikslus.com
p4487
F0.009972109256922046
tp4488
(Vtuflow.com
p4489
F0.00941413071944854
tp4490
(Vthemeswordpressfree.com
p4491
F0.0064874181764638375
tp4492
(V1dex.ch
p4493
F0.005137631363583222
tp4494
(Vcodingfusion.com
p4495
F0.005027579500723988
tp4496
(Vwp-tips.net
p4497
F0.004666974061316192
tp4498
(Vdanangsmartphone.vn
p4499
F0.004652234916816997
tp4500
(Vtak.ee
p4501
F0.004626630229509653
tp4502
(Venjoycss.com
p4503
F0.004177601750527054
tp4504
(Ve-kitap.org
p4505
F0.004108657082764539
tp4506
(Vpurecssmenu.com
p4507
F0.0039179659775167705
tp4508
(Vccs.seemysite.us
p4509
F0.003615513921040149
tp4510
(Vpro.agence-hybrid.com
p4511
F0.003342605497371602
tp4512
(Vhobium.com
p4513
F0.003266090976893467
tp4514
(Vwplift.com
p4515
F0.0028646937118022783
tp4516
(Vsimplemediacode.info
p4517
F0.002693832260479542
tp4518
(Vcubic-bezier.com
p4519
F0.002685931857532827
tp4520
(Vleagueoflegends-wiki.com
p4521
F0.00265266660471949
tp4522
(Vgmgcongress.com
p4523
F0.0025931240388389495
tp4524
tp4525
s((S'stackexchange.com'
p4526
tp4527
(ttp4528
((Vdrupal.org
p4529
F0.0018087338073138374
tp4530
(Vsuperuser.com
p4531
F0.0017565770216195539
tp4532
(Vstackoverflow.com
p4533
F0.0017298447513904261
tp4534
(Vexchange.jacobs-university.de
p4535
F0.0017227839744996746
tp4536
(Vencrypted.google.com
p4537
F0.0016974100217127502
tp4538
(Vstartpage.com
p4539
F0.0011022911608110297
tp4540
(Vknightsandmerchants.net
p4541
F0.0010559136442041205
tp4542
(Vcourses.edx.org
p4543
F0.0009489679492966093
tp4544
(Vwen.lu
p4545
F0.0007011318157478892
tp4546
(Vdev53.mainlinemenswear.co.uk
p4547
F0.0004911855144103377
tp4548
(Vbodytonicmusic.com
p4549
F0.0004665108146013598
tp4550
(Vwpsites.net
p4551
F0.00045658378453616134
tp4552
(Vmathoverflow.net
p4553
F0.00038500259922329095
tp4554
(Vbuildwithcraft.com
p4555
F0.00036671354486146547
tp4556
(Vshkspr.mobi
p4557
F0.00034314590131385466
tp4558
tp4559
s((S'alpha45.com'
p4560
tp4561
(ttp4562
(ts((S'baidu.com'
p4563
tp4564
(ttp4565
((Vweibo.com
p4566
F0.027237351880198574
tp4567
(Vbilibili.com
p4568
F0.015872227198823714
tp4569
(Vuser.qzone.qq.com
p4570
F0.013327046598158254
tp4571
(Vgoogle.com.hk
p4572
F0.012046312454520806
tp4573
(Vs.taobao.com
p4574
F0.00874462576261445
tp4575
(Vdouban.com
p4576
F0.008413626118841796
tp4577
(Vacfun.tv
p4578
F0.007379018265028736
tp4579
(Vrenren.com
p4580
F0.007066561429865499
tp4581
(Vzhihu.com
p4582
F0.005108085147881503
tp4583
(Vyouku.com
p4584
F0.004951436561725886
tp4585
(Vhao123.com
p4586
F0.0028257992460768403
tp4587
(Vv.youku.com
p4588
F0.002222559857311278
tp4589
tp4590
s((S'.'
p4591
tp4592
(ttp4593
(ts((S'alpha17.com'
p4594
tp4595
(ttp4596
(ts((S'collegehumor.com'
p4597
tp4598
(ttp4599
((Vdorkly.com
p4600
F0.008021933011457285
tp4601
(Vepicfail.com
p4602
F0.0012799687830245953
tp4603
(Vcracked.com
p4604
F0.0010912017310832412
tp4605
(Vwebmail.iac.com
p4606
F0.0010835730286289731
tp4607
(Vfunnyordie.com
p4608
F0.0008083489140107018
tp4609
(Vbitboard.com
p4610
F0.0007468065544100305
tp4611
(Vjakeandamir.com
p4612
F0.000684379580816286
tp4613
(Vsmosh.com
p4614
F0.0005418167439286141
tp4615
(Votaku-streamers.com
p4616
F0.0004226580805814449
tp4617
(Vescapistmagazine.com
p4618
F0.00037066058045890797
tp4619
(Vkillsometime.com
p4620
F0.0003187066730836541
tp4621
(Vexplosm.net
p4622
F0.00020320890175623739
tp4623
(Vslowrobot.com
p4624
F0.00019192407440080052
tp4625
(Vbreak.com
p4626
F0.00014199769895208476
tp4627
(Vcockenblog.tumblr.com
p4628
F0.00013743128785720813
tp4629
tp4630
s((S'safefinder.com'
p4631
tp4632
(ttp4633
((Vca.search.yahoo.com
p4634
F0.0029244510928526416
tp4635
(Vpornhub.com
p4636
F0.001289683158149094
tp4637
(Vapps.facebook.com
p4638
F0.0012647655096910647
tp4639
(Vtuneuppro.com
p4640
F0.0010544851280576753
tp4641
(Vyouporn.com
p4642
F0.0009827774222949221
tp4643
(Vgoogle.co.za
p4644
F0.0009601737530226502
tp4645
(Vfeed.snapdo.com
p4646
F0.0009272621782743603
tp4647
(Vroblox.com
p4648
F0.0007794440513365415
tp4649
(Vxnxx.com
p4650
F0.0006499708133725999
tp4651
(Vlenovo.com
p4652
F0.0006219854391525674
tp4653
(Vmozilla.org
p4654
F0.0004626983764898858
tp4655
(Vstart.sweetpacks.com
p4656
F0.00037309378931740285
tp4657
(Vmypcbackup.com
p4658
F0.00034282324813356824
tp4659
(Vreimageplus.com
p4660
F0.00030580678293120657
tp4661
tp4662
s((S'thoughtbot.com'
p4663
tp4664
(ttp4665
((Vupcase.com
p4666
F0.024989667086915485
tp4667
(Vformkeep.com
p4668
F0.014646203355550037
tp4669
(Vjameschambers.co
p4670
F0.008357425242515544
tp4671
(Vtammersaleh.com
p4672
F0.004943316112993391
tp4673
(Vhoundci.com
p4674
F0.004806836698868746
tp4675
(Vsiyelo.com
p4676
F0.002945051927677963
tp4677
(Vgiantrobots.fm
p4678
F0.00211715962498671
tp4679
(Vmapsdesign.tumblr.com
p4680
F0.002099795643319399
tp4681
(Vapeth.com
p4682
F0.0019577595682550466
tp4683
(Vdevblog.avdi.org
p4684
F0.0019100218616960073
tp4685
(Vacademicwork.se
p4686
F0.0017322341701425485
tp4687
(Vrinse.io
p4688
F0.001560292892647523
tp4689
(Vatomic.io
p4690
F0.0014838520150369518
tp4691
(Vmartialcodex.com
p4692
F0.0014348262119961987
tp4693
(Vlvh.me
p4694
F0.0013953332488518147
tp4695
(Vbrightnewt.com
p4696
F0.0013170589638774016
tp4697
(Vsetentaydos.com
p4698
F0.0012088216882618495
tp4699
(Vryanterry.net
p4700
F0.0011578899857040137
tp4701
(Vdrp.io
p4702
F0.0011536686663590216
tp4703
(Vlaurium.nusii.com
p4704
F0.001150569134284429
tp4705
tp4706
s((S'alpha7.com'
p4707
tp4708
(ttp4709
(ts((S'oranlooney.com'
p4710
tp4711
(ttp4712
((Vnpmjs.org
p4713
F9.37878187396508e-06
tp4714
(Vsearch.disconnect.me
p4715
F2.222519934059104e-06
tp4716
(Vgithub.com
p4717
F1.2404606312831473e-07
tp4718
(Vgoogle.com.ua
p4719
F1.1512227389007056e-07
tp4720
(Vbing.com
p4721
F4.6492935284599696e-08
tp4722
tp4723
s((S'theoldreader.com'
p4724
tp4725
(ttp4726
((Vcluborlov.blogspot.com.br
p4727
F0.001629483712195623
tp4728
(Vhome.nielskim.nl
p4729
F0.001583765973314186
tp4730
(Vboards.cruisecritic.com
p4731
F0.001485453300561661
tp4732
(Vdtmpower.net
p4733
F0.0014122945690184302
tp4734
(Vmail.luetzen.dk
p4735
F0.0011100585027773505
tp4736
(Vportal.filadelfia.br
p4737
F0.0008692568306636837
tp4738
(Vgigabitescafe.com
p4739
F0.0007618165206089385
tp4740
(Vdelphifeeds.com
p4741
F0.0005999661440565003
tp4742
(Vbrusselnieuws.be
p4743
F0.0005860492509324877
tp4744
(Vtheaquilareport.com
p4745
F0.0005821878023734192
tp4746
(Vradionacional.com.ar
p4747
F0.0005543664620062667
tp4748
(Vvott.ru
p4749
F0.0004978213381410596
tp4750
(Vunz.com
p4751
F0.0004920895591088345
tp4752
(Vone.npr.org
p4753
F0.0004875921931996698
tp4754
(Vforum.pdnk.org
p4755
F0.00046894424078728703
tp4756
(Vwebmail.wmich.edu
p4757
F0.0004127460638011333
tp4758
(Vylilauta.org
p4759
F0.0003986461030724298
tp4760
(Vivorytower.com
p4761
F0.0003872626065568982
tp4762
(Vhomebrewchatter.com
p4763
F0.0003844828465516838
tp4764
(Vs126-pl.ogame.gameforge.com
p4765
F0.0003813682539531203
tp4766
tp4767
s((S'docks.qc.ca'
p4768
tp4769
(ttp4770
((Vgoogle.com
p4771
F1.8234564997169045e-08
tp4772
tp4773
s((S'pow.cx'
p4774
tp4775
(ttp4776
(ts((S'github.com'
p4777
tp4778
(ttp4779
((Vcode.google.com
p4780
F0.00407012608671127
tp4781
(Vrubygems.org
p4782
F0.0035773462484789457
tp4783
(Vraw.githubusercontent.com
p4784
F0.0034577717855745157
tp4785
(Vstackoverflow.com
p4786
F0.003441503954031439
tp4787
(Vbitbucket.org
p4788
F0.003385212782873444
tp4789
(Vnpmjs.org
p4790
F0.002854017136546961
tp4791
(Vpypi.python.org
p4792
F0.002706602897481004
tp4793
(Vnews.ycombinator.com
p4794
F0.0019993154488276
tp4795
(Vgit-scm.com
p4796
F0.0019871032599025357
tp4797
(Vdocs.angularjs.org
p4798
F0.0012442907118560913
tp4799
(Vhaxiomic.github.io
p4800
F0.0006659055953985048
tp4801
(Vpivotaltracker.com
p4802
F0.0005625324970995607
tp4803
tp4804
s((S'alpha5.com'
p4805
tp4806
(ttp4807
((Valliedhealthworld.com
p4808
F0.019944027102666077
tp4809
(Vkempsvilleruritanclub.org
p4810
F0.002170740268617562
tp4811
(Vmsgboard.alphasoftware.com
p4812
F0.001026299469818061
tp4813
(Vwhois.com
p4814
F1.4852977486330757e-05
tp4815
tp4816
s((S'youtube.com'
p4817
tp4818
(ttp4819
(ts((S'speakerdeck.com'
p4820
tp4821
(ttp4822
((Vdemo.coffee-themes.com
p4823
F0.0039671592074744305
tp4824
(Vspeakerd.s3.amazonaws.com
p4825
F0.0031840326414409345
tp4826
(Vstartupsmart.com.au
p4827
F0.0024248497613811744
tp4828
(Vmaddisondesigns.com
p4829
F0.0023298317533521225
tp4830
(Vthemes-lab.com
p4831
F0.0022676382593878877
tp4832
(Vfontstruct.com
p4833
F0.0022317005850366494
tp4834
(Vreadability.com
p4835
F0.002135284711928032
tp4836
(Vadmin.smartphone.userlocal.jp
p4837
F0.002003364625203868
tp4838
(Vbagtheweb.com
p4839
F0.001999111954713731
tp4840
(Vclickwork7network.com
p4841
F0.0017965561747034368
tp4842
(Vinteractly.com
p4843
F0.0017284060116690148
tp4844
(Vtest.proxistore.com
p4845
F0.001579048509965591
tp4846
(Vrajhimself.com
p4847
F0.0013000119296729658
tp4848
(Vcodecondo.com
p4849
F0.001220573693455316
tp4850
(Vcss-happylife.com
p4851
F0.0011575611844464764
tp4852
(Vaneventapart.com
p4853
F0.0011068669516008853
tp4854
(Vmaketea.co.uk
p4855
F0.0009992090820833237
tp4856
(V960.gs
p4857
F0.0009955768862741556
tp4858
(Vgrapplemobile.atlassian.net
p4859
F0.000977010403519926
tp4860
(Vadmin.taggedpdf.com.au
p4861
F0.0008888000838847269
tp4862
tp4863
s((S'javascriptkit.com'
p4864
tp4865
(ttp4866
(ts((S'batsov.com'
p4867
tp4868
(ttp4869
((Vblog.rust-lang.org
p4870
F0.0025602059117481963
tp4871
(Vskanev.com
p4872
F0.0022080608194980154
tp4873
(Vbarisyuksel.com
p4874
F0.0017846249100858622
tp4875
(Vclever-cloud.com
p4876
F0.0017729664335737266
tp4877
(Vbotnets.fr
p4878
F0.0017378253485524707
tp4879
(Vemacs.sexy
p4880
F0.0017151187719749593
tp4881
(Vohtatblog.wordpress.com
p4882
F0.0014208184846155637
tp4883
(Vthatthinginswift.com
p4884
F0.0005549820740790072
tp4885
(Vemacswiki.org
p4886
F0.000361288776960209
tp4887
(Vgamasutra.com
p4888
F7.182796042938065e-05
tp4889
(Vcreditkarma.com
p4890
F4.846935431658113e-05
tp4891
(Vde.reddit.com
p4892
F2.1918490506820317e-05
tp4893
(Vgithub.com
p4894
F9.564137939050661e-06
tp4895
(Vpluralsight.com
p4896
F7.698149584786948e-06
tp4897
(Vencrypted.google.com
p4898
F3.904554290440822e-06
tp4899
(Vstackoverflow.com
p4900
F2.7530196598198716e-06
tp4901
(Vsearch.disconnect.me
p4902
F1.452201017759609e-06
tp4903
(Vstartpage.com
p4904
F4.5705844497747614e-07
tp4905
(Vgoogle.com.br
p4906
F2.7313056986275865e-08
tp4907
tp4908
s((S'alpha23.com'
p4909
tp4910
(ttp4911
(ts((S'livejournal.com'
p4912
tp4913
(ttp4914
((Vlenta.ru
p4915
F0.007630193552149961
tp4916
(Vecho.msk.ru
p4917
F0.005440124097184883
tp4918
(Vnewsru.com
p4919
F0.00489071664256173
tp4920
(Vrusvesna.su
p4921
F0.0048745836111702455
tp4922
(Vartlebedev.ru
p4923
F0.00466291265138468
tp4924
(Vnavalny.com
p4925
F0.004605537564307319
tp4926
(Vgazeta.ru
p4927
F0.004564734729053364
tp4928
(Vexler.ru
p4929
F0.004269929777672117
tp4930
(Vrbc.ru
p4931
F0.004190171181083074
tp4932
(Vvoicesevas.ru
p4933
F0.0032223065289894
tp4934
(Vd3.ru
p4935
F0.0009741109205437652
tp4936
tp4937
s((S'tvtropes.org'
p4938
tp4939
(ttp4940
((Vdarthsanddroids.net
p4941
F0.001500247463499134
tp4942
(Vbrianspage.com
p4943
F0.001190719319934098
tp4944
(Vtvsinopse.kinghost.net
p4945
F0.0007400792503836695
tp4946
(Vthatguywiththeglasses.com
p4947
F0.0005833013882610892
tp4948
(Vgingasite.net
p4949
F0.000501607122821144
tp4950
(Vforums.spacebattles.com
p4951
F0.00048495945186655885
tp4952
(Vknowyourmeme.com
p4953
F0.00046413679362313165
tp4954
(Vsomethingawful.com
p4955
F0.00041006250033043837
tp4956
(Vecchi-anime.blogspot.com
p4957
F0.0003929467804378441
tp4958
(Vthe-editing-room.com
p4959
F0.0003602536513208618
tp4960
(Vcrystalhall.org
p4961
F0.0003559825488437577
tp4962
(Vhentai2read.com
p4963
F0.0003398529854742772
tp4964
(V16personalities.com
p4965
F0.0003332813271432821
tp4966
(Vanimenewsnetwork.co.uk
p4967
F0.00027232622901355853
tp4968
(Vparahumans.wordpress.com
p4969
F0.00021676107587459498
tp4970
(Vlesbolution.tumblr.com
p4971
F0.0002133517961502453
tp4972
(Vrpol.net
p4973
F0.00021168773843842435
tp4974
(V1d4chan.org
p4975
F0.00020931403545750485
tp4976
(Vjellyneo.net
p4977
F0.00020794189731850084
tp4978
(Vlddb.com
p4979
F0.00020783572379088003
tp4980
tp4981
s((S'rubyonrails.org'
p4982
tp4983
(ttp4984
((Vapidock.com
p4985
F0.011397494420702052
tp4986
(Vrubygems.org
p4987
F0.008203633250278028
tp4988
(Vgotealeaf.com
p4989
F0.005455874526601032
tp4990
(Vrailstutorial.org
p4991
F0.004871535033275358
tp4992
(Vruby-doc.org
p4993
F0.004805262911288739
tp4994
(Vruby-forum.com
p4995
F0.004490223826882239
tp4996
(Vruby-lang.org
p4997
F0.0032113084093923576
tp4998
(Vbloc.io
p4999
F0.00318059571273871
tp5000
(Vreinteractive.net
p5001
F0.001720967333430777
tp5002
(Vrelishapp.com
p5003
F0.0013700371245817546
tp5004
(Vjira.greenmile.com
p5005
F0.0012420964931221224
tp5006
(Vamberbit.com
p5007
F0.0011787522780099952
tp5008
(Vruby-china.org
p5009
F0.000915150624069657
tp5010
(Vrails.org
p5011
F0.0008464418997255876
tp5012
(Vrailsforzombies.org
p5013
F0.0007531036531073972
tp5014
tp5015
s((S'bbc.co.uk'
p5016
tp5017
(ttp5018
((Vtheguardian.com
p5019
F0.005088657297280494
tp5020
(Vgoogle.co.uk
p5021
F0.0048885746025793785
tp5022
(Vdailymail.co.uk
p5023
F0.0039057337262425624
tp5024
(Vitv.com
p5025
F0.003679825184559333
tp5026
(Vchannel4.com
p5027
F0.0033050800389549597
tp5028
(Vradiofarda.com
p5029
F0.0027556011474314124
tp5030
(Vamazon.co.uk
p5031
F0.002622046319871563
tp5032
(Vbbcpersian.com
p5033
F0.0023148103512629077
tp5034
(Vhotukdeals.com
p5035
F0.001549231478388807
tp5036
(Vwww1.skysports.com
p5037
F0.001469809432519245
tp5038
(Vuk.search.yahoo.com
p5039
F0.0008524752807078012
tp5040
(Vebay.co.uk
p5041
F0.0006278903848877499
tp5042
tp5043
s((S'fabiensanglard.net'
p5044
tp5045
(ttp5046
((Vnom.com
p5047
F0.016733385481372414
tp5048
(Vmeet.emulex.com
p5049
F0.009327642729015897
tp5050
(Vemulex.my.salesforce.com
p5051
F0.009142718564326422
tp5052
(Vasicweb.emulex.com
p5053
F0.007491289198606272
tp5054
(Vopenhighschoolcourses.org
p5055
F0.006642895061989392
tp5056
(Vneilblevins.com
p5057
F0.004470560344097675
tp5058
(Vlinor.fr
p5059
F0.0038202984095753404
tp5060
(Vhmsconfluence.activision.com
p5061
F0.003148796306750467
tp5062
(Vdevinsmith.net
p5063
F0.002372270790317621
tp5064
(Vhobbygamedev.com
p5065
F0.0022267112008906844
tp5066
(Vthink-like-a-git.net
p5067
F0.002052212874160923
tp5068
(Vgamedev.stackexchange.com
p5069
F0.0019690283982804094
tp5070
(Vgp32spain.com
p5071
F0.0015787369595053969
tp5072
(Vsda.se
p5073
F0.0014976407646989833
tp5074
(Vbenefitsmedical.com
p5075
F0.0014063662602922299
tp5076
(Vengineering.zenpayroll.com
p5077
F0.0013555184723144803
tp5078
(Vblog.yourkarma.com
p5079
F0.0011144507108844686
tp5080
(Vshoutem.slack.com
p5081
F0.0007275420982314113
tp5082
(Vwiki.mcselec.com
p5083
F0.0004583651642475172
tp5084
(Vopengl.org
p5085
F0.000321510536147959
tp5086
tp5087
s((S'coffeescript.org'
p5088
tp5089
(ttp5090
((Vjs2coffee.org
p5091
F0.020693182805269154
tp5092
(Vcoffeescriptcookbook.com
p5093
F0.014455852566642792
tp5094
(Vjashkenas.github.io
p5095
F0.00597237858670336
tp5096
(Vqt.digia.com
p5097
F0.004797684021126827
tp5098
(Vsfx-preprod.stickyadstv.com
p5099
F0.0027912496327303117
tp5100
(Vjavascriptlint.com
p5101
F0.002506203361792715
tp5102
(Vpartners.lvh.me
p5103
F0.0023582097429332553
tp5104
(Varcturo.github.io
p5105
F0.0020018046119188045
tp5106
(Vzaach.github.io
p5107
F0.0015149175427134683
tp5108
(Vcodewars.com
p5109
F0.0013883333963012228
tp5110
(Vknockoutjs.com
p5111
F0.001286273833775628
tp5112
(Vunderscorejs.org
p5113
F0.0012831854535160887
tp5114
(Vricardo.cc
p5115
F0.0012189409076568609
tp5116
(Vmaxtaco.github.io
p5117
F0.001213609594430271
tp5118
(Vangular.ru
p5119
F0.0012103536082053226
tp5120
(Vevanhahn.com
p5121
F0.0011630444344667876
tp5122
(Vww2.coffescript.org
p5123
F0.001032622426625998
tp5124
(Vgateway.asebis.com
p5125
F0.0009404174612931528
tp5126
(Vlvh.me
p5127
F0.0008143742914703072
tp5128
(Vswdev.com
p5129
F0.0008014909843128782
tp5130
tp5131
s((S'mortgagecalculator.org'
p5132
tp5133
(ttp5134
((Vmlstoledo.com
p5135
F0.002289881028527568
tp5136
(Vecf.ganb.uscourts.gov
p5137
F0.002150350332913875
tp5138
(Vsef.fusionmls.com
p5139
F0.0017126636580814146
tp5140
(Vnom.fusionmls.com
p5141
F0.0012663389234897188
tp5142
(Vmoneychimp.com
p5143
F0.0010296039907220602
tp5144
(Vnexusthemes.com
p5145
F0.0009361985436735829
tp5146
(Vluminouswm.com
p5147
F0.0007395303318144178
tp5148
(Vtn-murfreesboro.civicplus.com
p5149
F0.0007395303318144178
tp5150
(Vturquoisekosherfish.com
p5151
F0.0007395303318144178
tp5152
(Vtour.nneren.previsite.com
p5153
F0.0007377367825841108
tp5154
(Vpopville.wpengine.netdna-cdn.com
p5155
F0.0007369530082134957
tp5156
(Vstjosephcountyindiana.com
p5157
F0.0007309605565805052
tp5158
(Vbestplaces.coldwellbanker.com
p5159
F0.0007305960044710725
tp5160
(Vloftplace.com
p5161
F0.0007303300151423214
tp5162
(Vmyutahnest.com
p5163
F0.0007207697129977007
tp5164
(Vmatrix.carolinamls.com
p5165
F0.0006728210371216791
tp5166
(Vatproperties.com
p5167
F0.0004691549728514806
tp5168
(Vmatrix.mlslistings.com
p5169
F0.00043129308413106487
tp5170
(Vbrighton-exchange.com
p5171
F0.0003896827677490704
tp5172
(Vmortgagcalculator.org
p5173
F0.0003896827677490704
tp5174
tp5175
s.