(dp0
((S'http://groovorio.com'
p1
tp2
(ttp3
g1
s((S'http://bing.com'
p4
tp5
(ttp6
g4
s((S'http://api.doc.com'
p7
tp8
(ttp9
g7
s((S'http://youtube.com'
p10
tp11
(ttp12
g10
s((S'http://apreche.net'
p13
tp14
(ttp15
g13
s((S'http://brawlinthefamily.keenspot.com'
p16
tp17
(ttp18
g16
s((S'http://libc6.org'
p19
tp20
(ttp21
g19
s((S'http://login.microsoftonline.com'
p22
tp23
(ttp24
g22
s((S'http://overmanforum.com'
p25
tp26
(ttp27
g25
s((S'http://rubygems.org'
p28
tp29
(ttp30
S'rubygems.org'
p31
s((S'http://ask.fm'
p32
tp33
(ttp34
g32
s((S'http://docs.djangoproject.com'
p35
tp36
(ttp37
g35
s((S'http://tumblr.com'
p38
tp39
(ttp40
g38
s((S'http://toolslib.net'
p41
tp42
(ttp43
g41
s((S'http://mako.co.il'
p44
tp45
(ttp46
S'mako.co.il'
p47
s((S'http://twitter.com'
p48
tp49
(ttp50
g48
s((S'http://apidock.com'
p51
tp52
(ttp53
S'apidock.com'
p54
s((S'http://theguardian.com'
p55
tp56
(ttp57
g55
s((S'http://mysearch.avg.com'
p58
tp59
(ttp60
g58
s((S'http://easylist.adblockplus.org'
p61
tp62
(ttp63
g61
s((S'http://ref.xaio.jp'
p64
tp65
(ttp66
S'xaio.jp'
p67
s((S'http://rubymonk.com'
p68
tp69
(ttp70
S'rubymonk.com'
p71
s((S'http://webmail.w14a.comcast.net'
p72
tp73
(ttp74
S'comcast.net'
p75
s((S'http://user.qzone.qq.com'
p76
tp77
(ttp78
g76
s((S'http://forums.malwarebytes.org'
p79
tp80
(ttp81
g79
s((S'http://mortgagenewsdaily.com'
p82
tp83
(ttp84
g82
s((S'http://pythonhosted.org'
p85
tp86
(ttp87
g85
s((S'http://nrg.co.il'
p88
tp89
(ttp90
g88
s((S'http://escapistmagazine.com'
p91
tp92
(ttp93
g91
s((S'http://tenprinthello.ca'
p94
tp95
(ttp96
g94
s((S'http://ruby-toolbox.com'
p97
tp98
(ttp99
g97
s((S'http://assbutt-inthetardis-withsherlock.tumblr.com'
p100
tp101
(ttp102
g100
s((S'http://s.taobao.com'
p103
tp104
(ttp105
g103
s((S'http://hackernews.net'
p106
tp107
(ttp108
g106
s((S'http://zhihu.com'
p109
tp110
(ttp111
g109
s((S'http://deconetworks.com'
p112
tp113
(ttp114
S'deconetworks.com'
p115
s((S'http://banrate.com'
p116
tp117
(ttp118
g116
s((S'http://instagram.com'
p119
tp120
(ttp121
g119
s((S'http://collegehumor.com'
p122
tp123
(ttp124
g122
s((S'http://w3.kubotalink.com'
p125
tp126
(ttp127
g125
s((S'http://t.co'
p128
tp129
(ttp130
g128
s((S'http://e.mail.ru'
p131
tp132
(ttp133
g131
s((S'http://cas-01.uni.ad.sunderland.ac.uk'
p134
tp135
(ttp136
S'sunderland.ac.uk'
p137
s((S'http://ruby-forum.com'
p138
tp139
(ttp140
S'ruby-forum.com'
p141
s((S'http://the-whiteboard.com'
p142
tp143
(ttp144
g142
s((S'http://one.co.il'
p145
tp146
(ttp147
S'one.co.il'
p148
s((S'http://djangoproject.com'
p149
tp150
(ttp151
g149
s((S'http://naturpixel.com'
p152
tp153
(ttp154
S'naturpixel.com'
p155
s((S'http://dailymail.co.uk'
p156
tp157
(ttp158
g156
s((S'http://ca.search.yahoo.com'
p159
tp160
(ttp161
g159
s((S'http://guides.ruby.tw'
p162
tp163
(ttp164
g162
s((S'http://yahoo.com'
p165
tp166
(ttp167
g165
s((S'http://zhidaow.com'
p168
tp169
(ttp170
g168
s((S'http://ruby-lang.org'
p171
tp172
(ttp173
S'ruby-lang.org'
p174
s((S'http://search.safefinder.com'
p175
tp176
(ttp177
g175
s((S'http://awkwardzombie.com'
p178
tp179
(ttp180
g178
s((S'http://bbc.co.uk'
p181
tp182
(ttp183
g181
s((S'http://git.wogon.eu'
p184
tp185
(ttp186
g184
s((S'http://netshaker.co.uk'
p187
tp188
(ttp189
g187
s((S'http://didyouknowgaming.com'
p190
tp191
(ttp192
g190
s((S'http://quickenloans.com'
p193
tp194
(ttp195
g193
s((S'http://logentries.com'
p196
tp197
(ttp198
g196
s((S'http://api.gehealthcare.com'
p199
tp200
(ttp201
g199
s((S'http://indiegogo.com'
p202
tp203
(ttp204
g202
s((S'http://he.wikipedia.org'
p205
tp206
(ttp207
S'wikipedia.org'
p208
s((S'http://pinterest.com'
p209
tp210
(ttp211
g209
s((S'http://astromenda.com'
p212
tp213
(ttp214
g212
s((S'http://tessera.com'
p215
tp216
(ttp217
g215
s((S'http://freddiemac.com'
p218
tp219
(ttp220
g218
s((S'http://weibo.com'
p221
tp222
(ttp223
g221
s((S'http://search.disconnect.me'
p224
tp225
(ttp226
g224
s((S'http://djangopackages.com'
p227
tp228
(ttp229
g227
s((S'http://mail.office365.com'
p230
tp231
(ttp232
g230
s((S'http://amazon.com'
p233
tp234
(ttp235
S'amazon.com'
p236
s((S'http://listverse.com'
p237
tp238
(ttp239
g237
s((S'http://letsaskviolet.com'
p240
tp241
(ttp242
g240
s((S'http://baidu.com'
p243
tp244
(ttp245
g243
s((S'http://amazon.co.uk'
p246
tp247
(ttp248
g246
s((S'http://istart.webssearches.com'
p249
tp250
(ttp251
g249
s((S'http://dorkly.com'
p252
tp253
(ttp254
g252
s((S'http://walla.co.il'
p255
tp256
(ttp257
S'walla.co.il'
p258
s((S'http://viadeo.com'
p259
tp260
(ttp261
g259
s((S'http://heard-comic.com'
p262
tp263
(ttp264
g262
s((S'http://haaretz.co.il'
p265
tp266
(ttp267
g265
s((S'http://js2coffee.org'
p268
tp269
(ttp270
g268
s((S'http://us-mg6.mail.yahoo.com'
p271
tp272
(ttp273
g271
s((S'http://default-search.net'
p274
tp275
(ttp276
g274
s((S'http://offers.bycontext.com'
p277
tp278
(ttp279
g277
s((S'http://deviantart.com'
p280
tp281
(ttp282
g280
s((S'http://douban.com'
p283
tp284
(ttp285
g283
s((S'http://railstutorial.org'
p286
tp287
(ttp288
g286
s((S'http://michal.karzynski.pl'
p289
tp290
(ttp291
g289
s((S'http://ebay.co.uk'
p292
tp293
(ttp294
g292
s((S'http://buzzfeed.com'
p295
tp296
(ttp297
g295
s((S'http://cr2.gogorithm.com'
p298
tp299
(ttp300
g298
s((S'http://stackexchange.com'
p301
tp302
(ttp303
g301
s((S'http://bilibili.com'
p304
tp305
(ttp306
g304
s((S'http://w3school.com'
p307
tp308
(ttp309
S'w3school.com'
p310
s((S'http://django-avatar.readthedocs.org'
p311
tp312
(ttp313
g311
s((S'http://sport5.co.il'
p314
tp315
(ttp316
S'sport5.co.il'
p317
s((S'http://rubyonrails.org'
p318
tp319
(ttp320
g318
s((S'http://karamicrabbit.tumblr.com'
p321
tp322
(ttp323
g321
s((S'http://tuneuppro.com'
p324
tp325
(ttp326
g324
s((S'http://hsh.com'
p327
tp328
(ttp329
g327
s((S'http://uk.search.yahoo.com'
p330
tp331
(ttp332
g330
s((S'http://archive.today'
p333
tp334
(ttp335
g333
s((S'http://optimalblue.com'
p336
tp337
(ttp338
g336
s((S'http://pcmag.com'
p339
tp340
(ttp341
g339
s((S'http://api.rubyonrails.org'
p342
tp343
(ttp344
S'rubyonrails.org'
p345
s((S'http://rubyforge.org'
p346
tp347
(ttp348
g346
s((S'http://new-startups.com'
p349
tp350
(ttp351
g349
s((S'http://aliendice.com'
p352
tp353
(ttp354
g352
s((S'http://hackerluddite.wordpress.com'
p355
tp356
(ttp357
g355
s((S'http://xing.com'
p358
tp359
(ttp360
g358
s((S'http://dockandslip.com'
p361
tp362
(ttp363
g361
s((S'http://blog.mathieu-leplatre.info'
p364
tp365
(ttp366
g364
s((S'http://jewishjournal.com'
p367
tp368
(ttp369
g367
s((S'http://gotealeaf.com'
p370
tp371
(ttp372
g370
s((S'http://indeed.com'
p373
tp374
(ttp375
g373
s((S'http://boardgamegeek.com'
p376
tp377
(ttp378
g376
s((S'http://mortgagecalculator.org'
p379
tp380
(ttp381
g379
s((S'http://freepythontips.wordpress.com'
p382
tp383
(ttp384
g382
s((S'http://renren.com'
p385
tp386
(ttp387
g385
s((S'http://forums.techguy.org'
p388
tp389
(ttp390
g388
s((S'http://setareasemany.persianblog.ir'
p391
tp392
(ttp393
g391
s((S'http://coffeescriptcookbook.com'
p394
tp395
(ttp396
g394
s((S'http://ineffableaether.com'
p397
tp398
(ttp399
g397
s((S'http://linkedin.com'
p400
tp401
(ttp402
g400
s((S'http://netlore.ru'
p403
tp404
(ttp405
g403
s((S'http://kramererik.deviantart.com'
p406
tp407
(ttp408
g406
s((S'http://twitch.tv'
p409
tp410
(ttp411
g409
s((S'http://docks.qc.ca'
p412
tp413
(ttp414
g412
s((S'http://reddit.com'
p415
tp416
(ttp417
g415
s((S'http://facebook.com'
p418
tp419
(ttp420
g418
s((S'http://darthsanddroids.net'
p421
tp422
(ttp423
g421
s((S'http://vidshaker.com'
p424
tp425
(ttp426
g424
s((S'http://puckcomics.com'
p427
tp428
(ttp429
g427
s((S'http://explosm.net'
p430
tp431
(ttp432
g430
s((S'http://search.sidecubes.com'
p433
tp434
(ttp435
g433
s((S'http://distroshare.com'
p436
tp437
(ttp438
S'distroshare.com'
p439
s.