(dp0
((S'http://groovorio.com'
p1
tp2
(ttp3
g1
s((S'http://bing.com'
p4
tp5
(ttp6
g4
s((S'http://api.doc.com'
p7
tp8
(ttp9
g7
s((S'http://youtube.com'
p10
tp11
(ttp12
g10
s((S'http://apreche.net'
p13
tp14
(ttp15
g13
s((S'http://brawlinthefamily.keenspot.com'
p16
tp17
(ttp18
g16
s((S'http://libc6.org'
p19
tp20
(ttp21
g19
s((S'http://hotukdeals.com'
p22
tp23
(ttp24
g22
s((S'http://payplug.fr'
p25
tp26
(ttp27
g25
s((S'http://login.microsoftonline.com'
p28
tp29
(ttp30
g28
s((S'http://heard-comic.com'
p31
tp32
(ttp33
g31
s((S'http://ask.fm'
p34
tp35
(ttp36
g34
s((S'http://docs.djangoproject.com'
p37
tp38
(ttp39
g37
s((S'http://tumblr.com'
p40
tp41
(ttp42
g40
s((S'http://toolslib.net'
p43
tp44
(ttp45
g43
s((S'http://mako.co.il'
p46
tp47
(ttp48
S'mako.co.il'
p49
s((S'http://twitter.com'
p50
tp51
(ttp52
g50
s((S'http://highlightjs.org'
p53
tp54
(ttp55
g53
s((S'http://theguardian.com'
p56
tp57
(ttp58
g56
s((S'http://mysearch.avg.com'
p59
tp60
(ttp61
g59
s((S'http://ref.xaio.jp'
p62
tp63
(ttp64
S'xaio.jp'
p65
s((S'http://rubymonk.com'
p66
tp67
(ttp68
S'rubymonk.com'
p69
s((S'http://webmail.w14a.comcast.net'
p70
tp71
(ttp72
S'comcast.net'
p73
s((S'http://user.qzone.qq.com'
p74
tp75
(ttp76
g74
s((S'http://forums.malwarebytes.org'
p77
tp78
(ttp79
g77
s((S'http://renren.com'
p80
tp81
(ttp82
g80
s((S'http://mortgagenewsdaily.com'
p83
tp84
(ttp85
g83
s((S'http://pythonhosted.org'
p86
tp87
(ttp88
g86
s((S'http://nrg.co.il'
p89
tp90
(ttp91
g89
s((S'http://escapistmagazine.com'
p92
tp93
(ttp94
g92
s((S'http://tenprinthello.ca'
p95
tp96
(ttp97
g95
s((S'http://ruby-lang.org'
p98
tp99
(ttp100
S'ruby-lang.org'
p101
s((S'http://assbutt-inthetardis-withsherlock.tumblr.com'
p102
tp103
(ttp104
g102
s((S'http://s.taobao.com'
p105
tp106
(ttp107
g105
s((S'http://ruby-toolbox.com'
p108
tp109
(ttp110
g108
s((S'http://offers.bycontext.com'
p111
tp112
(ttp113
g111
s((S'http://zhihu.com'
p114
tp115
(ttp116
g114
s((S'http://deviantart.com'
p117
tp118
(ttp119
g117
s((S'http://banrate.com'
p120
tp121
(ttp122
g120
s((S'http://instagram.com'
p123
tp124
(ttp125
g123
s((S'http://apidock.com'
p126
tp127
(ttp128
S'apidock.com'
p129
s((S'http://w3.kubotalink.com'
p130
tp131
(ttp132
g130
s((S'http://stackexchange.com'
p133
tp134
(ttp135
g133
s((S'http://t.co'
p136
tp137
(ttp138
g136
s((S'http://e.mail.ru'
p139
tp140
(ttp141
g139
s((S'http://eksisozluk.com'
p142
tp143
(ttp144
g142
s((S'http://cas-01.uni.ad.sunderland.ac.uk'
p145
tp146
(ttp147
S'sunderland.ac.uk'
p148
s((S'http://ruby-forum.com'
p149
tp150
(ttp151
S'ruby-forum.com'
p152
s((S'http://the-whiteboard.com'
p153
tp154
(ttp155
g153
s((S'http://one.co.il'
p156
tp157
(ttp158
S'one.co.il'
p159
s((S'http://l.moapi.net'
p160
tp161
(ttp162
g160
s((S'http://djangoproject.com'
p163
tp164
(ttp165
g163
s((S'http://naturpixel.com'
p166
tp167
(ttp168
S'naturpixel.com'
p169
s((S'http://answers.yahoo.com'
p170
tp171
(ttp172
g170
s((S'http://ca.search.yahoo.com'
p173
tp174
(ttp175
g173
s((S'http://guides.ruby.tw'
p176
tp177
(ttp178
g176
s((S'http://aliendice.com'
p179
tp180
(ttp181
g179
s((S'http://zhidaow.com'
p182
tp183
(ttp184
g182
s((S'http://easylist.adblockplus.org'
p185
tp186
(ttp187
g185
s((S'http://search.safefinder.com'
p188
tp189
(ttp190
g188
s((S'http://awkwardzombie.com'
p191
tp192
(ttp193
g191
s((S'http://bbc.co.uk'
p194
tp195
(ttp196
g194
s((S'http://git.wogon.eu'
p197
tp198
(ttp199
g197
s((S'http://netshaker.co.uk'
p200
tp201
(ttp202
g200
s((S'http://princeton.edu'
p203
tp204
(ttp205
g203
s((S'http://didyouknowgaming.com'
p206
tp207
(ttp208
g206
s((S'http://quickenloans.com'
p209
tp210
(ttp211
g209
s((S'http://logentries.com'
p212
tp213
(ttp214
g212
s((S'http://api.gehealthcare.com'
p215
tp216
(ttp217
g215
s((S'http://indiegogo.com'
p218
tp219
(ttp220
g218
s((S'http://he.wikipedia.org'
p221
tp222
(ttp223
S'wikipedia.org'
p224
s((S'http://pinterest.com'
p225
tp226
(ttp227
g225
s((S'http://astromenda.com'
p228
tp229
(ttp230
g228
s((S'http://ptt.cc'
p231
tp232
(ttp233
g231
s((S'http://tessera.com'
p234
tp235
(ttp236
g234
s((S'http://freddiemac.com'
p237
tp238
(ttp239
g237
s((S'http://weibo.com'
p240
tp241
(ttp242
g240
s((S'http://search.disconnect.me'
p243
tp244
(ttp245
g243
s((S'http://djangopackages.com'
p246
tp247
(ttp248
g246
s((S'http://mail.office365.com'
p249
tp250
(ttp251
g249
s((S'http://amazon.com'
p252
tp253
(ttp254
S'amazon.com'
p255
s((S'http://listverse.com'
p256
tp257
(ttp258
g256
s((S'http://letsaskviolet.com'
p259
tp260
(ttp261
g259
s((S'http://baidu.com'
p262
tp263
(ttp264
g262
s((S'http://amazon.co.uk'
p265
tp266
(ttp267
g265
s((S'http://istart.webssearches.com'
p268
tp269
(ttp270
g268
s((S'http://dorkly.com'
p271
tp272
(ttp273
g271
s((S'http://walla.co.il'
p274
tp275
(ttp276
S'walla.co.il'
p277
s((S'http://viadeo.com'
p278
tp279
(ttp280
g278
s((S'http://overmanforum.com'
p281
tp282
(ttp283
g281
s((S'http://haaretz.co.il'
p284
tp285
(ttp286
g284
s((S'http://js2coffee.org'
p287
tp288
(ttp289
g287
s((S'http://us-mg6.mail.yahoo.com'
p290
tp291
(ttp292
g290
s((S'http://steamcommunity.com'
p293
tp294
(ttp295
g293
s((S'http://default-search.net'
p296
tp297
(ttp298
g296
s((S'http://sublime.wbond.net'
p299
tp300
(ttp301
g299
s((S'http://hackernews.net'
p302
tp303
(ttp304
g302
s((S'http://deconetworks.com'
p305
tp306
(ttp307
S'deconetworks.com'
p308
s((S'http://douban.com'
p309
tp310
(ttp311
g309
s((S'http://railstutorial.org'
p312
tp313
(ttp314
g312
s((S'http://michal.karzynski.pl'
p315
tp316
(ttp317
g315
s((S'http://ebay.co.uk'
p318
tp319
(ttp320
g318
s((S'http://buzzfeed.com'
p321
tp322
(ttp323
g321
s((S'http://cr2.gogorithm.com'
p324
tp325
(ttp326
g324
s((S'http://collegehumor.com'
p327
tp328
(ttp329
g327
s((S'http://bilibili.com'
p330
tp331
(ttp332
g330
s((S'http://w3school.com'
p333
tp334
(ttp335
S'w3school.com'
p336
s((S'http://django-avatar.readthedocs.org'
p337
tp338
(ttp339
g337
s((S'http://sport5.co.il'
p340
tp341
(ttp342
S'sport5.co.il'
p343
s((S'http://rubyonrails.org'
p344
tp345
(ttp346
g344
s((S'http://karamicrabbit.tumblr.com'
p347
tp348
(ttp349
g347
s((S'http://tuneuppro.com'
p350
tp351
(ttp352
g350
s((S'http://hsh.com'
p353
tp354
(ttp355
g353
s((S'http://uk.search.yahoo.com'
p356
tp357
(ttp358
g356
s((S'http://archive.today'
p359
tp360
(ttp361
g359
s((S'http://optimalblue.com'
p362
tp363
(ttp364
g362
s((S'http://pcmag.com'
p365
tp366
(ttp367
g365
s((S'http://api.rubyonrails.org'
p368
tp369
(ttp370
S'rubyonrails.org'
p371
s((S'http://comment-supprimer.com'
p372
tp373
(ttp374
g372
s((S'http://rubyforge.org'
p375
tp376
(ttp377
g375
s((S'http://new-startups.com'
p378
tp379
(ttp380
g378
s((S'http://yahoo.com'
p381
tp382
(ttp383
g381
s((S'http://hackerluddite.wordpress.com'
p384
tp385
(ttp386
g384
s((S'http://xing.com'
p387
tp388
(ttp389
g387
s((S'http://dockandslip.com'
p390
tp391
(ttp392
g390
s((S'http://blog.mathieu-leplatre.info'
p393
tp394
(ttp395
g393
s((S'http://jewishjournal.com'
p396
tp397
(ttp398
g396
s((S'http://gotealeaf.com'
p399
tp400
(ttp401
g399
s((S'http://indeed.com'
p402
tp403
(ttp404
g402
s((S'http://radikal.com.tr'
p405
tp406
(ttp407
g405
s((S'http://boardgamegeek.com'
p408
tp409
(ttp410
g408
s((S'http://mortgagecalculator.org'
p411
tp412
(ttp413
g411
s((S'http://rubygems.org'
p414
tp415
(ttp416
S'rubygems.org'
p417
s((S'http://freepythontips.wordpress.com'
p418
tp419
(ttp420
g418
s((S'http://dailymail.co.uk'
p421
tp422
(ttp423
g421
s((S'http://forums.techguy.org'
p424
tp425
(ttp426
g424
s((S'http://setareasemany.persianblog.ir'
p427
tp428
(ttp429
g427
s((S'http://coffeescriptcookbook.com'
p430
tp431
(ttp432
g430
s((S'http://ineffableaether.com'
p433
tp434
(ttp435
g433
s((S'http://linkedin.com'
p436
tp437
(ttp438
g436
s((S'http://netlore.ru'
p439
tp440
(ttp441
g439
s((S'http://kramererik.deviantart.com'
p442
tp443
(ttp444
g442
s((S'http://twitch.tv'
p445
tp446
(ttp447
g445
s((S'http://docks.qc.ca'
p448
tp449
(ttp450
g448
s((S'http://reddit.com'
p451
tp452
(ttp453
g451
s((S'http://facebook.com'
p454
tp455
(ttp456
g454
s((S'http://darthsanddroids.net'
p457
tp458
(ttp459
g457
s((S'http://vidshaker.com'
p460
tp461
(ttp462
g460
s((S'http://puckcomics.com'
p463
tp464
(ttp465
g463
s((S'http://explosm.net'
p466
tp467
(ttp468
g466
s((S'http://search.sidecubes.com'
p469
tp470
(ttp471
g469
s((S'http://distroshare.com'
p472
tp473
(ttp474
S'distroshare.com'
p475
s.