(dp0
((S'http://walla.co.il'
p1
tp2
(ttp3
S'walla.co.il'
p4
s((S'http://dockandslip.com'
p5
tp6
(ttp7
g5
s((S'http://archive.today'
p8
tp9
(ttp10
g8
s((S'http://api.doc.com'
p11
tp12
(ttp13
g11
s((S'http://apidock.com'
p14
tp15
(ttp16
S'apidock.com'
p17
s((S'http://brawlinthefamily.keenspot.com'
p18
tp19
(ttp20
g18
s((S'http://cas-01.uni.ad.sunderland.ac.uk'
p21
tp22
(ttp23
S'sunderland.ac.uk'
p24
s((S'http://ruby-forum.com'
p25
tp26
(ttp27
S'ruby-forum.com'
p28
s((S'http://one.co.il'
p29
tp30
(ttp31
S'one.co.il'
p32
s((S'http://explosm.net'
p33
tp34
(ttp35
g33
s((S'http://railstutorial.org'
p36
tp37
(ttp38
g36
s((S'http://naturpixel.com'
p39
tp40
(ttp41
S'naturpixel.com'
p42
s((S'http://collegehumor.com'
p43
tp44
(ttp45
g43
s((S'http://mako.co.il'
p46
tp47
(ttp48
S'mako.co.il'
p49
s((S'http://rubygems.org'
p50
tp51
(ttp52
S'rubygems.org'
p53
s((S'http://guides.ruby.tw'
p54
tp55
(ttp56
g54
s((S'http://ruby-lang.org'
p57
tp58
(ttp59
S'ruby-lang.org'
p60
s((S'http://w3school.com'
p61
tp62
(ttp63
S'w3school.com'
p64
s((S'http://awkwardzombie.com'
p65
tp66
(ttp67
g65
s((S'http://ref.xaio.jp'
p68
tp69
(ttp70
S'xaio.jp'
p71
s((S'http://rubymonk.com'
p72
tp73
(ttp74
S'rubymonk.com'
p75
s((S'http://webmail.w14a.comcast.net'
p76
tp77
(ttp78
S'comcast.net'
p79
s((S'http://sport5.co.il'
p80
tp81
(ttp82
S'sport5.co.il'
p83
s((S'http://didyouknowgaming.com'
p84
tp85
(ttp86
g84
s((S'http://logentries.com'
p87
tp88
(ttp89
g87
s((S'http://api.gehealthcare.com'
p90
tp91
(ttp92
g90
s((S'http://netlore.ru'
p93
tp94
(ttp95
g93
s((S'http://he.wikipedia.org'
p96
tp97
(ttp98
S'wikipedia.org'
p99
s((S'http://dorkly.com'
p100
tp101
(ttp102
g100
s((S'http://tessera.com'
p103
tp104
(ttp105
g103
s((S'http://docks.qc.ca'
p106
tp107
(ttp108
g106
s((S'http://api.rubyonrails.org'
p109
tp110
(ttp111
S'rubyonrails.org'
p112
s((S'http://escapistmagazine.com'
p113
tp114
(ttp115
g113
s((S'http://rubyforge.org'
p116
tp117
(ttp118
g116
s((S'http://amazon.com'
p119
tp120
(ttp121
S'amazon.com'
p122
s((S'http://new-startups.com'
p123
tp124
(ttp125
g123
s((S'http://listverse.com'
p126
tp127
(ttp128
g126
s((S'http://gotealeaf.com'
p129
tp130
(ttp131
g129
s((S'http://distroshare.com'
p132
tp133
(ttp134
S'distroshare.com'
p135
s((S'http://deconetworks.com'
p136
tp137
(ttp138
S'deconetworks.com'
p139
s.