(dp0
((S'http://walla.co.il'
p1
tp2
(ttp3
S'walla.co.il'
p4
s((S'http://dockandslip.com'
p5
tp6
(ttp7
g5
s((S'http://dorkly.com'
p8
tp9
(ttp10
g8
s((S'http://api.doc.com'
p11
tp12
(ttp13
g11
s((S'http://apidock.com'
p14
tp15
(ttp16
S'apidock.com'
p17
s((S'http://puckcomics.com'
p18
tp19
(ttp20
g18
s((S'http://brawlinthefamily.keenspot.com'
p21
tp22
(ttp23
g21
s((S'http://cas-01.uni.ad.sunderland.ac.uk'
p24
tp25
(ttp26
S'sunderland.ac.uk'
p27
s((S'http://ruby-forum.com'
p28
tp29
(ttp30
S'ruby-forum.com'
p31
s((S'http://the-whiteboard.com'
p32
tp33
(ttp34
g32
s((S'http://one.co.il'
p35
tp36
(ttp37
S'one.co.il'
p38
s((S'http://railstutorial.org'
p39
tp40
(ttp41
g39
s((S'http://letsaskviolet.com'
p42
tp43
(ttp44
g42
s((S'http://new-startups.com'
p45
tp46
(ttp47
g45
s((S'http://naturpixel.com'
p48
tp49
(ttp50
S'naturpixel.com'
p51
s((S'http://collegehumor.com'
p52
tp53
(ttp54
g52
s((S'http://mako.co.il'
p55
tp56
(ttp57
S'mako.co.il'
p58
s((S'http://rubygems.org'
p59
tp60
(ttp61
S'rubygems.org'
p62
s((S'http://guides.ruby.tw'
p63
tp64
(ttp65
g63
s((S'http://ruby-lang.org'
p66
tp67
(ttp68
S'ruby-lang.org'
p69
s((S'http://w3school.com'
p70
tp71
(ttp72
S'w3school.com'
p73
s((S'http://awkwardzombie.com'
p74
tp75
(ttp76
g74
s((S'http://ineffableaether.com'
p77
tp78
(ttp79
g77
s((S'http://ref.xaio.jp'
p80
tp81
(ttp82
S'xaio.jp'
p83
s((S'http://rubymonk.com'
p84
tp85
(ttp86
S'rubymonk.com'
p87
s((S'http://webmail.w14a.comcast.net'
p88
tp89
(ttp90
S'comcast.net'
p91
s((S'http://sport5.co.il'
p92
tp93
(ttp94
S'sport5.co.il'
p95
s((S'http://didyouknowgaming.com'
p96
tp97
(ttp98
g96
s((S'http://logentries.com'
p99
tp100
(ttp101
g99
s((S'http://api.gehealthcare.com'
p102
tp103
(ttp104
g102
s((S'http://netlore.ru'
p105
tp106
(ttp107
g105
s((S'http://he.wikipedia.org'
p108
tp109
(ttp110
S'wikipedia.org'
p111
s((S'http://archive.today'
p112
tp113
(ttp114
g112
s((S'http://tessera.com'
p115
tp116
(ttp117
g115
s((S'http://docks.qc.ca'
p118
tp119
(ttp120
g118
s((S'http://api.rubyonrails.org'
p121
tp122
(ttp123
S'rubyonrails.org'
p124
s((S'http://escapistmagazine.com'
p125
tp126
(ttp127
g125
s((S'http://rubyforge.org'
p128
tp129
(ttp130
g128
s((S'http://amazon.com'
p131
tp132
(ttp133
S'amazon.com'
p134
s((S'http://explosm.net'
p135
tp136
(ttp137
g135
s((S'http://listverse.com'
p138
tp139
(ttp140
g138
s((S'http://gotealeaf.com'
p141
tp142
(ttp143
g141
s((S'http://aliendice.com'
p144
tp145
(ttp146
g144
s((S'http://distroshare.com'
p147
tp148
(ttp149
S'distroshare.com'
p150
s((S'http://deconetworks.com'
p151
tp152
(ttp153
S'deconetworks.com'
p154
s.