(dp0
((S'http://cre8tivenerd.com'
p1
tp2
(ttp3
g1
s((S'http://0719fe55bbae4d421d6b3e0dc691d65fae7b028e.googledrive.com'
p4
tp5
(ttp6
g4
s((S'http://groovorio.com'
p7
tp8
(ttp9
g7
s((S'http://bing.com'
p10
tp11
(ttp12
g10
s((S'http://api.doc.com'
p13
tp14
(ttp15
g13
s((S'http://nissanusa.com'
p16
tp17
(ttp18
g16
s((S'http://youtube.com'
p19
tp20
(ttp21
g19
s((S'http://apreche.net'
p22
tp23
(ttp24
g22
s((S'http://documentcloud.org'
p25
tp26
(ttp27
g25
s((S'http://japhr.blogspot.fi'
p28
tp29
(ttp30
g28
s((S'http://konstanz.bewerbung.dvvbw.de'
p31
tp32
(ttp33
g31
s((S'http://brawlinthefamily.keenspot.com'
p34
tp35
(ttp36
g34
s((S'http://outlook.office365.com'
p37
tp38
(ttp39
g37
s((S'http://automobiles.honda.com'
p40
tp41
(ttp42
g40
s((S'http://libc6.org'
p43
tp44
(ttp45
g43
s((S'http://hotukdeals.com'
p46
tp47
(ttp48
g46
s((S'http://payplug.fr'
p49
tp50
(ttp51
g49
s((S'http://viadeo.com'
p52
tp53
(ttp54
g52
s((S'http://login.microsoftonline.com'
p55
tp56
(ttp57
g55
s((S'http://sprashivai.ru'
p58
tp59
(ttp60
g58
s((S'http://stanfordmedicine.app.box.com'
p61
tp62
(ttp63
g61
s((S'http://grantland.com'
p64
tp65
(ttp66
g64
s((S'http://rubygems.org'
p67
tp68
(ttp69
S'rubygems.org'
p70
s((S'http://freefall.purrsia.com'
p71
tp72
(ttp73
g71
s((S'http://shop.surftech.com'
p74
tp75
(ttp76
g74
s((S'http://advoca.com'
p77
tp78
(ttp79
g77
s((S'http://ask.fm'
p80
tp81
(ttp82
g80
s((S'http://espndeportes.com.ar'
p83
tp84
(ttp85
g83
s((S'http://docs.djangoproject.com'
p86
tp87
(ttp88
g86
s((S'http://tumblr.com'
p89
tp90
(ttp91
g89
s((S'http://portal.karriere.constantin-medien.de'
p92
tp93
(ttp94
g92
s((S'http://wegenforum.nl'
p95
tp96
(ttp97
g95
s((S'http://toolslib.net'
p98
tp99
(ttp100
g98
s((S'http://vk.com'
p101
tp102
(ttp103
g101
s((S'http://mako.co.il'
p104
tp105
(ttp106
S'mako.co.il'
p107
s((S'http://twitter.com'
p108
tp109
(ttp110
g108
s((S'http://theblaze.com'
p111
tp112
(ttp113
g111
s((S'http://highlightjs.org'
p114
tp115
(ttp116
g114
s((S'http://xdvideos.blogspot.de'
p117
tp118
(ttp119
g117
s((S'http://apidock.com'
p120
tp121
(ttp122
S'apidock.com'
p123
s((S'http://egscomics.com'
p124
tp125
(ttp126
g124
s((S'http://theguardian.com'
p127
tp128
(ttp129
g127
s((S'http://mysearch.avg.com'
p130
tp131
(ttp132
g130
s((S'http://osm.org'
p133
tp134
(ttp135
g133
s((S'http://meteociel.fr'
p136
tp137
(ttp138
g136
s((S'http://de.giveawayoftheday.com'
p139
tp140
(ttp141
g139
s((S'http://ref.xaio.jp'
p142
tp143
(ttp144
S'xaio.jp'
p145
s((S'http://rubymonk.com'
p146
tp147
(ttp148
S'rubymonk.com'
p149
s((S'http://webmail.w14a.comcast.net'
p150
tp151
(ttp152
S'comcast.net'
p153
s((S'http://user.qzone.qq.com'
p154
tp155
(ttp156
g154
s((S'http://forums.malwarebytes.org'
p157
tp158
(ttp159
g157
s((S'http://webtoolsdepot.com'
p160
tp161
(ttp162
g160
s((S'http://candidjava.com'
p163
tp164
(ttp165
g163
s((S'http://leafletjs.com'
p166
tp167
(ttp168
g166
s((S'http://osm.kcwu.csie.org'
p169
tp170
(ttp171
g169
s((S'http://db-ip.com'
p172
tp173
(ttp174
g172
s((S'http://search.oracle.com'
p175
tp176
(ttp177
g175
s((S'http://blog.mtgprice.com'
p178
tp179
(ttp180
g178
s((S'http://huffingtonpost.com'
p181
tp182
(ttp183
g181
s((S'http://channel4.com'
p184
tp185
(ttp186
g184
s((S'http://mortgagenewsdaily.com'
p187
tp188
(ttp189
g187
s((S'http://roskilde.dev.umwelt.dk'
p190
tp191
(ttp192
g190
s((S'http://weibo.com'
p193
tp194
(ttp195
g193
s((S'http://landor.com'
p196
tp197
(ttp198
g196
s((S'http://pythonhosted.org'
p199
tp200
(ttp201
g199
s((S'http://nrg.co.il'
p202
tp203
(ttp204
g202
s((S'http://escapistmagazine.com'
p205
tp206
(ttp207
g205
s((S'http://tenprinthello.ca'
p208
tp209
(ttp210
g208
s((S'http://ruby-toolbox.com'
p211
tp212
(ttp213
g211
s((S'http://assbutt-inthetardis-withsherlock.tumblr.com'
p214
tp215
(ttp216
g214
s((S'http://dbadmin.one.com'
p217
tp218
(ttp219
g217
s((S'http://mondoweiss.net'
p220
tp221
(ttp222
g220
s((S'http://lists.fossgis.de'
p223
tp224
(ttp225
g223
s((S'http://s.taobao.com'
p226
tp227
(ttp228
g226
s((S'http://i24.fr'
p229
tp230
(ttp231
g229
s((S'http://newday.name'
p232
tp233
(ttp234
g232
s((S'http://hackernews.net'
p235
tp236
(ttp237
g235
s((S'http://zhihu.com'
p238
tp239
(ttp240
g238
s((S'http://awkwardzombie.com'
p241
tp242
(ttp243
g241
s((S'http://swisslife.fr'
p244
tp245
(ttp246
g244
s((S'http://deconetworks.com'
p247
tp248
(ttp249
S'deconetworks.com'
p250
s((S'http://bbc.co.uk'
p251
tp252
(ttp253
g251
s((S'http://banrate.com'
p254
tp255
(ttp256
g254
s((S'http://instagram.com'
p257
tp258
(ttp259
g257
s((S'http://espndeportes.espn.go.com'
p260
tp261
(ttp262
g260
s((S'http://collegehumor.com'
p263
tp264
(ttp265
g263
s((S'http://w3.kubotalink.com'
p266
tp267
(ttp268
g266
s((S'http://rubyforge.org'
p269
tp270
(ttp271
g269
s((S'http://t.co'
p272
tp273
(ttp274
g272
s((S'http://e.mail.ru'
p275
tp276
(ttp277
g275
s((S'http://get.rvm.io'
p278
tp279
(ttp280
g278
s((S'http://eksisozluk.com'
p281
tp282
(ttp283
g281
s((S'http://cas-01.uni.ad.sunderland.ac.uk'
p284
tp285
(ttp286
S'sunderland.ac.uk'
p287
s((S'http://ruby-forum.com'
p288
tp289
(ttp290
S'ruby-forum.com'
p291
s((S'http://the-whiteboard.com'
p292
tp293
(ttp294
g292
s((S'http://dashboard.smartclip.net'
p295
tp296
(ttp297
g295
s((S'http://one.co.il'
p298
tp299
(ttp300
S'one.co.il'
p301
s((S'http://phpmyadmin.1and1.fr'
p302
tp303
(ttp304
g302
s((S'http://bigplans.megaplan.ru'
p305
tp306
(ttp307
g305
s((S'http://underscorejs.org'
p308
tp309
(ttp310
g308
s((S'http://mychabad.org'
p311
tp312
(ttp313
g311
s((S'http://l.moapi.net'
p314
tp315
(ttp316
g314
s((S'http://djangoproject.com'
p317
tp318
(ttp319
g317
s((S'http://usatoday.com'
p320
tp321
(ttp322
g320
s((S'http://backbonetutorials.com'
p323
tp324
(ttp325
g323
s((S'http://naturpixel.com'
p326
tp327
(ttp328
S'naturpixel.com'
p329
s((S'http://beadworksphiladelphia.com'
p330
tp331
(ttp332
g330
s((S'http://slickdeals.net'
p333
tp334
(ttp335
g333
s((S'http://answers.yahoo.com'
p336
tp337
(ttp338
g336
s((S'http://flong.com'
p339
tp340
(ttp341
g339
s((S'http://engadget.com'
p342
tp343
(ttp344
g342
s((S'http://guides.ruby.tw'
p345
tp346
(ttp347
g345
s((S'http://yahoo.com'
p348
tp349
(ttp350
g348
s((S'http://zhidaow.com'
p351
tp352
(ttp353
g351
s((S'http://michal.karzynski.pl'
p354
tp355
(ttp356
g354
s((S'http://easylist.adblockplus.org'
p357
tp358
(ttp359
g357
s((S'http://search.safefinder.com'
p360
tp361
(ttp362
g360
s((S'http://bleacherreport.com'
p363
tp364
(ttp365
g363
s((S'http://professionalsnapshots.com'
p366
tp367
(ttp368
g366
s((S'http://mbacareers.wharton.upenn.edu'
p369
tp370
(ttp371
g369
s((S'http://git.wogon.eu'
p372
tp373
(ttp374
g372
s((S'http://login.wustl.edu'
p375
tp376
(ttp377
g375
s((S'http://netshaker.co.uk'
p378
tp379
(ttp380
g378
s((S'http://princeton.edu'
p381
tp382
(ttp383
g381
s((S'http://didyouknowgaming.com'
p384
tp385
(ttp386
g384
s((S'http://quickenloans.com'
p387
tp388
(ttp389
g387
s((S'http://logentries.com'
p390
tp391
(ttp392
g390
s((S'http://leptithebdo.net'
p393
tp394
(ttp395
g393
s((S'http://g5.com'
p396
tp397
(ttp398
g396
s((S'http://pypi.python.org'
p399
tp400
(ttp401
g399
s((S'http://api.gehealthcare.com'
p402
tp403
(ttp404
g402
s((S'http://indiegogo.com'
p405
tp406
(ttp407
g405
s((S'http://campaignanalytics.myacxiomtest.com'
p408
tp409
(ttp410
g408
s((S'http://girlgeniusonline.com'
p411
tp412
(ttp413
g411
s((S'http://kramererik.deviantart.com'
p414
tp415
(ttp416
g414
s((S'http://s.viralstat.com'
p417
tp418
(ttp419
g417
s((S'http://rotoworld.com'
p420
tp421
(ttp422
g420
s((S'http://astromenda.com'
p423
tp424
(ttp425
g423
s((S'http://ptt.cc'
p426
tp427
(ttp428
g426
s((S'http://tessera.com'
p429
tp430
(ttp431
g429
s((S'http://freddiemac.com'
p432
tp433
(ttp434
g432
s((S'http://raw.githubusercontent.com'
p435
tp436
(ttp437
g435
s((S'http://foxnews.com'
p438
tp439
(ttp440
g438
s((S'http://addyosmani.github.io'
p441
tp442
(ttp443
g441
s((S'http://search.disconnect.me'
p444
tp445
(ttp446
g444
s((S'http://djangopackages.com'
p447
tp448
(ttp449
g447
s((S'http://md-perf.fr'
p450
tp451
(ttp452
g450
s((S'http://wfvrj.petrobras.com.br'
p453
tp454
(ttp455
g453
s((S'http://mail.office365.com'
p456
tp457
(ttp458
g456
s((S'http://amazon.com'
p459
tp460
(ttp461
S'amazon.com'
p462
s((S'http://schlockmercenary.com'
p463
tp464
(ttp465
g463
s((S'http://listverse.com'
p466
tp467
(ttp468
g466
s((S'http://letsaskviolet.com'
p469
tp470
(ttp471
g469
s((S'http://meteofrance.com'
p472
tp473
(ttp474
g472
s((S'http://freepythontips.wordpress.com'
p475
tp476
(ttp477
g475
s((S'http://stanford-csm.symplicity.com'
p478
tp479
(ttp480
g478
s((S'http://baidu.com'
p481
tp482
(ttp483
g481
s((S'http://amazon.co.uk'
p484
tp485
(ttp486
g484
s((S'http://he.wikipedia.org'
p487
tp488
(ttp489
S'wikipedia.org'
p490
s((S'http://breitbart.com'
p491
tp492
(ttp493
g491
s((S'http://istart.webssearches.com'
p494
tp495
(ttp496
g494
s((S'http://axt.es'
p497
tp498
(ttp499
g497
s((S'http://dorkly.com'
p500
tp501
(ttp502
g500
s((S'http://lodash.com'
p503
tp504
(ttp505
g503
s((S'http://rennes.lachainemeteo.com'
p506
tp507
(ttp508
g506
s((S'http://pinterest.com'
p509
tp510
(ttp511
g509
s((S'http://heard-comic.com'
p512
tp513
(ttp514
g512
s((S'http://haaretz.co.il'
p515
tp516
(ttp517
g515
s((S'http://js2coffee.org'
p518
tp519
(ttp520
g518
s((S'http://us-mg6.mail.yahoo.com'
p521
tp522
(ttp523
g521
s((S'http://confluence.atlassian.com'
p524
tp525
(ttp526
g524
s((S'http://advoca.basecamphq.com'
p527
tp528
(ttp529
g527
s((S'http://steamcommunity.com'
p530
tp531
(ttp532
g530
s((S'http://default-search.net'
p533
tp534
(ttp535
g533
s((S'http://lovely-mature.net'
p536
tp537
(ttp538
g536
s((S'http://sublime.wbond.net'
p539
tp540
(ttp541
g539
s((S'http://overmanforum.com'
p542
tp543
(ttp544
g542
s((S'http://offers.bycontext.com'
p545
tp546
(ttp547
g545
s((S'http://deviantart.com'
p548
tp549
(ttp550
g548
s((S'http://periodismo-rugby.com.ar'
p551
tp552
(ttp553
g551
s((S'http://railstutorial.org'
p554
tp555
(ttp556
g554
s((S'http://tileify-ags.herokuapp.com'
p557
tp558
(ttp559
g557
s((S'http://java4developers.com'
p560
tp561
(ttp562
g560
s((S'http://bestbuy.com'
p563
tp564
(ttp565
g563
s((S'http://ebay.co.uk'
p566
tp567
(ttp568
g566
s((S'http://meteo60.fr'
p569
tp570
(ttp571
g569
s((S'http://buzzfeed.com'
p572
tp573
(ttp574
g572
s((S'http://cr2.gogorithm.com'
p575
tp576
(ttp577
g575
s((S'http://walmart.com'
p578
tp579
(ttp580
g578
s((S'http://heb.machonora.co.il'
p581
tp582
(ttp583
g581
s((S'http://stackexchange.com'
p584
tp585
(ttp586
g584
s((S'http://ca.search.yahoo.com'
p587
tp588
(ttp589
g587
s((S'http://scrum.com.ar'
p590
tp591
(ttp592
g590
s((S'http://tools.wmflabs.org'
p593
tp594
(ttp595
g593
s((S'http://bilibili.com'
p596
tp597
(ttp598
g596
s((S'http://courses.edx.org'
p599
tp600
(ttp601
g599
s((S'http://npmjs.org'
p602
tp603
(ttp604
g602
s((S'http://meroarte.com'
p605
tp606
(ttp607
g605
s((S'http://w3school.com'
p608
tp609
(ttp610
S'w3school.com'
p611
s((S'http://firebase.com'
p612
tp613
(ttp614
g612
s((S'http://10.208.112.77-88.ip.intelligencecenter.ci.thomsonreuters.com'
p615
tp616
(ttp617
g615
s((S'http://aplenorugby.com.ar'
p618
tp619
(ttp620
g618
s((S'http://debka.com'
p621
tp622
(ttp623
g621
s((S'http://django-avatar.readthedocs.org'
p624
tp625
(ttp626
g624
s((S'http://mapbox.com'
p627
tp628
(ttp629
g627
s((S'http://rubyonrails.org'
p630
tp631
(ttp632
g630
s((S'http://karamicrabbit.tumblr.com'
p633
tp634
(ttp635
g633
s((S'http://malcolmahoy.com'
p636
tp637
(ttp638
g636
s((S'http://tuneuppro.com'
p639
tp640
(ttp641
g639
s((S'http://hsh.com'
p642
tp643
(ttp644
g642
s((S'http://profile.oracle.com'
p645
tp646
(ttp647
g645
s((S'http://uk.search.yahoo.com'
p648
tp649
(ttp650
g648
s((S'http://ruby-lang.org'
p651
tp652
(ttp653
S'ruby-lang.org'
p654
s((S'http://ta-meteo.fr'
p655
tp656
(ttp657
g655
s((S'http://archive.today'
p658
tp659
(ttp660
g658
s((S'http://polloalacerveza.net'
p661
tp662
(ttp663
g661
s((S'http://acomstrategies.com'
p664
tp665
(ttp666
g664
s((S'http://i24newsz.com'
p667
tp668
(ttp669
g667
s((S'http://web.fulcrumapp.com'
p670
tp671
(ttp672
g670
s((S'http://git-scm.com'
p673
tp674
(ttp675
g673
s((S'http://api.rubyonrails.org'
p676
tp677
(ttp678
S'rubyonrails.org'
p679
s((S'http://netflix.com'
p680
tp681
(ttp682
g680
s((S'http://itv.com'
p683
tp684
(ttp685
g683
s((S'http://sso.brown.edu'
p686
tp687
(ttp688
g686
s((S'http://beads.com'
p689
tp690
(ttp691
g689
s((S'http://triadsportsgroupllcthebownet.freshbooks.com'
p692
tp693
(ttp694
g692
s((S'http://strassenweb.de'
p695
tp696
(ttp697
g695
s((S'http://mhm.hr.com'
p698
tp699
(ttp700
g698
s((S'http://new-startups.com'
p701
tp702
(ttp703
g701
s((S'http://hikashop.com'
p704
tp705
(ttp706
g704
s((S'http://aliendice.com'
p707
tp708
(ttp709
g707
s((S'http://jssnews.com'
p710
tp711
(ttp712
g710
s((S'http://shibboleth.usc.edu'
p713
tp714
(ttp715
g713
s((S'http://hackerluddite.wordpress.com'
p716
tp717
(ttp718
g716
s((S'http://requirejs.org'
p719
tp720
(ttp721
g719
s((S'http://bigjuicymelons.com'
p722
tp723
(ttp724
g722
s((S'http://mashable.com'
p725
tp726
(ttp727
g725
s((S'http://fluxbb.org'
p728
tp729
(ttp730
g728
s((S'http://beevehoiise11.common.eu.corp.toyota.com'
p731
tp732
(ttp733
g731
s((S'http://collive.com'
p734
tp735
(ttp736
g734
s((S'http://xing.com'
p737
tp738
(ttp739
g737
s((S'http://dockandslip.com'
p740
tp741
(ttp742
g740
s((S'http://timesofisrael.com'
p743
tp744
(ttp745
g743
s((S'http://aish.com'
p746
tp747
(ttp748
g746
s((S'http://onrtv.org'
p749
tp750
(ttp751
g749
s((S'http://bitbucket.org'
p752
tp753
(ttp754
g752
s((S'http://comment-supprimer.com'
p755
tp756
(ttp757
g755
s((S'http://blog.mathieu-leplatre.info'
p758
tp759
(ttp760
g758
s((S'http://gotealeaf.com'
p761
tp762
(ttp763
g761
s((S'http://nbcnews.com'
p764
tp765
(ttp766
g764
s((S'http://walla.co.il'
p767
tp768
(ttp769
S'walla.co.il'
p770
s((S'http://iep.utm.edu'
p771
tp772
(ttp773
g771
s((S'http://jewishjournal.com'
p774
tp775
(ttp776
g774
s((S'http://demo-recruiting.mhm-hr.com'
p777
tp778
(ttp779
g777
s((S'http://sport5.co.il'
p780
tp781
(ttp782
S'sport5.co.il'
p783
s((S'http://setareasemany.persianblog.ir'
p784
tp785
(ttp786
g784
s((S'http://israelnationalnews.com'
p787
tp788
(ttp789
g787
s((S'http://careerservicesapps.rit.edu'
p790
tp791
(ttp792
g790
s((S'http://lexus.com'
p793
tp794
(ttp795
g793
s((S'http://indeed.com'
p796
tp797
(ttp798
g796
s((S'http://nodejs.org'
p799
tp800
(ttp801
g799
s((S'http://nytimes.com'
p802
tp803
(ttp804
g802
s((S'http://jpost.com'
p805
tp806
(ttp807
g805
s((S'http://boardgamegeek.com'
p808
tp809
(ttp810
g808
s((S'http://aurora-israel.co.il'
p811
tp812
(ttp813
g811
s((S'http://optimalblue.com'
p814
tp815
(ttp816
g814
s((S'http://applyweb.com'
p817
tp818
(ttp819
g817
s((S'http://mortgagecalculator.org'
p820
tp821
(ttp822
g820
s((S'http://vidshaker.com'
p823
tp824
(ttp825
g823
s((S'http://douban.com'
p826
tp827
(ttp828
g826
s((S'http://renren.com'
p829
tp830
(ttp831
g829
s((S'http://pcmag.com'
p832
tp833
(ttp834
g832
s((S'http://reddit.com'
p835
tp836
(ttp837
g835
s((S'http://theyeshivaworld.com'
p838
tp839
(ttp840
g838
s((S'http://qa.specificmedia.com'
p841
tp842
(ttp843
g841
s((S'http://career.berkeley.edu'
p844
tp845
(ttp846
g844
s((S'http://dailymail.co.uk'
p847
tp848
(ttp849
g847
s((S'http://forums.techguy.org'
p850
tp851
(ttp852
g850
s((S'http://twitch.tv'
p853
tp854
(ttp855
g853
s((S'http://piriform.com'
p856
tp857
(ttp858
g856
s((S'http://coffeescriptcookbook.com'
p859
tp860
(ttp861
g859
s((S'http://nakedebonybeauties.com'
p862
tp863
(ttp864
g862
s((S'http://ineffableaether.com'
p865
tp866
(ttp867
g865
s((S'http://goblinscomic.org'
p868
tp869
(ttp870
g868
s((S'http://nfl.com'
p871
tp872
(ttp873
g871
s((S'http://venturebeat.com'
p874
tp875
(ttp876
g874
s((S'http://amberbit.com'
p877
tp878
(ttp879
g877
s((S'http://linkedin.com'
p880
tp881
(ttp882
g880
s((S'http://netlore.ru'
p883
tp884
(ttp885
g883
s((S'http://rawgit.com'
p886
tp887
(ttp888
g886
s((S'http://drudgereport.com'
p889
tp890
(ttp891
g889
s((S'http://cnn.com'
p892
tp893
(ttp894
g892
s((S'http://email.osu.edu'
p895
tp896
(ttp897
g895
s((S'http://dev.nlpcaptcha.in'
p898
tp899
(ttp900
g898
s((S'http://espn.go.com'
p901
tp902
(ttp903
g901
s((S'http://ynetnews.com'
p904
tp905
(ttp906
g904
s((S'http://marionettejs.com'
p907
tp908
(ttp909
g907
s((S'http://docks.qc.ca'
p910
tp911
(ttp912
g910
s((S'http://partners-staging.gohiring.com'
p913
tp914
(ttp915
g913
s((S'http://designgeekz.com'
p916
tp917
(ttp918
g916
s((S'http://radikal.com.tr'
p919
tp920
(ttp921
g919
s((S'http://radiofarda.com'
p922
tp923
(ttp924
g922
s((S'http://daat.ac.il'
p925
tp926
(ttp927
g925
s((S'http://facebook.com'
p928
tp929
(ttp930
g928
s((S'http://darthsanddroids.net'
p931
tp932
(ttp933
g931
s((S'http://coursera.org'
p934
tp935
(ttp936
g934
s((S'http://jira.com'
p937
tp938
(ttp939
g937
s((S'http://portal.office.com'
p940
tp941
(ttp942
g940
s((S'http://piazza.com'
p943
tp944
(ttp945
g943
s((S'http://mizuno-git.com'
p946
tp947
(ttp948
g946
s((S'http://puckcomics.com'
p949
tp950
(ttp951
g949
s((S'http://explosm.net'
p952
tp953
(ttp954
g952
s((S'http://scarygoround.com'
p955
tp956
(ttp957
g955
s((S'http://blogs.haaretz.co.il'
p958
tp959
(ttp960
g958
s((S'http://joyent.com'
p961
tp962
(ttp963
g961
s((S'http://search.sidecubes.com'
p964
tp965
(ttp966
g964
s((S'http://distroshare.com'
p967
tp968
(ttp969
S'distroshare.com'
p970
s((S'http://espn.com'
p971
tp972
(ttp973
g971
s((S'http://bdizz.exclusiverewards.awardsgirl.biz'
p974
tp975
(ttp976
g974
s((S'http://girlswithslingshots.com'
p977
tp978
(ttp979
g977
s((S'http://newegg.com'
p980
tp981
(ttp982
g980
s((S'http://lemondejuif.info'
p983
tp984
(ttp985
g983
s((S'http://deadspin.com'
p986
tp987
(ttp988
g986
s.