(dp0
((S'http://walla.co.il'
p1
tp2
(ttp3
S'walla.co.il'
p4
s((S'http://dockandslip.com'
p5
tp6
(ttp7
g5
s((S'http://archive.today'
p8
tp9
(ttp10
g8
s((S'http://api.doc.com'
p11
tp12
(ttp13
g11
s((S'http://apidock.com'
p14
tp15
(ttp16
S'apidock.com'
p17
s((S'http://w3.kubotalink.com'
p18
tp19
(ttp20
g18
s((S'http://rubyforge.org'
p21
tp22
(ttp23
g21
s((S'http://brawlinthefamily.keenspot.com'
p24
tp25
(ttp26
g24
s((S'http://banrate.com'
p27
tp28
(ttp29
g27
s((S'http://cas-01.uni.ad.sunderland.ac.uk'
p30
tp31
(ttp32
S'sunderland.ac.uk'
p33
s((S'http://ruby-forum.com'
p34
tp35
(ttp36
S'ruby-forum.com'
p37
s((S'http://the-whiteboard.com'
p38
tp39
(ttp40
g38
s((S'http://one.co.il'
p41
tp42
(ttp43
S'one.co.il'
p44
s((S'http://explosm.net'
p45
tp46
(ttp47
g45
s((S'http://railstutorial.org'
p48
tp49
(ttp50
g48
s((S'http://gotealeaf.com'
p51
tp52
(ttp53
g51
s((S'http://naturpixel.com'
p54
tp55
(ttp56
S'naturpixel.com'
p57
s((S'http://collegehumor.com'
p58
tp59
(ttp60
g58
s((S'http://uk.search.yahoo.com'
p61
tp62
(ttp63
g61
s((S'http://mortgagecalculator.org'
p64
tp65
(ttp66
g64
s((S'http://mako.co.il'
p67
tp68
(ttp69
S'mako.co.il'
p70
s((S'http://rubygems.org'
p71
tp72
(ttp73
S'rubygems.org'
p74
s((S'http://guides.ruby.tw'
p75
tp76
(ttp77
g75
s((S'http://ruby-lang.org'
p78
tp79
(ttp80
S'ruby-lang.org'
p81
s((S'http://w3school.com'
p82
tp83
(ttp84
S'w3school.com'
p85
s((S'http://awkwardzombie.com'
p86
tp87
(ttp88
g86
s((S'http://bbc.co.uk'
p89
tp90
(ttp91
g89
s((S'http://logentries.com'
p92
tp93
(ttp94
g92
s((S'http://ref.xaio.jp'
p95
tp96
(ttp97
S'xaio.jp'
p98
s((S'http://rubymonk.com'
p99
tp100
(ttp101
S'rubymonk.com'
p102
s((S'http://webmail.w14a.comcast.net'
p103
tp104
(ttp105
S'comcast.net'
p106
s((S'http://sport5.co.il'
p107
tp108
(ttp109
S'sport5.co.il'
p110
s((S'http://didyouknowgaming.com'
p111
tp112
(ttp113
g111
s((S'http://quickenloans.com'
p114
tp115
(ttp116
g114
s((S'http://ineffableaether.com'
p117
tp118
(ttp119
g117
s((S'http://hsh.com'
p120
tp121
(ttp122
g120
s((S'http://api.gehealthcare.com'
p123
tp124
(ttp125
g123
s((S'http://amazon.co.uk'
p126
tp127
(ttp128
g126
s((S'http://netlore.ru'
p129
tp130
(ttp131
g129
s((S'http://he.wikipedia.org'
p132
tp133
(ttp134
S'wikipedia.org'
p135
s((S'http://dorkly.com'
p136
tp137
(ttp138
g136
s((S'http://optimalblue.com'
p139
tp140
(ttp141
g139
s((S'http://tessera.com'
p142
tp143
(ttp144
g142
s((S'http://mortgagenewsdaily.com'
p145
tp146
(ttp147
g145
s((S'http://docks.qc.ca'
p148
tp149
(ttp150
g148
s((S'http://freddiemac.com'
p151
tp152
(ttp153
g151
s((S'http://api.rubyonrails.org'
p154
tp155
(ttp156
S'rubyonrails.org'
p157
s((S'http://escapistmagazine.com'
p158
tp159
(ttp160
g158
s((S'http://puckcomics.com'
p161
tp162
(ttp163
g161
s((S'http://amazon.com'
p164
tp165
(ttp166
S'amazon.com'
p167
s((S'http://new-startups.com'
p168
tp169
(ttp170
g168
s((S'http://listverse.com'
p171
tp172
(ttp173
g171
s((S'http://letsaskviolet.com'
p174
tp175
(ttp176
g174
s((S'http://aliendice.com'
p177
tp178
(ttp179
g177
s((S'http://distroshare.com'
p180
tp181
(ttp182
S'distroshare.com'
p183
s((S'http://deconetworks.com'
p184
tp185
(ttp186
S'deconetworks.com'
p187
s.