(dp0
((S'http://walla.co.il'
p1
tp2
(ttp3
S'walla.co.il'
p4
s((S'http://dockandslip.com'
p5
tp6
(ttp7
g5
s((S'http://dorkly.com'
p8
tp9
(ttp10
g8
s((S'http://api.doc.com'
p11
tp12
(ttp13
g11
s((S'http://apidock.com'
p14
tp15
(ttp16
S'apidock.com'
p17
s((S'http://w3.kubotalink.com'
p18
tp19
(ttp20
g18
s((S'http://puckcomics.com'
p21
tp22
(ttp23
g21
s((S'http://brawlinthefamily.keenspot.com'
p24
tp25
(ttp26
g24
s((S'http://banrate.com'
p27
tp28
(ttp29
g27
s((S'http://cas-01.uni.ad.sunderland.ac.uk'
p30
tp31
(ttp32
S'sunderland.ac.uk'
p33
s((S'http://ruby-forum.com'
p34
tp35
(ttp36
S'ruby-forum.com'
p37
s((S'http://the-whiteboard.com'
p38
tp39
(ttp40
g38
s((S'http://one.co.il'
p41
tp42
(ttp43
S'one.co.il'
p44
s((S'http://railstutorial.org'
p45
tp46
(ttp47
g45
s((S'http://letsaskviolet.com'
p48
tp49
(ttp50
g48
s((S'http://new-startups.com'
p51
tp52
(ttp53
g51
s((S'http://naturpixel.com'
p54
tp55
(ttp56
S'naturpixel.com'
p57
s((S'http://collegehumor.com'
p58
tp59
(ttp60
g58
s((S'http://mortgagecalculator.org'
p61
tp62
(ttp63
g61
s((S'http://mako.co.il'
p64
tp65
(ttp66
S'mako.co.il'
p67
s((S'http://rubygems.org'
p68
tp69
(ttp70
S'rubygems.org'
p71
s((S'http://guides.ruby.tw'
p72
tp73
(ttp74
g72
s((S'http://ruby-lang.org'
p75
tp76
(ttp77
S'ruby-lang.org'
p78
s((S'http://w3school.com'
p79
tp80
(ttp81
S'w3school.com'
p82
s((S'http://awkwardzombie.com'
p83
tp84
(ttp85
g83
s((S'http://ineffableaether.com'
p86
tp87
(ttp88
g86
s((S'http://ref.xaio.jp'
p89
tp90
(ttp91
S'xaio.jp'
p92
s((S'http://rubymonk.com'
p93
tp94
(ttp95
S'rubymonk.com'
p96
s((S'http://webmail.w14a.comcast.net'
p97
tp98
(ttp99
S'comcast.net'
p100
s((S'http://sport5.co.il'
p101
tp102
(ttp103
S'sport5.co.il'
p104
s((S'http://didyouknowgaming.com'
p105
tp106
(ttp107
g105
s((S'http://quickenloans.com'
p108
tp109
(ttp110
g108
s((S'http://logentries.com'
p111
tp112
(ttp113
g111
s((S'http://hsh.com'
p114
tp115
(ttp116
g114
s((S'http://api.gehealthcare.com'
p117
tp118
(ttp119
g117
s((S'http://netlore.ru'
p120
tp121
(ttp122
g120
s((S'http://he.wikipedia.org'
p123
tp124
(ttp125
S'wikipedia.org'
p126
s((S'http://archive.today'
p127
tp128
(ttp129
g127
s((S'http://optimalblue.com'
p130
tp131
(ttp132
g130
s((S'http://tessera.com'
p133
tp134
(ttp135
g133
s((S'http://mortgagenewsdaily.com'
p136
tp137
(ttp138
g136
s((S'http://docks.qc.ca'
p139
tp140
(ttp141
g139
s((S'http://freddiemac.com'
p142
tp143
(ttp144
g142
s((S'http://api.rubyonrails.org'
p145
tp146
(ttp147
S'rubyonrails.org'
p148
s((S'http://escapistmagazine.com'
p149
tp150
(ttp151
g149
s((S'http://rubyforge.org'
p152
tp153
(ttp154
g152
s((S'http://amazon.com'
p155
tp156
(ttp157
S'amazon.com'
p158
s((S'http://explosm.net'
p159
tp160
(ttp161
g159
s((S'http://listverse.com'
p162
tp163
(ttp164
g162
s((S'http://gotealeaf.com'
p165
tp166
(ttp167
g165
s((S'http://aliendice.com'
p168
tp169
(ttp170
g168
s((S'http://distroshare.com'
p171
tp172
(ttp173
S'distroshare.com'
p174
s((S'http://deconetworks.com'
p175
tp176
(ttp177
S'deconetworks.com'
p178
s.