(dp0
((S'http://darthsanddroids.net'
p1
tp2
(ttp3
g1
s((S'http://api.doc.com'
p4
tp5
(ttp6
g4
s((S'http://kramererik.deviantart.com'
p7
tp8
(ttp9
g7
s((S'http://apreche.net'
p10
tp11
(ttp12
g10
s((S'http://localhost.adobecc.com'
p13
tp14
(ttp15
g13
s((S'http://payplug.fr'
p16
tp17
(ttp18
g16
s((S'http://stanfordmedicine.app.box.com'
p19
tp20
(ttp21
g19
s((S'http://mako.co.il'
p22
tp23
(ttp24
S'mako.co.il'
p25
s((S'http://highlightjs.org'
p26
tp27
(ttp28
g26
s((S'http://theguardian.com'
p29
tp30
(ttp31
g29
s((S'http://bigjuicymelons.com'
p32
tp33
(ttp34
g32
s((S'http://meteociel.fr'
p35
tp36
(ttp37
g35
s((S'http://engadget.com'
p38
tp39
(ttp40
g38
s((S'http://user.qzone.qq.com'
p41
tp42
(ttp43
g41
s((S'http://blog.mtgprice.com'
p44
tp45
(ttp46
g44
s((S'http://mortgagenewsdaily.com'
p47
tp48
(ttp49
g47
s((S'http://dilbert.com'
p50
tp51
(ttp52
g50
s((S'http://wappalyzer.com'
p53
tp54
(ttp55
g53
s((S'http://amberbit.com'
p56
tp57
(ttp58
g56
s((S'http://assbutt-inthetardis-withsherlock.tumblr.com'
p59
tp60
(ttp61
g59
s((S'http://lists.fossgis.de'
p62
tp63
(ttp64
g62
s((S'http://banrate.com'
p65
tp66
(ttp67
g65
s((S'http://safe.thomson.com'
p68
tp69
(ttp70
g68
s((S'http://collegehumor.com'
p71
tp72
(ttp73
g71
s((S'http://w3.kubotalink.com'
p74
tp75
(ttp76
g74
s((S'http://talkingpointsmemo.com'
p77
tp78
(ttp79
g77
s((S'http://ruby-forum.com'
p80
tp81
(ttp82
S'ruby-forum.com'
p83
s((S'http://dashboard.smartclip.net'
p84
tp85
(ttp86
g84
s((S'http://mychabad.org'
p87
tp88
(ttp89
g87
s((S'http://l.moapi.net'
p90
tp91
(ttp92
g90
s((S'http://usatoday.com'
p93
tp94
(ttp95
g93
s((S'http://search.oracle.com'
p96
tp97
(ttp98
g96
s((S'http://naturpixel.com'
p99
tp100
(ttp101
S'naturpixel.com'
p102
s((S'http://answers.yahoo.com'
p103
tp104
(ttp105
g103
s((S'http://flong.com'
p106
tp107
(ttp108
g106
s((S'http://db-ip.com'
p109
tp110
(ttp111
g109
s((S'http://stash.sinclairstoryline.com'
p112
tp113
(ttp114
g112
s((S'http://ruby-lang.org'
p115
tp116
(ttp117
S'ruby-lang.org'
p118
s((S'http://search.safefinder.com'
p119
tp120
(ttp121
g119
s((S'http://bleacherreport.com'
p122
tp123
(ttp124
g122
s((S'http://candidjava.com'
p125
tp126
(ttp127
g125
s((S'http://git.wogon.eu'
p128
tp129
(ttp130
g128
s((S'http://princeton.edu'
p131
tp132
(ttp133
g131
s((S'http://didyouknowgaming.com'
p134
tp135
(ttp136
g134
s((S'http://logentries.com'
p137
tp138
(ttp139
g137
s((S'http://tlr.webex.com'
p140
tp141
(ttp142
g140
s((S'http://campaignanalytics.myacxiomtest.com'
p143
tp144
(ttp145
g143
s((S'http://girlgeniusonline.com'
p146
tp147
(ttp148
g146
s((S'http://getunpluggednow.com'
p149
tp150
(ttp151
g149
s((S'http://home.tb.ask.com'
p152
tp153
(ttp154
g152
s((S'http://aplenorugby.com.ar'
p155
tp156
(ttp157
g155
s((S'http://api.gehealthcare.com'
p158
tp159
(ttp160
g158
s((S'http://search.disconnect.me'
p161
tp162
(ttp163
g161
s((S'http://wfvrj.petrobras.com.br'
p164
tp165
(ttp166
g164
s((S'http://amazon.com'
p167
tp168
(ttp169
S'amazon.com'
p170
s((S'http://listverse.com'
p171
tp172
(ttp173
g171
s((S'http://letsaskviolet.com'
p174
tp175
(ttp176
g174
s((S'http://girlswithslingshots.com'
p177
tp178
(ttp179
g177
s((S'http://rennes.lachainemeteo.com'
p180
tp181
(ttp182
g180
s((S'http://rotoworld.com'
p183
tp184
(ttp185
g183
s((S'http://js2coffee.org'
p186
tp187
(ttp188
g186
s((S'http://astromenda.com'
p189
tp190
(ttp191
g189
s((S'http://jobsearch.monster.com'
p192
tp193
(ttp194
g192
s((S'http://default-search.net'
p195
tp196
(ttp197
g195
s((S'http://lovely-mature.net'
p198
tp199
(ttp200
g198
s((S'http://hackernews.net'
p201
tp202
(ttp203
g201
s((S'http://tileify-ags.herokuapp.com'
p204
tp205
(ttp206
g204
s((S'http://java4developers.com'
p207
tp208
(ttp209
g207
s((S'http://freddiemac.com'
p210
tp211
(ttp212
g210
s((S'http://debka.com'
p213
tp214
(ttp215
g213
s((S'http://django-avatar.readthedocs.org'
p216
tp217
(ttp218
g216
s((S'http://sport5.co.il'
p219
tp220
(ttp221
S'sport5.co.il'
p222
s((S'http://malcolmahoy.com'
p223
tp224
(ttp225
g223
s((S'http://hsh.com'
p226
tp227
(ttp228
g226
s((S'http://joyent.com'
p229
tp230
(ttp231
g229
s((S'http://uk.search.yahoo.com'
p232
tp233
(ttp234
g232
s((S'http://archive.today'
p235
tp236
(ttp237
g235
s((S'http://i24newsz.com'
p238
tp239
(ttp240
g238
s((S'http://web.fulcrumapp.com'
p241
tp242
(ttp243
g241
s((S'http://netflix.com'
p244
tp245
(ttp246
g244
s((S'http://triadsportsgroupllcthebownet.freshbooks.com'
p247
tp248
(ttp249
g247
s((S'http://hikashop.com'
p250
tp251
(ttp252
g250
s((S'http://yahoo.com'
p253
tp254
(ttp255
g253
s((S'http://shibboleth.usc.edu'
p256
tp257
(ttp258
g256
s((S'http://hackerluddite.wordpress.com'
p259
tp260
(ttp261
g259
s((S'http://breitbart.com'
p262
tp263
(ttp264
g262
s((S'http://hotels.bzone.co.il'
p265
tp266
(ttp267
g265
s((S'http://dockandslip.com'
p268
tp269
(ttp270
g268
s((S'http://onrtv.org'
p271
tp272
(ttp273
g271
s((S'http://bitbucket.org'
p274
tp275
(ttp276
g274
s((S'http://overview.com'
p277
tp278
(ttp279
g277
s((S'http://setareasemany.persianblog.ir'
p280
tp281
(ttp282
g280
s((S'http://israelnationalnews.com'
p283
tp284
(ttp285
g283
s((S'http://dbadmin.one.com'
p286
tp287
(ttp288
g286
s((S'http://radikal.com.tr'
p289
tp290
(ttp291
g289
s((S'http://webmail.woodmac.com'
p292
tp293
(ttp294
g292
s((S'http://overview.vi.com'
p295
tp296
(ttp297
g295
s((S'http://automobiles.honda.com'
p298
tp299
(ttp300
g298
s((S'http://aurora-israel.co.il'
p301
tp302
(ttp303
g301
s((S'http://applyweb.com'
p304
tp305
(ttp306
g304
s((S'http://mortgagecalculator.org'
p307
tp308
(ttp309
g307
s((S'http://rubygems.org'
p310
tp311
(ttp312
S'rubygems.org'
p313
s((S'http://portal.ektron.com'
p314
tp315
(ttp316
g314
s((S'http://nakedebonybeauties.com'
p317
tp318
(ttp319
g317
s((S'http://paradisefibers.net'
p320
tp321
(ttp322
g320
s((S'http://coffeescriptcookbook.com'
p323
tp324
(ttp325
g323
s((S'http://goblinscomic.org'
p326
tp327
(ttp328
g326
s((S'http://nfl.com'
p329
tp330
(ttp331
g329
s((S'http://linkedin.com'
p332
tp333
(ttp334
g332
s((S'http://drudgereport.com'
p335
tp336
(ttp337
g335
s((S'http://cnn.com'
p338
tp339
(ttp340
g338
s((S'http://baltimoresun.com'
p341
tp342
(ttp343
g341
s((S'http://marionettejs.com'
p344
tp345
(ttp346
g344
s((S'http://docks.qc.ca'
p347
tp348
(ttp349
g347
s((S'http://bundler.io'
p350
tp351
(ttp352
g350
s((S'http://vidshaker.com'
p353
tp354
(ttp355
g353
s((S'http://iajira.amers.ime.reuters.com'
p356
tp357
(ttp358
g356
s((S'http://nodejs.org'
p359
tp360
(ttp361
g359
s((S'http://4theperfectsmile.com'
p362
tp363
(ttp364
g362
s((S'http://search.sidecubes.com'
p365
tp366
(ttp367
g365
s((S'http://distroshare.com'
p368
tp369
(ttp370
S'distroshare.com'
p371
s((S'http://espn.com'
p372
tp373
(ttp374
g372
s((S'http://0719fe55bbae4d421d6b3e0dc691d65fae7b028e.googledrive.com'
p375
tp376
(ttp377
g375
s((S'http://groovorio.com'
p378
tp379
(ttp380
g378
s((S'http://bing.com'
p381
tp382
(ttp383
g381
s((S'http://jpost.com'
p384
tp385
(ttp386
g384
s((S'http://brawlinthefamily.keenspot.com'
p387
tp388
(ttp389
g387
s((S'http://libc6.org'
p390
tp391
(ttp392
g390
s((S'http://login.microsoftonline.com'
p393
tp394
(ttp395
g393
s((S'http://advoca.com'
p396
tp397
(ttp398
g396
s((S'http://espndeportes.com.ar'
p399
tp400
(ttp401
g399
s((S'http://wegenforum.nl'
p402
tp403
(ttp404
g402
s((S'http://theblaze.com'
p405
tp406
(ttp407
g405
s((S'http://egscomics.com'
p408
tp409
(ttp410
g408
s((S'http://indeed.com'
p411
tp412
(ttp413
g411
s((S'http://webmail.w14a.comcast.net'
p414
tp415
(ttp416
S'comcast.net'
p417
s((S'http://forums.malwarebytes.org'
p418
tp419
(ttp420
g418
s((S'http://leafletjs.com'
p421
tp422
(ttp423
g421
s((S'http://osm.kcwu.csie.org'
p424
tp425
(ttp426
g424
s((S'http://careerbuilder.com'
p427
tp428
(ttp429
g427
s((S'http://landor.com'
p430
tp431
(ttp432
g430
s((S'http://baidu.com'
p433
tp434
(ttp435
g433
s((S'http://nrg.co.il'
p436
tp437
(ttp438
g436
s((S'http://mondoweiss.net'
p439
tp440
(ttp441
g439
s((S'http://i24.fr'
p442
tp443
(ttp444
g442
s((S'http://swisslife.fr'
p445
tp446
(ttp447
g445
s((S'http://deconetworks.com'
p448
tp449
(ttp450
S'deconetworks.com'
p451
s((S'http://t.co'
p452
tp453
(ttp454
g452
s((S'http://e.mail.ru'
p455
tp456
(ttp457
g455
s((S'http://simplyhired.com'
p458
tp459
(ttp460
g458
s((S'http://fluxbb.org'
p461
tp462
(ttp463
g461
s((S'http://slickdeals.net'
p464
tp465
(ttp466
g464
s((S'http://ca.search.yahoo.com'
p467
tp468
(ttp469
g467
s((S'http://guides.ruby.tw'
p470
tp471
(ttp472
g470
s((S'http://professionalsnapshots.com'
p473
tp474
(ttp475
g473
s((S'http://politico.com'
p476
tp477
(ttp478
g476
s((S'http://addyosmani.github.io'
p479
tp480
(ttp481
g479
s((S'http://he.wikipedia.org'
p482
tp483
(ttp484
S'wikipedia.org'
p485
s((S'http://s.viralstat.com'
p486
tp487
(ttp488
g486
s((S'http://google.co.uk'
p489
tp490
(ttp491
g489
s((S'http://foxnews.com'
p492
tp493
(ttp494
g492
s((S'http://meteofrance.com'
p495
tp496
(ttp497
g495
s((S'http://stanford-csm.symplicity.com'
p498
tp499
(ttp500
g498
s((S'http://scarygoround.com'
p501
tp502
(ttp503
g501
s((S'http://jssnews.com'
p504
tp505
(ttp506
g504
s((S'http://rjduran.net'
p507
tp508
(ttp509
g507
s((S'http://overmanforum.com'
p510
tp511
(ttp512
g510
s((S'http://haaretz.co.il'
p513
tp514
(ttp515
g513
s((S'http://portal.karriere.constantin-medien.de'
p516
tp517
(ttp518
g516
s((S'http://roskilde.dev.umwelt.dk'
p519
tp520
(ttp521
g519
s((S'http://china-herb-co.myshopify.com'
p522
tp523
(ttp524
g522
s((S'http://deviantart.com'
p525
tp526
(ttp527
g525
s((S'http://periodismo-rugby.com.ar'
p528
tp529
(ttp530
g528
s((S'http://michal.karzynski.pl'
p531
tp532
(ttp533
g531
s((S'http://ebay.co.uk'
p534
tp535
(ttp536
g534
s((S'http://collive.com'
p537
tp538
(ttp539
g537
s((S'http://cr2.gogorithm.com'
p540
tp541
(ttp542
g540
s((S'http://walmart.com'
p543
tp544
(ttp545
g543
s((S'http://beads.com'
p546
tp547
(ttp548
g546
s((S'http://meroarte.com'
p549
tp550
(ttp551
g549
s((S'http://10.208.112.77-88.ip.intelligencecenter.ci.thomsonreuters.com'
p552
tp553
(ttp554
g552
s((S'http://timesofisrael.com'
p555
tp556
(ttp557
g555
s((S'http://openshift.com'
p558
tp559
(ttp560
g558
s((S'http://profile.oracle.com'
p561
tp562
(ttp563
g561
s((S'http://littlesis.org'
p564
tp565
(ttp566
g564
s((S'http://cr.jensgehlhaar.com'
p567
tp568
(ttp569
g567
s((S'http://tuneuppro.com'
p570
tp571
(ttp572
g570
s((S'http://deadspin.com'
p573
tp574
(ttp575
g573
s((S'http://polloalacerveza.net'
p576
tp577
(ttp578
g576
s((S'http://xdvideos.blogspot.de'
p579
tp580
(ttp581
g579
s((S'http://rubyforge.org'
p582
tp583
(ttp584
g582
s((S'http://mhm.hr.com'
p585
tp586
(ttp587
g585
s((S'http://new-startups.com'
p588
tp589
(ttp590
g588
s((S'http://omniref.com'
p591
tp592
(ttp593
g591
s((S'http://xing.com'
p594
tp595
(ttp596
g594
s((S'http://blog.mathieu-leplatre.info'
p597
tp598
(ttp599
g597
s((S'http://nbcnews.com'
p600
tp601
(ttp602
g600
s((S'http://explosm.net'
p603
tp604
(ttp605
g603
s((S'http://rsq.com'
p606
tp607
(ttp608
g606
s((S'http://careerservicesapps.rit.edu'
p609
tp610
(ttp611
g609
s((S'http://reddit.com'
p612
tp613
(ttp614
g612
s((S'http://allanyu.net'
p615
tp616
(ttp617
g615
s((S'http://morehousefarm.com'
p618
tp619
(ttp620
g618
s((S'http://reed.co.uk'
p621
tp622
(ttp623
g621
s((S'http://freepythontips.wordpress.com'
p624
tp625
(ttp626
g624
s((S'http://webtoolsdepot.com'
p627
tp628
(ttp629
g627
s((S'http://qa.specificmedia.com'
p630
tp631
(ttp632
g630
s((S'http://portal.gowifi.com'
p633
tp634
(ttp635
g633
s((S'http://diguage.com'
p636
tp637
(ttp638
g636
s((S'http://ineffableaether.com'
p639
tp640
(ttp641
g639
s((S'http://osm.org'
p642
tp643
(ttp644
g642
s((S'http://diplomatic-cover.com'
p645
tp646
(ttp647
g645
s((S'http://espn.go.com'
p648
tp649
(ttp650
g648
s((S'http://facebook.com'
p651
tp652
(ttp653
g651
s((S'http://coursera.org'
p654
tp655
(ttp656
g654
s((S'http://piazza.com'
p657
tp658
(ttp659
g657
s((S'http://puckcomics.com'
p660
tp661
(ttp662
g660
s((S'http://blogs.haaretz.co.il'
p663
tp664
(ttp665
g663
s((S'http://timeline.knightlab.com'
p666
tp667
(ttp668
g666
s((S'http://aish.com'
p669
tp670
(ttp671
g669
s((S'http://nissanusa.com'
p672
tp673
(ttp674
g672
s((S'http://documentcloud.org'
p675
tp676
(ttp677
g675
s((S'http://pinterest.com'
p678
tp679
(ttp680
g678
s((S'http://optimalblue.com'
p681
tp682
(ttp683
g681
s((S'http://outlook.office365.com'
p684
tp685
(ttp686
g684
s((S'http://hotukdeals.com'
p687
tp688
(ttp689
g687
s((S'http://itv.com'
p690
tp691
(ttp692
g690
s((S'http://ask.fm'
p693
tp694
(ttp695
g693
s((S'http://docs.djangoproject.com'
p696
tp697
(ttp698
g696
s((S'http://api.rubyonrails.org'
p699
tp700
(ttp701
S'rubyonrails.org'
p702
s((S'http://mizuno-git.com'
p703
tp704
(ttp705
g703
s((S'http://mysearch.avg.com'
p706
tp707
(ttp708
g706
s((S'http://netguru.co'
p709
tp710
(ttp711
g709
s((S'http://rubymonk.com'
p712
tp713
(ttp714
S'rubymonk.com'
p715
s((S'http://dev.warnerbros.fr'
p716
tp717
(ttp718
g716
s((S'http://huffingtonpost.com'
p719
tp720
(ttp721
g719
s((S'http://minimega.it'
p722
tp723
(ttp724
g722
s((S'http://channel4.com'
p725
tp726
(ttp727
g725
s((S'http://laccelerateur.fr'
p728
tp729
(ttp730
g728
s((S'http://pythonhosted.org'
p731
tp732
(ttp733
g731
s((S'http://escapistmagazine.com'
p734
tp735
(ttp736
g734
s((S'http://tenprinthello.ca'
p737
tp738
(ttp739
g737
s((S'http://ruby-toolbox.com'
p740
tp741
(ttp742
g740
s((S'http://zhihu.com'
p743
tp744
(ttp745
g743
s((S'http://latimes.com'
p746
tp747
(ttp748
g746
s((S'http://apidock.com'
p749
tp750
(ttp751
S'apidock.com'
p752
s((S'http://propal.net'
p753
tp754
(ttp755
g753
s((S'http://eksisozluk.com'
p756
tp757
(ttp758
g756
s((S'http://cas-01.uni.ad.sunderland.ac.uk'
p759
tp760
(ttp761
S'sunderland.ac.uk'
p762
s((S'http://washingtonpost.com'
p763
tp764
(ttp765
g763
s((S'http://one.co.il'
p766
tp767
(ttp768
S'one.co.il'
p769
s((S'http://phpmyadmin.1and1.fr'
p770
tp771
(ttp772
g770
s((S'http://bigplans.megaplan.ru'
p773
tp774
(ttp775
g773
s((S'http://underscorejs.org'
p776
tp777
(ttp778
g776
s((S'http://djangoproject.com'
p779
tp780
(ttp781
g779
s((S'http://backbonetutorials.com'
p782
tp783
(ttp784
g782
s((S'http://zhidaow.com'
p785
tp786
(ttp787
g785
s((S'http://tools.wmflabs.org'
p788
tp789
(ttp790
g788
s((S'http://awkwardzombie.com'
p791
tp792
(ttp793
g791
s((S'http://bbc.co.uk'
p794
tp795
(ttp796
g794
s((S'http://mbacareers.wharton.upenn.edu'
p797
tp798
(ttp799
g797
s((S'http://login.wustl.edu'
p800
tp801
(ttp802
g800
s((S'http://netshaker.co.uk'
p803
tp804
(ttp805
g803
s((S'http://pypi.python.org'
p806
tp807
(ttp808
g806
s((S'http://indiegogo.com'
p809
tp810
(ttp811
g809
s((S'http://ptt.cc'
p812
tp813
(ttp814
g812
s((S'http://overview.ap.org'
p815
tp816
(ttp817
g815
s((S'http://djangopackages.com'
p818
tp819
(ttp820
g818
s((S'http://md-perf.fr'
p821
tp822
(ttp823
g821
s((S'http://mail.office365.com'
p824
tp825
(ttp826
g824
s((S'http://slate.com'
p827
tp828
(ttp829
g827
s((S'http://totaljobs.com'
p830
tp831
(ttp832
g830
s((S'http://developers.openshift.com'
p833
tp834
(ttp835
g833
s((S'http://dev.nlpcaptcha.in'
p836
tp837
(ttp838
g836
s((S'http://lodash.com'
p839
tp840
(ttp841
g839
s((S'http://heard-comic.com'
p842
tp843
(ttp844
g842
s((S'http://beevehoiise11.common.eu.corp.toyota.com'
p845
tp846
(ttp847
g845
s((S'http://career.berkeley.edu'
p848
tp849
(ttp850
g848
s((S'http://railstutorial.org'
p851
tp852
(ttp853
g851
s((S'http://app41.studyisland.com'
p854
tp855
(ttp856
g854
s((S'http://bestbuy.com'
p857
tp858
(ttp859
g857
s((S'http://meteo60.fr'
p860
tp861
(ttp862
g860
s((S'http://buzzfeed.com'
p863
tp864
(ttp865
g863
s((S'http://w3cschool.com'
p866
tp867
(ttp868
g866
s((S'http://heb.machonora.co.il'
p869
tp870
(ttp871
g869
s((S'http://scrum.com.ar'
p872
tp873
(ttp874
g872
s((S'http://app.codegrid.net'
p875
tp876
(ttp877
g875
s((S'http://bilibili.com'
p878
tp879
(ttp880
g878
s((S'http://jobsearch.direct.gov.uk'
p881
tp882
(ttp883
g881
s((S'http://fisglobalprod.service-now.com'
p884
tp885
(ttp886
g884
s((S'http://forums.techguy.org'
p887
tp888
(ttp889
g887
s((S'http://dice.com'
p890
tp891
(ttp892
g890
s((S'http://pcmag.com'
p893
tp894
(ttp895
g893
s((S'http://underscore.org'
p896
tp897
(ttp898
g896
s((S'http://yandex.ru'
p899
tp900
(ttp901
g899
s((S'http://portal.office.com'
p902
tp903
(ttp904
g902
s((S'http://nytimes.com'
p905
tp906
(ttp907
g905
s((S'http://sprashivai.ru'
p908
tp909
(ttp910
g908
s((S'http://theyeshivaworld.com'
p911
tp912
(ttp913
g911
s((S'http://ruby-doc.org'
p914
tp915
(ttp916
g914
s((S'http://josedacosta.info'
p917
tp918
(ttp919
g917
s((S'http://backbone.org'
p920
tp921
(ttp922
g920
s((S'http://fdmgroup.com'
p923
tp924
(ttp925
g923
s((S'http://fliparts.fr'
p926
tp927
(ttp928
g926
s((S'http://amazon.co.uk'
p929
tp930
(ttp931
g929
s((S'http://konstanz.bewerbung.dvvbw.de'
p932
tp933
(ttp934
g932
s((S'http://email.osu.edu'
p935
tp936
(ttp937
g935
s((S'http://twitch.tv'
p938
tp939
(ttp940
g938
s((S'http://partners-staging.gohiring.com'
p941
tp942
(ttp943
g941
s((S'http://designgeekz.com'
p944
tp945
(ttp946
g944
s((S'http://radiofarda.com'
p947
tp948
(ttp949
g947
s((S'http://requirejs.org'
p950
tp951
(ttp952
g950
s((S'http://westlawnext.com'
p953
tp954
(ttp955
g953
s((S'http://toc.taleo.net'
p956
tp957
(ttp958
g956
s((S'http://lemondejuif.info'
p959
tp960
(ttp961
g959
s((S'http://cre8tivenerd.com'
p962
tp963
(ttp964
g962
s((S'http://youtube.com'
p965
tp966
(ttp967
g965
s((S'http://japhr.blogspot.fi'
p968
tp969
(ttp970
g968
s((S'http://firebase.com'
p971
tp972
(ttp973
g971
s((S'http://viadeo.com'
p974
tp975
(ttp976
g974
s((S'http://grantland.com'
p977
tp978
(ttp979
g977
s((S'http://tumblr.com'
p980
tp981
(ttp982
g980
s((S'http://staging.dev.oned.io'
p983
tp984
(ttp985
g983
s((S'http://vk.com'
p986
tp987
(ttp988
g986
s((S'http://twitter.com'
p989
tp990
(ttp991
g989
s((S'http://git-scm.com'
p992
tp993
(ttp994
g992
s((S'http://axt.es'
p995
tp996
(ttp997
g995
s((S'http://de.giveawayoftheday.com'
p998
tp999
(ttp1000
g998
s((S'http://ref.xaio.jp'
p1001
tp1002
(ttp1003
S'xaio.jp'
p1004
s((S'http://renren.com'
p1005
tp1006
(ttp1007
g1005
s((S'http://sso.brown.edu'
p1008
tp1009
(ttp1010
g1008
s((S'http://online.wsj.com'
p1011
tp1012
(ttp1013
g1011
s((S'http://s.taobao.com'
p1014
tp1015
(ttp1016
g1014
s((S'http://newday.name'
p1017
tp1018
(ttp1019
g1017
s((S'http://freefall.purrsia.com'
p1020
tp1021
(ttp1022
g1020
s((S'http://msglabs.com'
p1023
tp1024
(ttp1025
g1023
s((S'http://instagram.com'
p1026
tp1027
(ttp1028
g1026
s((S'http://espndeportes.espn.go.com'
p1029
tp1030
(ttp1031
g1029
s((S'http://get.rvm.io'
p1032
tp1033
(ttp1034
g1032
s((S'http://the-whiteboard.com'
p1035
tp1036
(ttp1037
g1035
s((S'http://lexus.com'
p1038
tp1039
(ttp1040
g1038
s((S'http://darshahr.com'
p1041
tp1042
(ttp1043
g1041
s((S'http://piriform.com'
p1044
tp1045
(ttp1046
g1044
s((S'http://backbonemarionette.readthedocs.org'
p1047
tp1048
(ttp1049
g1047
s((S'http://dailymail.co.uk'
p1050
tp1051
(ttp1052
g1050
s((S'http://archive.washingtonexaminer.com'
p1053
tp1054
(ttp1055
g1053
s((S'http://ia802308.us.archive.org'
p1056
tp1057
(ttp1058
g1056
s((S'http://easylist.adblockplus.org'
p1059
tp1060
(ttp1061
g1059
s((S'http://quickenloans.com'
p1062
tp1063
(ttp1064
g1062
s((S'http://leptithebdo.net'
p1065
tp1066
(ttp1067
g1065
s((S'http://g5.com'
p1068
tp1069
(ttp1070
g1068
s((S'http://weibo.com'
p1071
tp1072
(ttp1073
g1071
s((S'http://dorkly.com'
p1074
tp1075
(ttp1076
g1074
s((S'http://confluence.atlassian.com'
p1077
tp1078
(ttp1079
g1077
s((S'http://tessera.com'
p1080
tp1081
(ttp1082
g1080
s((S'http://mfglabs.com'
p1083
tp1084
(ttp1085
g1083
s((S'http://raw.githubusercontent.com'
p1086
tp1087
(ttp1088
g1086
s((S'http://hetic.net'
p1089
tp1090
(ttp1091
g1089
s((S'http://schlockmercenary.com'
p1092
tp1093
(ttp1094
g1092
s((S'http://gotealeaf.com'
p1095
tp1096
(ttp1097
g1095
s((S'http://bbc.com'
p1098
tp1099
(ttp1100
g1098
s((S'http://julesbassoleil.fr'
p1101
tp1102
(ttp1103
g1101
s((S'http://istart.webssearches.com'
p1104
tp1105
(ttp1106
g1104
s((S'http://uberblick.com'
p1107
tp1108
(ttp1109
g1107
s((S'http://walla.co.il'
p1110
tp1111
(ttp1112
S'walla.co.il'
p1113
s((S'http://us-mg6.mail.yahoo.com'
p1114
tp1115
(ttp1116
g1114
s((S'http://advoca.basecamphq.com'
p1117
tp1118
(ttp1119
g1117
s((S'http://steamcommunity.com'
p1120
tp1121
(ttp1122
g1120
s((S'http://sublime.wbond.net'
p1123
tp1124
(ttp1125
g1123
s((S'http://offers.bycontext.com'
p1126
tp1127
(ttp1128
g1126
s((S'http://douban.com'
p1129
tp1130
(ttp1131
g1129
s((S'http://newegg.com'
p1132
tp1133
(ttp1134
g1132
s((S'http://stackexchange.com'
p1135
tp1136
(ttp1137
g1135
s((S'http://firstlook.org'
p1138
tp1139
(ttp1140
g1138
s((S'http://jobs.ziprecruiter.com'
p1141
tp1142
(ttp1143
g1141
s((S'http://karamicrabbit.tumblr.com'
p1144
tp1145
(ttp1146
g1144
s((S'http://courses.edx.org'
p1147
tp1148
(ttp1149
g1147
s((S'http://w3school.com'
p1150
tp1151
(ttp1152
S'w3school.com'
p1153
s((S'http://mapbox.com'
p1154
tp1155
(ttp1156
g1154
s((S'http://rubyonrails.org'
p1157
tp1158
(ttp1159
g1157
s((S'http://ta-meteo.fr'
p1160
tp1161
(ttp1162
g1160
s((S'http://acomstrategies.com'
p1163
tp1164
(ttp1165
g1163
s((S'http://shop.surftech.com'
p1166
tp1167
(ttp1168
g1166
s((S'http://comment-supprimer.com'
p1169
tp1170
(ttp1171
g1169
s((S'http://strassenweb.de'
p1172
tp1173
(ttp1174
g1172
s((S'http://aliendice.com'
p1175
tp1176
(ttp1177
g1175
s((S'http://mashable.com'
p1178
tp1179
(ttp1180
g1178
s((S'http://toolslib.net'
p1181
tp1182
(ttp1183
g1181
s((S'http://trovi.com'
p1184
tp1185
(ttp1186
g1184
s((S'http://iep.utm.edu'
p1187
tp1188
(ttp1189
g1187
s((S'http://jewishjournal.com'
p1190
tp1191
(ttp1192
g1190
s((S'http://demo-recruiting.mhm-hr.com'
p1193
tp1194
(ttp1195
g1193
s((S'http://ynetnews.com'
p1196
tp1197
(ttp1198
g1196
s((S'http://brianhoffdesign.com'
p1199
tp1200
(ttp1201
g1199
s((S'http://boardgamegeek.com'
p1202
tp1203
(ttp1204
g1202
s((S'http://wordpress.homicidewatch.org'
p1205
tp1206
(ttp1207
g1205
s((S'http://installationpage.com'
p1208
tp1209
(ttp1210
g1208
s((S'http://swz.salary.com'
p1211
tp1212
(ttp1213
g1211
s((S'http://beadworksphiladelphia.com'
p1214
tp1215
(ttp1216
g1214
s((S'http://netlore.ru'
p1217
tp1218
(ttp1219
g1217
s((S'http://rawgit.com'
p1220
tp1221
(ttp1222
g1220
s((S'http://radiodev.djazz.se'
p1223
tp1224
(ttp1225
g1223
s((S'http://npmjs.org'
p1226
tp1227
(ttp1228
g1226
s((S'http://daat.ac.il'
p1229
tp1230
(ttp1231
g1229
s((S'http://jira.com'
p1232
tp1233
(ttp1234
g1232
s((S'http://venturebeat.com'
p1235
tp1236
(ttp1237
g1235
s((S'http://overviewproject.org'
p1238
tp1239
(ttp1240
g1238
s((S'http://bdizz.exclusiverewards.awardsgirl.biz'
p1241
tp1242
(ttp1243
g1241
s((S'http://elroys.bandcamp.com'
p1244
tp1245
(ttp1246
g1244
s.